Certificate:
    Data:
        Version: 3 (0x2)
        Serial Number:
            0c:6b:37:67:6d:0f:89:e5:c5:98:b9:08:58
        Signature Algorithm: sha256WithRSAEncryption
        Issuer: CN = Test SubCA 2, OU = Test, O = MTG, C = DE
        Validity
            Not Before: Jan 16 06:25:42 2020 GMT
            Not After : Jan 16 06:25:42 2021 GMT
        Subject: O = MTG, L = Darmstadt, ST = Hessen, C = DE, businessCategory = Private Organization, organizationIdentifier = NTRDE-12345678, organizationIdentifier = NTRDE-12345678, serialNumber = 12345678, jurisdictionC = DE
        Subject Public Key Info:
            Public Key Algorithm: rsaEncryption
                RSA Public-Key: (2048 bit)
                Modulus:
                    00:94:fa:a4:62:10:83:4e:e9:56:e1:1b:77:42:e8:
                    ad:c3:db:59:16:83:63:8c:78:d1:12:10:62:b3:33:
                    f7:5c:37:9a:d9:88:5e:6d:87:f7:94:56:4a:27:95:
                    9c:11:43:03:84:e9:d5:eb:de:5e:a1:b7:10:44:aa:
                    2d:75:7f:5b:7f:0b:88:65:e9:2d:1c:77:8a:4e:92:
                    29:29:46:2b:cf:fd:24:82:5b:a8:a4:30:78:9c:e2:
                    57:35:f4:48:18:6d:86:93:cd:be:86:1f:a6:3c:f8:
                    52:ad:62:d0:12:15:8a:75:77:13:dc:09:89:94:fe:
                    fb:99:14:5b:ea:63:52:a8:f1:69:7e:cb:66:05:07:
                    86:c9:a8:8d:75:64:bc:3f:b4:1e:99:d2:a2:4a:ad:
                    e6:f0:fa:03:57:28:05:7b:5a:16:63:59:c8:ab:93:
                    43:37:02:e6:6c:cd:d6:2b:35:28:3e:dc:37:a0:aa:
                    e1:32:65:2f:48:3c:2b:99:d4:42:31:90:68:53:b6:
                    91:e1:23:89:71:63:54:41:84:4f:de:17:57:8c:41:
                    f0:12:71:41:ac:ee:45:d8:62:b0:68:d1:43:6d:81:
                    ec:a7:51:48:3c:0e:ef:92:db:0e:46:d8:bd:be:1f:
                    4e:c5:5d:95:8b:16:56:aa:19:eb:97:0d:8a:27:06:
                    70:45
                Exponent: 65537 (0x10001)
        X509v3 extensions:
            X509v3 Authority Key Identifier: 
                keyid:63:8E:B0:E7:BE:CD:D1:5F:0A:FE:51:1B:85:85:00:1A:3D:86:17:4E

            X509v3 Subject Key Identifier: 
                2C:8A:16:92:1B:30:C5:D5:15:80:21:03:C0:4B:BE:32:2A:CF:C2:F6
            X509v3 Key Usage: critical
                Digital Signature, Key Encipherment
            X509v3 Basic Constraints: critical
                CA:FALSE
            X509v3 Subject Alternative Name: 
                DNS:www.example.com
            Authority Information Access: 
                CA Issuers - URI:http://ca.example.com/ca.crt
                OCSP - URI:http://ocsp.example.com/ocsp

            X509v3 Certificate Policies: 
                Policy: 2.23.140.1.1
                Policy: 1.3.6.1.4.1.7879.13.24.1
                  CPS: http://www.telesec.de/serverpass/cps.html

            X509v3 Extended Key Usage: 
                TLS Web Server Authentication, TLS Web Client Authentication
            2.23.140.3.1: 
                0...NTR..DE..12345678
    Signature Algorithm: sha256WithRSAEncryption
         51:fe:f4:ae:51:ea:fe:fa:1a:01:c9:af:d5:10:aa:42:cf:d4:
         76:11:88:bc:0c:be:e2:00:36:06:f1:10:9a:38:83:29:6c:91:
         c0:5b:68:9b:67:8b:b8:57:ce:55:a6:e3:28:b9:6b:c8:c2:3a:
         00:7a:68:b8:ee:dd:2c:37:36:e3:cd:69:6d:02:3a:80:d2:ef:
         dd:fd:bb:fc:aa:d1:46:a1:e2:ab:72:20:5c:51:2b:b9:d9:c5:
         8b:db:55:6a:ea:f5:a8:01:87:66:6b:5a:d9:99:61:8a:31:3e:
         32:b8:71:1f:2f:72:cf:ea:6f:f8:13:76:6d:26:98:06:0f:b4:
         c3:b4:28:6e:11:88:b4:a7:b2:08:35:de:e5:ec:31:7a:a1:2a:
         00:0e:e7:33:d9:e3:0d:79:e4:d3:ba:ef:bf:71:75:81:26:88:
         78:fc:79:ef:5e:bd:5e:9a:31:0c:01:2c:45:67:a6:01:8a:63:
         dd:5e:20:9c:8f:4c:df:2b:a6:94:1a:96:e2:8f:11:6c:44:49:
         e6:16:41:5a:d2:68:2a:d2:2f:86:01:43:fa:02:2a:da:a9:80:
         51:6c:dd:6f:df:42:36:f8:aa:92:37:70:02:04:f7:bc:f5:9d:
         7e:79:cc:1b:61:57:f2:18:11:c1:da:38:b2:ac:e2:57:d4:f9:
         38:5e:65:bc
-----BEGIN CERTIFICATE-----
MIIFADCCA+igAwIBAgINDGs3Z20PieXFmLkIWDANBgkqhkiG9w0BAQsFADBBMRUw
EwYDVQQDDAxUZXN0IFN1YkNBIDIxDTALBgNVBAsMBFRlc3QxDDAKBgNVBAoMA01U
RzELMAkGA1UEBhMCREUwHhcNMjAwMTE2MDYyNTQyWhcNMjEwMTE2MDYyNTQyWjCB
uTEMMAoGA1UECgwDTVRHMRIwEAYDVQQHDAlEYXJtc3RhZHQxDzANBgNVBAgMBkhl
c3NlbjELMAkGA1UEBhMCREUxHTAbBgNVBA8MFFByaXZhdGUgT3JnYW5pemF0aW9u
MRcwFQYDVQRhDA5OVFJERS0xMjM0NTY3ODEXMBUGA1UEYQwOTlRSREUtMTIzNDU2
NzgxETAPBgNVBAUTCDEyMzQ1Njc4MRMwEQYLKwYBBAGCNzwCAQMMAkRFMIIBIjAN
BgkqhkiG9w0BAQEFAAOCAQ8AMIIBCgKCAQEAlPqkYhCDTulW4Rt3Quitw9tZFoNj
jHjREhBiszP3XDea2YhebYf3lFZKJ5WcEUMDhOnV695eobcQRKotdX9bfwuIZekt
HHeKTpIpKUYrz/0kgluopDB4nOJXNfRIGG2Gk82+hh+mPPhSrWLQEhWKdXcT3AmJ
lP77mRRb6mNSqPFpfstmBQeGyaiNdWS8P7QemdKiSq3m8PoDVygFe1oWY1nIq5ND
NwLmbM3WKzUoPtw3oKrhMmUvSDwrmdRCMZBoU7aR4SOJcWNUQYRP3hdXjEHwEnFB
rO5F2GKwaNFDbYHsp1FIPA7vktsORti9vh9OxV2VixZWqhnrlw2KJwZwRQIDAQAB
o4IBfDCCAXgwHwYDVR0jBBgwFoAUY46w577N0V8K/lEbhYUAGj2GF04wHQYDVR0O
BBYEFCyKFpIbMMXVFYAhA8BLvjIqz8L2MA4GA1UdDwEB/wQEAwIFoDAMBgNVHRMB
Af8EAjAAMBoGA1UdEQQTMBGCD3d3dy5leGFtcGxlLmNvbTBiBggrBgEFBQcBAQRW
MFQwKAYIKwYBBQUHMAKGHGh0dHA6Ly9jYS5leGFtcGxlLmNvbS9jYS5jcnQwKAYI
KwYBBQUHMAGGHGh0dHA6Ly9vY3NwLmV4YW1wbGUuY29tL29jc3AwWQYDVR0gBFIw
UDAHBgVngQwBATBFBgorBgEEAb1HDRgBMDcwNQYIKwYBBQUHAgEWKWh0dHA6Ly93
d3cudGVsZXNlYy5kZS9zZXJ2ZXJwYXNzL2Nwcy5odG1sMB0GA1UdJQQWMBQGCCsG
AQUFBwMBBggrBgEFBQcDAjAeBgVngQwDAQQVMBMTA05UUhMCREUMCDEyMzQ1Njc4
MA0GCSqGSIb3DQEBCwUAA4IBAQBR/vSuUer++hoBya/VEKpCz9R2EYi8DL7iADYG
8RCaOIMpbJHAW2ibZ4u4V85VpuMouWvIwjoAemi47t0sNzbjzWltAjqA0u/d/bv8
qtFGoeKrciBcUSu52cWL21Vq6vWoAYdma1rZmWGKMT4yuHEfL3LP6m/4E3ZtJpgG
D7TDtChuEYi0p7IINd7l7DF6oSoADucz2eMNeeTTuu+/cXWBJoh4/HnvXr1emjEM
ASxFZ6YBimPdXiCcj0zfK6aUGpbijxFsREnmFkFa0mgq0i+GAUP6AiraqYBRbN1v
30I2+KqSN3ACBPe89Z1+ecwbYVfyGBHB2jiyrOJX1Pk4XmW8
-----END CERTIFICATE-----
