Certificate:
    Data:
        Version: 3 (0x2)
        Serial Number:
            0a:8f:4a:c7:f3:87:e2:f4:f1:95:d3:44:d0
        Signature Algorithm: sha256WithRSAEncryption
        Issuer: CN = Test SubCA 2, OU = Test, O = MTG, C = DE
        Validity
            Not Before: Jan 27 04:33:28 2020 GMT
            Not After : Jan 27 04:33:28 2021 GMT
        Subject: O = MTG, L = Darmstadt, ST = Hessen, C = DE, businessCategory = Private Organization, organizationIdentifier = "NTRDE+HE-12345678", serialNumber = 12345678, jurisdictionC = DE
        Subject Public Key Info:
            Public Key Algorithm: rsaEncryption
                RSA Public-Key: (2048 bit)
                Modulus:
                    00:87:28:35:cc:92:ea:57:c1:8f:45:5e:74:08:2e:
                    a2:08:20:4e:ff:40:8a:62:9a:d4:1b:48:37:8b:30:
                    90:1a:a0:e8:4e:76:9d:85:e5:bf:11:8f:34:f3:22:
                    00:a9:e6:ab:7f:0d:de:d3:92:6b:7b:55:95:a3:f0:
                    26:f2:bc:a0:2d:16:7f:53:23:8e:d4:5a:38:6f:a3:
                    43:b3:28:40:20:09:8c:0e:97:af:09:a5:e4:21:4e:
                    bb:48:c9:ce:ea:1d:aa:23:60:c8:86:cf:0b:e1:c7:
                    73:88:50:fe:95:dc:74:76:b9:6c:fe:03:21:c5:9a:
                    b6:78:52:33:d8:53:3d:4c:c8:b9:14:60:03:0c:23:
                    77:ca:61:5c:7e:24:8b:b9:88:0e:4d:b4:ee:77:71:
                    c6:ba:69:ba:42:8b:98:2f:01:79:2c:54:4c:23:44:
                    1f:72:1d:66:c0:c3:40:09:8b:52:df:1a:6a:8b:69:
                    38:ac:4f:45:1f:61:b7:54:52:df:e7:98:97:a1:60:
                    52:38:a2:22:d7:67:0e:35:65:30:1a:cd:93:d4:f4:
                    0d:33:20:63:c4:f9:8a:86:3e:fe:23:be:0f:10:a1:
                    95:53:f9:5f:ac:5c:00:0e:96:ec:c5:53:81:a2:80:
                    b4:33:4a:ce:e0:de:0e:8c:4e:5f:1b:57:5d:fc:3a:
                    89:ad
                Exponent: 65537 (0x10001)
        X509v3 extensions:
            X509v3 Authority Key Identifier: 
                keyid:A1:F3:78:87:AD:3E:38:B0:0B:3A:1B:FE:0D:13:B8:D7:C7:74:EC:ED

            X509v3 Subject Key Identifier: 
                C1:3E:3B:E1:DE:35:23:A1:54:5C:A4:C5:9A:69:0C:16:53:7D:49:31
            X509v3 Key Usage: critical
                Digital Signature, Key Encipherment
            X509v3 Basic Constraints: critical
                CA:FALSE
            X509v3 Subject Alternative Name: 
                DNS:www.example.com
            Authority Information Access: 
                CA Issuers - URI:http://ca.example.com/ca.crt
                OCSP - URI:http://ocsp.example.com/ocsp

            X509v3 Certificate Policies: 
                Policy: 2.23.140.1.1
                Policy: 1.3.6.1.4.1.7879.13.24.1
                  CPS: http://www.telesec.de/serverpass/cps.html

            X509v3 Extended Key Usage: 
                TLS Web Server Authentication, TLS Web Client Authentication
            2.23.140.3.1: 
                0...NTR..DE.. ..12345678
    Signature Algorithm: sha256WithRSAEncryption
         6c:79:84:f9:36:4b:be:02:ff:c3:e7:b0:d1:61:f6:fd:6b:61:
         07:78:68:63:1f:6a:35:64:fa:4c:00:fa:ed:85:38:97:fe:91:
         14:0b:57:ce:5e:7d:64:59:95:c4:34:05:33:d3:d1:3d:f4:51:
         b5:e5:65:96:92:74:d0:6d:fb:22:e8:f9:44:7c:c7:d4:6b:46:
         ea:3f:9c:d4:b0:c1:05:69:f5:86:23:a9:db:14:ee:27:40:1e:
         d2:cf:ec:c2:e6:10:0b:97:71:11:aa:05:a3:03:28:6e:bd:c1:
         55:42:d7:48:b6:67:30:a3:35:47:33:fa:c3:d3:2e:5e:ad:a1:
         88:22:63:08:93:99:fc:97:1a:3c:62:4a:e3:19:8d:2a:fc:a8:
         15:9c:dc:d5:c6:e1:56:db:6c:1e:e6:34:69:53:f2:13:a2:10:
         60:13:48:bd:7a:63:c7:fe:c3:0e:b4:a1:79:af:18:eb:d8:fd:
         7a:13:13:f4:9a:b4:eb:ca:40:7e:49:3c:a7:19:80:04:b7:8a:
         9b:b9:91:2f:60:9b:be:8c:2c:e4:2b:5b:d7:17:57:40:4a:76:
         09:31:14:ad:c8:a1:c5:32:8c:ed:5a:83:0c:a7:56:a4:29:c6:
         ad:22:0f:9d:86:4f:c6:e6:0c:ad:dd:5b:68:c6:70:c5:61:26:
         6f:da:9d:b8
-----BEGIN CERTIFICATE-----
MIIE7TCCA9WgAwIBAgINCo9Kx/OH4vTxldNE0DANBgkqhkiG9w0BAQsFADBBMRUw
EwYDVQQDDAxUZXN0IFN1YkNBIDIxDTALBgNVBAsMBFRlc3QxDDAKBgNVBAoMA01U
RzELMAkGA1UEBhMCREUwHhcNMjAwMTI3MDQzMzI4WhcNMjEwMTI3MDQzMzI4WjCB
ozEMMAoGA1UECgwDTVRHMRIwEAYDVQQHDAlEYXJtc3RhZHQxDzANBgNVBAgMBkhl
c3NlbjELMAkGA1UEBhMCREUxHTAbBgNVBA8MFFByaXZhdGUgT3JnYW5pemF0aW9u
MRowGAYDVQRhDBFOVFJERStIRS0xMjM0NTY3ODERMA8GA1UEBRMIMTIzNDU2Nzgx
EzARBgsrBgEEAYI3PAIBAwwCREUwggEiMA0GCSqGSIb3DQEBAQUAA4IBDwAwggEK
AoIBAQCHKDXMkupXwY9FXnQILqIIIE7/QIpimtQbSDeLMJAaoOhOdp2F5b8RjzTz
IgCp5qt/Dd7Tkmt7VZWj8CbyvKAtFn9TI47UWjhvo0OzKEAgCYwOl68JpeQhTrtI
yc7qHaojYMiGzwvhx3OIUP6V3HR2uWz+AyHFmrZ4UjPYUz1MyLkUYAMMI3fKYVx+
JIu5iA5NtO53cca6abpCi5gvAXksVEwjRB9yHWbAw0AJi1LfGmqLaTisT0UfYbdU
Ut/nmJehYFI4oiLXZw41ZTAazZPU9A0zIGPE+YqGPv4jvg8QoZVT+V+sXAAOluzF
U4GigLQzSs7g3g6MTl8bV138OomtAgMBAAGjggF/MIIBezAfBgNVHSMEGDAWgBSh
83iHrT44sAs6G/4NE7jXx3Ts7TAdBgNVHQ4EFgQUwT474d41I6FUXKTFmmkMFlN9
STEwDgYDVR0PAQH/BAQDAgWgMAwGA1UdEwEB/wQCMAAwGgYDVR0RBBMwEYIPd3d3
LmV4YW1wbGUuY29tMGIGCCsGAQUFBwEBBFYwVDAoBggrBgEFBQcwAoYcaHR0cDov
L2NhLmV4YW1wbGUuY29tL2NhLmNydDAoBggrBgEFBQcwAYYcaHR0cDovL29jc3Au
ZXhhbXBsZS5jb20vb2NzcDBZBgNVHSAEUjBQMAcGBWeBDAEBMEUGCisGAQQBvUcN
GAEwNzA1BggrBgEFBQcCARYpaHR0cDovL3d3dy50ZWxlc2VjLmRlL3NlcnZlcnBh
c3MvY3BzLmh0bWwwHQYDVR0lBBYwFAYIKwYBBQUHAwEGCCsGAQUFBwMCMCEGBWeB
DAMBBBgwFhMDTlRSEwJERYABIAwIMTIzNDU2NzgwDQYJKoZIhvcNAQELBQADggEB
AGx5hPk2S74C/8PnsNFh9v1rYQd4aGMfajVk+kwA+u2FOJf+kRQLV85efWRZlcQ0
BTPT0T30UbXlZZaSdNBt+yLo+UR8x9RrRuo/nNSwwQVp9YYjqdsU7idAHtLP7MLm
EAuXcRGqBaMDKG69wVVC10i2ZzCjNUcz+sPTLl6toYgiYwiTmfyXGjxiSuMZjSr8
qBWc3NXG4VbbbB7mNGlT8hOiEGATSL16Y8f+ww60oXmvGOvY/XoTE/SatOvKQH5J
PKcZgAS3ipu5kS9gm76MLOQrW9cXV0BKdgkxFK3IocUyjO1agwynVqQpxq0iD52G
T8bmDK3dW2jGcMVhJm/anbg=
-----END CERTIFICATE-----
