Certificate:
    Data:
        Version: 3 (0x2)
        Serial Number:
            02:51:2b:f8:4c:c3:e3:db:35:61:3d:7e:fe
        Signature Algorithm: sha256WithRSAEncryption
        Issuer: CN = Test SubCA 2, OU = Test, O = MTG, C = DE
        Validity
            Not Before: Nov  1 08:03:01 2019 GMT
            Not After : Nov  1 08:03:01 2020 GMT
        Subject: O = MTG, L = Darmstadt, ST = Hessen, C = DE, businessCategory = Private Organization, organizationIdentifier = "NTRDE+HE-12345678", serialNumber = 12345678, jurisdictionC = DE
        Subject Public Key Info:
            Public Key Algorithm: rsaEncryption
                RSA Public-Key: (2048 bit)
                Modulus:
                    00:c2:0d:81:71:b4:94:05:bc:cf:99:8a:aa:62:08:
                    f2:2e:63:b2:1e:46:f9:2b:85:98:c3:83:d0:ce:26:
                    ad:76:8f:5c:e7:5b:05:20:25:26:32:19:c2:24:8a:
                    ba:69:a3:eb:ca:10:a4:f3:cf:b5:c6:1e:f6:70:58:
                    96:5b:88:52:6a:88:42:33:85:b8:c6:16:48:4f:01:
                    45:39:3f:e1:6a:b9:06:b5:ef:37:db:79:9e:50:90:
                    57:43:5b:8b:c3:35:0d:b3:41:f4:1b:c2:4a:7f:18:
                    3c:39:2d:4f:bf:2b:a5:71:07:73:33:00:e5:8d:36:
                    9e:fe:8f:72:c5:72:56:08:cc:86:b6:ef:ba:e2:fd:
                    9b:5c:c6:2d:94:ed:2d:64:24:77:e6:67:4d:62:db:
                    94:2e:29:8e:dd:1d:7a:ca:bc:68:fb:15:2c:80:56:
                    d3:dd:e7:3a:8f:98:18:14:4b:11:d9:c4:01:1f:b9:
                    7a:d0:d9:ad:69:11:05:f6:0e:ae:5f:fc:cd:c6:b3:
                    cb:4d:ae:8e:45:18:0a:a8:c0:40:11:28:dc:cd:9f:
                    7a:26:67:5a:47:80:9b:d9:4c:f7:da:5f:6d:13:83:
                    1a:91:92:d1:b9:44:f7:72:6b:97:47:74:71:70:80:
                    d3:d6:73:bf:76:33:5c:70:b8:6f:87:37:3e:7e:8e:
                    75:e5
                Exponent: 65537 (0x10001)
        X509v3 extensions:
            X509v3 Authority Key Identifier: 
                keyid:0C:5E:9C:FE:BA:4B:21:6C:04:1D:C2:5A:B7:E3:88:5F:59:DE:4C:12

            X509v3 Subject Key Identifier: 
                0E:6B:AA:83:A9:B2:4D:5C:85:CD:B1:D2:2F:87:F7:20:CB:36:43:3B
            X509v3 Key Usage: critical
                Digital Signature, Key Encipherment
            X509v3 Basic Constraints: critical
                CA:FALSE
            X509v3 Subject Alternative Name: 
                DNS:www.example.com
            Authority Information Access: 
                CA Issuers - URI:http://ca.example.com/ca.crt
                OCSP - URI:http://ocsp.example.com/ocsp

            X509v3 Certificate Policies: 
                Policy: 2.23.140.1.1
                Policy: 1.3.6.1.4.1.7879.13.24.1
                  CPS: http://www.telesec.de/serverpass/cps.html

            X509v3 Extended Key Usage: 
                TLS Web Server Authentication, TLS Web Client Authentication
    Signature Algorithm: sha256WithRSAEncryption
         66:ab:73:0d:cf:e1:84:a8:c2:2a:38:2d:48:07:4e:83:12:3b:
         40:14:79:9b:aa:bf:6e:87:14:a9:50:cd:d5:b8:af:72:8e:6f:
         ae:a6:ea:19:0b:05:c5:98:47:b2:45:78:23:29:b5:45:8b:a6:
         8b:70:cb:f2:84:b2:9f:aa:7b:50:28:fe:75:ef:2f:db:68:43:
         9e:01:5f:86:1d:43:98:83:e1:a5:8a:15:f3:7b:9a:3f:9d:90:
         28:90:f9:bd:fd:bf:03:d2:17:22:a9:bc:6d:7b:b5:25:19:a4:
         ee:f7:05:8a:b1:c5:69:0d:d8:ec:b8:29:4d:85:a3:3b:40:3d:
         3b:2d:b4:c6:6e:20:24:e5:c6:e7:40:d4:ca:a9:6d:15:08:25:
         34:2e:01:0f:06:96:ee:83:27:56:0c:79:2f:f1:ae:61:d2:bd:
         77:8e:26:9b:dd:4e:ec:7e:25:ff:66:ad:2b:0c:ff:a2:30:f3:
         48:62:2f:da:f5:bf:e5:c5:9f:93:6c:56:d9:d5:0d:4f:49:6d:
         5d:9a:12:ef:9d:75:9c:09:54:3a:55:6d:97:c1:c6:cd:90:9c:
         95:bd:b2:45:dc:a2:57:32:ee:d2:76:3b:d2:00:ad:d6:ad:06:
         b3:3b:f5:e1:5d:09:6e:0c:e3:28:b0:c6:58:25:91:f8:0a:e2:
         cb:ac:7c:5e
-----BEGIN CERTIFICATE-----
MIIEyjCCA7KgAwIBAgINAlEr+EzD49s1YT1+/jANBgkqhkiG9w0BAQsFADBBMRUw
EwYDVQQDDAxUZXN0IFN1YkNBIDIxDTALBgNVBAsMBFRlc3QxDDAKBgNVBAoMA01U
RzELMAkGA1UEBhMCREUwHhcNMTkxMTAxMDgwMzAxWhcNMjAxMTAxMDgwMzAxWjCB
ozEMMAoGA1UECgwDTVRHMRIwEAYDVQQHDAlEYXJtc3RhZHQxDzANBgNVBAgMBkhl
c3NlbjELMAkGA1UEBhMCREUxHTAbBgNVBA8MFFByaXZhdGUgT3JnYW5pemF0aW9u
MRowGAYDVQRhDBFOVFJERStIRS0xMjM0NTY3ODERMA8GA1UEBRMIMTIzNDU2Nzgx
EzARBgsrBgEEAYI3PAIBAwwCREUwggEiMA0GCSqGSIb3DQEBAQUAA4IBDwAwggEK
AoIBAQDCDYFxtJQFvM+ZiqpiCPIuY7IeRvkrhZjDg9DOJq12j1znWwUgJSYyGcIk
irppo+vKEKTzz7XGHvZwWJZbiFJqiEIzhbjGFkhPAUU5P+FquQa17zfbeZ5QkFdD
W4vDNQ2zQfQbwkp/GDw5LU+/K6VxB3MzAOWNNp7+j3LFclYIzIa277ri/Ztcxi2U
7S1kJHfmZ01i25QuKY7dHXrKvGj7FSyAVtPd5zqPmBgUSxHZxAEfuXrQ2a1pEQX2
Dq5f/M3Gs8tNro5FGAqowEARKNzNn3omZ1pHgJvZTPfaX20TgxqRktG5RPdya5dH
dHFwgNPWc792M1xwuG+HNz5+jnXlAgMBAAGjggFcMIIBWDAfBgNVHSMEGDAWgBQM
Xpz+ukshbAQdwlq344hfWd5MEjAdBgNVHQ4EFgQUDmuqg6myTVyFzbHSL4f3IMs2
QzswDgYDVR0PAQH/BAQDAgWgMAwGA1UdEwEB/wQCMAAwGgYDVR0RBBMwEYIPd3d3
LmV4YW1wbGUuY29tMGIGCCsGAQUFBwEBBFYwVDAoBggrBgEFBQcwAoYcaHR0cDov
L2NhLmV4YW1wbGUuY29tL2NhLmNydDAoBggrBgEFBQcwAYYcaHR0cDovL29jc3Au
ZXhhbXBsZS5jb20vb2NzcDBZBgNVHSAEUjBQMAcGBWeBDAEBMEUGCisGAQQBvUcN
GAEwNzA1BggrBgEFBQcCARYpaHR0cDovL3d3dy50ZWxlc2VjLmRlL3NlcnZlcnBh
c3MvY3BzLmh0bWwwHQYDVR0lBBYwFAYIKwYBBQUHAwEGCCsGAQUFBwMCMA0GCSqG
SIb3DQEBCwUAA4IBAQBmq3MNz+GEqMIqOC1IB06DEjtAFHmbqr9uhxSpUM3VuK9y
jm+upuoZCwXFmEeyRXgjKbVFi6aLcMvyhLKfqntQKP517y/baEOeAV+GHUOYg+Gl
ihXze5o/nZAokPm9/b8D0hciqbxte7UlGaTu9wWKscVpDdjsuClNhaM7QD07LbTG
biAk5cbnQNTKqW0VCCU0LgEPBpbugydWDHkv8a5h0r13jiab3U7sfiX/Zq0rDP+i
MPNIYi/a9b/lxZ+TbFbZ1Q1PSW1dmhLvnXWcCVQ6VW2XwcbNkJyVvbJF3KJXMu7S
djvSAK3WrQazO/XhXQluDOMosMZYJZH4CuLLrHxe
-----END CERTIFICATE-----
