Certificate:
    Data:
        Version: 3 (0x2)
        Serial Number:
            0b:18:7d:e5:3c:1a:fa:55:96:dc:b2:24:c8
        Signature Algorithm: sha256WithRSAEncryption
        Issuer: CN = Test SubCA 2, OU = Test, O = MTG, C = DE
        Validity
            Not Before: Nov  1 08:03:01 2019 GMT
            Not After : Nov  1 08:03:01 2020 GMT
        Subject: O = MTG, L = Darmstadt, ST = Hessen, C = DE, businessCategory = Private Organization, organizationIdentifier = "NTRDE+HE-12345678", serialNumber = 12345678, jurisdictionC = DE, jurisdictionST = Hessen
        Subject Public Key Info:
            Public Key Algorithm: rsaEncryption
                RSA Public-Key: (2048 bit)
                Modulus:
                    00:c2:0d:81:71:b4:94:05:bc:cf:99:8a:aa:62:08:
                    f2:2e:63:b2:1e:46:f9:2b:85:98:c3:83:d0:ce:26:
                    ad:76:8f:5c:e7:5b:05:20:25:26:32:19:c2:24:8a:
                    ba:69:a3:eb:ca:10:a4:f3:cf:b5:c6:1e:f6:70:58:
                    96:5b:88:52:6a:88:42:33:85:b8:c6:16:48:4f:01:
                    45:39:3f:e1:6a:b9:06:b5:ef:37:db:79:9e:50:90:
                    57:43:5b:8b:c3:35:0d:b3:41:f4:1b:c2:4a:7f:18:
                    3c:39:2d:4f:bf:2b:a5:71:07:73:33:00:e5:8d:36:
                    9e:fe:8f:72:c5:72:56:08:cc:86:b6:ef:ba:e2:fd:
                    9b:5c:c6:2d:94:ed:2d:64:24:77:e6:67:4d:62:db:
                    94:2e:29:8e:dd:1d:7a:ca:bc:68:fb:15:2c:80:56:
                    d3:dd:e7:3a:8f:98:18:14:4b:11:d9:c4:01:1f:b9:
                    7a:d0:d9:ad:69:11:05:f6:0e:ae:5f:fc:cd:c6:b3:
                    cb:4d:ae:8e:45:18:0a:a8:c0:40:11:28:dc:cd:9f:
                    7a:26:67:5a:47:80:9b:d9:4c:f7:da:5f:6d:13:83:
                    1a:91:92:d1:b9:44:f7:72:6b:97:47:74:71:70:80:
                    d3:d6:73:bf:76:33:5c:70:b8:6f:87:37:3e:7e:8e:
                    75:e5
                Exponent: 65537 (0x10001)
        X509v3 extensions:
            X509v3 Authority Key Identifier: 
                keyid:0C:5E:9C:FE:BA:4B:21:6C:04:1D:C2:5A:B7:E3:88:5F:59:DE:4C:12

            X509v3 Subject Key Identifier: 
                0E:6B:AA:83:A9:B2:4D:5C:85:CD:B1:D2:2F:87:F7:20:CB:36:43:3B
            X509v3 Key Usage: critical
                Digital Signature, Key Encipherment
            X509v3 Basic Constraints: critical
                CA:FALSE
            X509v3 Subject Alternative Name: 
                DNS:www.example.com
            Authority Information Access: 
                CA Issuers - URI:http://ca.example.com/ca.crt
                OCSP - URI:http://ocsp.example.com/ocsp

            X509v3 Certificate Policies: 
                Policy: 2.23.140.1.1
                Policy: 1.3.6.1.4.1.7879.13.24.1
                  CPS: http://www.telesec.de/serverpass/cps.html

            X509v3 Extended Key Usage: 
                TLS Web Server Authentication, TLS Web Client Authentication
            2.23.140.3.1: 
                0...NTR..DE..Hessen..12345678
    Signature Algorithm: sha256WithRSAEncryption
         3a:51:bd:4a:72:2c:22:b8:14:2c:54:49:81:78:41:e8:cd:d1:
         e4:fb:0b:68:69:22:ff:44:f2:d4:47:bb:cb:c0:d6:cd:41:b5:
         4c:06:9b:3f:0d:dc:62:c6:19:94:dc:b6:74:66:c9:36:bc:7f:
         fd:68:56:e6:45:5a:33:34:80:45:75:2a:fb:01:bc:51:df:f2:
         62:18:9b:cc:fd:36:9b:12:3e:c6:15:8d:45:69:94:6b:45:5b:
         63:00:53:ba:fb:84:56:51:7a:d7:a3:cb:d8:98:a0:63:03:b4:
         ef:f2:31:fc:b7:72:c2:96:d6:59:a6:84:e4:36:18:35:70:4c:
         3a:63:a6:b7:9a:30:1a:4b:65:bc:78:9f:2e:b3:d6:d1:6d:c6:
         a0:6c:33:d1:0d:22:a2:a1:65:83:52:8b:9e:11:7b:7f:1d:69:
         fe:d6:06:ac:dc:f6:e2:1a:94:30:d5:2d:01:e5:9c:36:c0:3e:
         99:4b:a9:87:3f:40:dd:ba:d5:b6:2c:50:a9:13:02:de:0e:cc:
         66:dd:d9:d5:f6:3f:da:f6:b8:b5:76:28:b6:1a:8a:9e:53:0c:
         26:59:a6:1c:05:33:1b:05:ec:00:a9:f3:32:9d:b9:c4:b1:9b:
         f6:64:97:43:be:18:44:19:f9:d1:5f:57:d6:c6:de:d5:49:08:
         80:d1:4b:02
-----BEGIN CERTIFICATE-----
MIIFCzCCA/OgAwIBAgINCxh95Twa+lWW3LIkyDANBgkqhkiG9w0BAQsFADBBMRUw
EwYDVQQDDAxUZXN0IFN1YkNBIDIxDTALBgNVBAsMBFRlc3QxDDAKBgNVBAoMA01U
RzELMAkGA1UEBhMCREUwHhcNMTkxMTAxMDgwMzAxWhcNMjAxMTAxMDgwMzAxWjCB
vDEMMAoGA1UECgwDTVRHMRIwEAYDVQQHDAlEYXJtc3RhZHQxDzANBgNVBAgMBkhl
c3NlbjELMAkGA1UEBhMCREUxHTAbBgNVBA8MFFByaXZhdGUgT3JnYW5pemF0aW9u
MRowGAYDVQRhDBFOVFJERStIRS0xMjM0NTY3ODERMA8GA1UEBRMIMTIzNDU2Nzgx
EzARBgsrBgEEAYI3PAIBAwwCREUxFzAVBgsrBgEEAYI3PAIBAgwGSGVzc2VuMIIB
IjANBgkqhkiG9w0BAQEFAAOCAQ8AMIIBCgKCAQEAwg2BcbSUBbzPmYqqYgjyLmOy
Hkb5K4WYw4PQziatdo9c51sFICUmMhnCJIq6aaPryhCk88+1xh72cFiWW4hSaohC
M4W4xhZITwFFOT/harkGte8323meUJBXQ1uLwzUNs0H0G8JKfxg8OS1PvyulcQdz
MwDljTae/o9yxXJWCMyGtu+64v2bXMYtlO0tZCR35mdNYtuULimO3R16yrxo+xUs
gFbT3ec6j5gYFEsR2cQBH7l60NmtaREF9g6uX/zNxrPLTa6ORRgKqMBAESjczZ96
JmdaR4Cb2Uz32l9tE4MakZLRuUT3cmuXR3RxcIDT1nO/djNccLhvhzc+fo515QID
AQABo4IBhDCCAYAwHwYDVR0jBBgwFoAUDF6c/rpLIWwEHcJat+OIX1neTBIwHQYD
VR0OBBYEFA5rqoOpsk1chc2x0i+H9yDLNkM7MA4GA1UdDwEB/wQEAwIFoDAMBgNV
HRMBAf8EAjAAMBoGA1UdEQQTMBGCD3d3dy5leGFtcGxlLmNvbTBiBggrBgEFBQcB
AQRWMFQwKAYIKwYBBQUHMAKGHGh0dHA6Ly9jYS5leGFtcGxlLmNvbS9jYS5jcnQw
KAYIKwYBBQUHMAGGHGh0dHA6Ly9vY3NwLmV4YW1wbGUuY29tL29jc3AwWQYDVR0g
BFIwUDAHBgVngQwBATBFBgorBgEEAb1HDRgBMDcwNQYIKwYBBQUHAgEWKWh0dHA6
Ly93d3cudGVsZXNlYy5kZS9zZXJ2ZXJwYXNzL2Nwcy5odG1sMB0GA1UdJQQWMBQG
CCsGAQUFBwMBBggrBgEFBQcDAjAmBgVngQwDAQQdMBsTA05UUgwCREWABkhlc3Nl
bgwIMTIzNDU2NzgwDQYJKoZIhvcNAQELBQADggEBADpRvUpyLCK4FCxUSYF4QejN
0eT7C2hpIv9E8tRHu8vA1s1BtUwGmz8N3GLGGZTctnRmyTa8f/1oVuZFWjM0gEV1
KvsBvFHf8mIYm8z9NpsSPsYVjUVplGtFW2MAU7r7hFZRetejy9iYoGMDtO/yMfy3
csKW1lmmhOQ2GDVwTDpjpreaMBpLZbx4ny6z1tFtxqBsM9ENIqKhZYNSi54Re38d
af7WBqzc9uIalDDVLQHlnDbAPplLqYc/QN261bYsUKkTAt4OzGbd2dX2P9r2uLV2
KLYaip5TDCZZphwFMxsF7ACp8zKducSxm/Zkl0O+GEQZ+dFfV9bG3tVJCIDRSwI=
-----END CERTIFICATE-----
