Certificate:
    Data:
        Version: 3 (0x2)
        Serial Number:
            b0:27:40:3f:0e:d7:1c:88:a2:b5:f8:45
        Signature Algorithm: sha256WithRSAEncryption
        Issuer: CN = Test SubCA 2, OU = Test, O = MTG, C = DE
        Validity
            Not Before: Nov  1 08:03:01 2019 GMT
            Not After : Nov  1 08:03:01 2020 GMT
        Subject: O = MTG, L = Darmstadt, ST = Hessen, C = DE, businessCategory = Private Organization, organizationIdentifier = "NTRDE+HE-12345678", serialNumber = 12345678, jurisdictionC = DE, jurisdictionST = Hessen
        Subject Public Key Info:
            Public Key Algorithm: rsaEncryption
                RSA Public-Key: (2048 bit)
                Modulus:
                    00:c2:0d:81:71:b4:94:05:bc:cf:99:8a:aa:62:08:
                    f2:2e:63:b2:1e:46:f9:2b:85:98:c3:83:d0:ce:26:
                    ad:76:8f:5c:e7:5b:05:20:25:26:32:19:c2:24:8a:
                    ba:69:a3:eb:ca:10:a4:f3:cf:b5:c6:1e:f6:70:58:
                    96:5b:88:52:6a:88:42:33:85:b8:c6:16:48:4f:01:
                    45:39:3f:e1:6a:b9:06:b5:ef:37:db:79:9e:50:90:
                    57:43:5b:8b:c3:35:0d:b3:41:f4:1b:c2:4a:7f:18:
                    3c:39:2d:4f:bf:2b:a5:71:07:73:33:00:e5:8d:36:
                    9e:fe:8f:72:c5:72:56:08:cc:86:b6:ef:ba:e2:fd:
                    9b:5c:c6:2d:94:ed:2d:64:24:77:e6:67:4d:62:db:
                    94:2e:29:8e:dd:1d:7a:ca:bc:68:fb:15:2c:80:56:
                    d3:dd:e7:3a:8f:98:18:14:4b:11:d9:c4:01:1f:b9:
                    7a:d0:d9:ad:69:11:05:f6:0e:ae:5f:fc:cd:c6:b3:
                    cb:4d:ae:8e:45:18:0a:a8:c0:40:11:28:dc:cd:9f:
                    7a:26:67:5a:47:80:9b:d9:4c:f7:da:5f:6d:13:83:
                    1a:91:92:d1:b9:44:f7:72:6b:97:47:74:71:70:80:
                    d3:d6:73:bf:76:33:5c:70:b8:6f:87:37:3e:7e:8e:
                    75:e5
                Exponent: 65537 (0x10001)
        X509v3 extensions:
            X509v3 Authority Key Identifier: 
                keyid:0C:5E:9C:FE:BA:4B:21:6C:04:1D:C2:5A:B7:E3:88:5F:59:DE:4C:12

            X509v3 Subject Key Identifier: 
                0E:6B:AA:83:A9:B2:4D:5C:85:CD:B1:D2:2F:87:F7:20:CB:36:43:3B
            X509v3 Key Usage: critical
                Digital Signature, Key Encipherment
            X509v3 Basic Constraints: critical
                CA:FALSE
            X509v3 Subject Alternative Name: 
                DNS:www.example.com
            Authority Information Access: 
                CA Issuers - URI:http://ca.example.com/ca.crt
                OCSP - URI:http://ocsp.example.com/ocsp

            X509v3 Certificate Policies: 
                Policy: 2.23.140.1.1
                Policy: 1.3.6.1.4.1.7879.13.24.1
                  CPS: http://www.telesec.de/serverpass/cps.html

            X509v3 Extended Key Usage: 
                TLS Web Server Authentication, TLS Web Client Authentication
            2.23.140.3.1: 
                0...NTR..DE..Hessen..12345678
    Signature Algorithm: sha256WithRSAEncryption
         16:1f:1b:a7:33:b6:eb:4e:0a:1b:7f:cd:80:83:31:b8:bf:36:
         52:c4:85:0e:3d:f9:b5:13:f0:99:cf:5b:f3:da:60:59:b2:e7:
         46:fa:d4:e8:8f:b8:f9:af:45:44:14:a5:5d:e8:5f:2f:04:4b:
         51:44:c0:28:f1:15:25:c4:dd:38:6b:2d:c4:bc:95:5c:58:bc:
         ef:93:86:bd:cc:de:08:09:80:02:0f:10:32:28:f4:58:65:5e:
         a2:bf:7b:4a:49:55:f5:da:9e:bc:3c:89:9b:9b:8b:11:b8:e2:
         c7:76:69:48:e0:f4:1d:88:51:38:30:bf:c4:df:1f:0b:dc:d2:
         16:b7:5b:a7:73:40:2f:3a:23:22:bd:5a:8a:ef:09:1e:e9:76:
         ac:96:69:f6:72:52:6d:48:d5:82:b1:26:56:14:d9:cf:c9:a4:
         46:a4:61:0a:5e:b5:e1:46:83:84:3e:ca:54:96:3c:50:26:5c:
         9f:d7:a3:2b:f6:8a:2a:ef:7c:87:69:d9:cf:6b:b8:fb:36:d7:
         f0:2d:6f:15:1f:59:ad:d3:06:c8:c0:39:eb:21:b1:e8:c6:11:
         df:4b:08:c7:1d:e6:b5:7b:44:3c:29:a0:92:6a:93:e4:fa:4b:
         6d:f8:7e:8d:62:d2:09:2a:4f:fb:b1:a0:6e:28:93:42:98:16:
         db:aa:0a:f3
-----BEGIN CERTIFICATE-----
MIIFCzCCA/OgAwIBAgINALAnQD8O1xyIorX4RTANBgkqhkiG9w0BAQsFADBBMRUw
EwYDVQQDDAxUZXN0IFN1YkNBIDIxDTALBgNVBAsMBFRlc3QxDDAKBgNVBAoMA01U
RzELMAkGA1UEBhMCREUwHhcNMTkxMTAxMDgwMzAxWhcNMjAxMTAxMDgwMzAxWjCB
vDEMMAoGA1UECgwDTVRHMRIwEAYDVQQHDAlEYXJtc3RhZHQxDzANBgNVBAgMBkhl
c3NlbjELMAkGA1UEBhMCREUxHTAbBgNVBA8MFFByaXZhdGUgT3JnYW5pemF0aW9u
MRowGAYDVQRhDBFOVFJERStIRS0xMjM0NTY3ODERMA8GA1UEBRMIMTIzNDU2Nzgx
EzARBgsrBgEEAYI3PAIBAwwCREUxFzAVBgsrBgEEAYI3PAIBAgwGSGVzc2VuMIIB
IjANBgkqhkiG9w0BAQEFAAOCAQ8AMIIBCgKCAQEAwg2BcbSUBbzPmYqqYgjyLmOy
Hkb5K4WYw4PQziatdo9c51sFICUmMhnCJIq6aaPryhCk88+1xh72cFiWW4hSaohC
M4W4xhZITwFFOT/harkGte8323meUJBXQ1uLwzUNs0H0G8JKfxg8OS1PvyulcQdz
MwDljTae/o9yxXJWCMyGtu+64v2bXMYtlO0tZCR35mdNYtuULimO3R16yrxo+xUs
gFbT3ec6j5gYFEsR2cQBH7l60NmtaREF9g6uX/zNxrPLTa6ORRgKqMBAESjczZ96
JmdaR4Cb2Uz32l9tE4MakZLRuUT3cmuXR3RxcIDT1nO/djNccLhvhzc+fo515QID
AQABo4IBhDCCAYAwHwYDVR0jBBgwFoAUDF6c/rpLIWwEHcJat+OIX1neTBIwHQYD
VR0OBBYEFA5rqoOpsk1chc2x0i+H9yDLNkM7MA4GA1UdDwEB/wQEAwIFoDAMBgNV
HRMBAf8EAjAAMBoGA1UdEQQTMBGCD3d3dy5leGFtcGxlLmNvbTBiBggrBgEFBQcB
AQRWMFQwKAYIKwYBBQUHMAKGHGh0dHA6Ly9jYS5leGFtcGxlLmNvbS9jYS5jcnQw
KAYIKwYBBQUHMAGGHGh0dHA6Ly9vY3NwLmV4YW1wbGUuY29tL29jc3AwWQYDVR0g
BFIwUDAHBgVngQwBATBFBgorBgEEAb1HDRgBMDcwNQYIKwYBBQUHAgEWKWh0dHA6
Ly93d3cudGVsZXNlYy5kZS9zZXJ2ZXJwYXNzL2Nwcy5odG1sMB0GA1UdJQQWMBQG
CCsGAQUFBwMBBggrBgEFBQcDAjAmBgVngQwDAQQdMBsTA05UUhMCREWABkhlc3Nl
bhMIMTIzNDU2NzgwDQYJKoZIhvcNAQELBQADggEBABYfG6cztutOCht/zYCDMbi/
NlLEhQ49+bUT8JnPW/PaYFmy50b61OiPuPmvRUQUpV3oXy8ES1FEwCjxFSXE3Thr
LcS8lVxYvO+Thr3M3ggJgAIPEDIo9FhlXqK/e0pJVfXanrw8iZubixG44sd2aUjg
9B2IUTgwv8TfHwvc0ha3W6dzQC86IyK9WorvCR7pdqyWafZyUm1I1YKxJlYU2c/J
pEakYQpeteFGg4Q+ylSWPFAmXJ/Xoyv2iirvfIdp2c9ruPs21/AtbxUfWa3TBsjA
OeshsejGEd9LCMcd5rV7RDwpoJJqk+T6S234fo1i0gkqT/uxoG4ok0KYFtuqCvM=
-----END CERTIFICATE-----
