Certificate:
    Data:
        Version: 3 (0x2)
        Serial Number:
            0b:65:75:c6:10:dd:86:e7:e4:d5:30:28:47
        Signature Algorithm: sha256WithRSAEncryption
        Issuer: CN = Test SubCA 2, OU = Test, O = MTG, C = DE
        Validity
            Not Before: Nov  1 08:03:01 2019 GMT
            Not After : Nov  1 08:03:01 2020 GMT
        Subject: O = MTG, L = Darmstadt, ST = Hessen, C = DE, businessCategory = Private Organization, organizationIdentifier = VATDE-12345678, serialNumber = 12345678, jurisdictionC = DE
        Subject Public Key Info:
            Public Key Algorithm: rsaEncryption
                RSA Public-Key: (2048 bit)
                Modulus:
                    00:c2:0d:81:71:b4:94:05:bc:cf:99:8a:aa:62:08:
                    f2:2e:63:b2:1e:46:f9:2b:85:98:c3:83:d0:ce:26:
                    ad:76:8f:5c:e7:5b:05:20:25:26:32:19:c2:24:8a:
                    ba:69:a3:eb:ca:10:a4:f3:cf:b5:c6:1e:f6:70:58:
                    96:5b:88:52:6a:88:42:33:85:b8:c6:16:48:4f:01:
                    45:39:3f:e1:6a:b9:06:b5:ef:37:db:79:9e:50:90:
                    57:43:5b:8b:c3:35:0d:b3:41:f4:1b:c2:4a:7f:18:
                    3c:39:2d:4f:bf:2b:a5:71:07:73:33:00:e5:8d:36:
                    9e:fe:8f:72:c5:72:56:08:cc:86:b6:ef:ba:e2:fd:
                    9b:5c:c6:2d:94:ed:2d:64:24:77:e6:67:4d:62:db:
                    94:2e:29:8e:dd:1d:7a:ca:bc:68:fb:15:2c:80:56:
                    d3:dd:e7:3a:8f:98:18:14:4b:11:d9:c4:01:1f:b9:
                    7a:d0:d9:ad:69:11:05:f6:0e:ae:5f:fc:cd:c6:b3:
                    cb:4d:ae:8e:45:18:0a:a8:c0:40:11:28:dc:cd:9f:
                    7a:26:67:5a:47:80:9b:d9:4c:f7:da:5f:6d:13:83:
                    1a:91:92:d1:b9:44:f7:72:6b:97:47:74:71:70:80:
                    d3:d6:73:bf:76:33:5c:70:b8:6f:87:37:3e:7e:8e:
                    75:e5
                Exponent: 65537 (0x10001)
        X509v3 extensions:
            X509v3 Authority Key Identifier: 
                keyid:0C:5E:9C:FE:BA:4B:21:6C:04:1D:C2:5A:B7:E3:88:5F:59:DE:4C:12

            X509v3 Subject Key Identifier: 
                0E:6B:AA:83:A9:B2:4D:5C:85:CD:B1:D2:2F:87:F7:20:CB:36:43:3B
            X509v3 Key Usage: critical
                Digital Signature, Key Encipherment
            X509v3 Basic Constraints: critical
                CA:FALSE
            X509v3 Subject Alternative Name: 
                DNS:www.example.com
            Authority Information Access: 
                CA Issuers - URI:http://ca.example.com/ca.crt
                OCSP - URI:http://ocsp.example.com/ocsp

            X509v3 Certificate Policies: 
                Policy: 2.23.140.1.1
                Policy: 1.3.6.1.4.1.7879.13.24.1
                  CPS: http://www.telesec.de/serverpass/cps.html

            X509v3 Extended Key Usage: 
                TLS Web Server Authentication, TLS Web Client Authentication
            2.23.140.3.1: 
                0...VAT..DE..1234
    Signature Algorithm: sha256WithRSAEncryption
         75:3f:42:bb:23:73:73:5d:05:72:84:4a:64:70:df:95:a4:e5:
         24:4c:43:df:95:4f:d2:06:61:13:69:a2:67:6b:6b:ac:4e:6b:
         fa:ab:da:0b:ad:a1:19:6f:89:bb:eb:c7:fd:28:48:70:70:91:
         48:9d:66:34:74:0f:42:33:c3:98:9e:2f:23:7e:4f:fd:6d:19:
         3b:07:03:b1:6a:f7:92:60:ea:b0:c1:e6:d5:77:f2:4a:0f:2a:
         c9:57:ba:54:be:63:5a:bf:c8:81:83:bb:df:f7:4c:d8:e1:1f:
         11:df:d5:99:52:7b:1d:68:be:02:48:3f:e1:a9:65:85:30:99:
         1b:28:37:ac:96:89:07:8b:99:5c:82:69:a6:9d:37:c3:8c:85:
         7c:1d:c3:11:65:1e:3b:13:9a:aa:e8:e2:70:1b:37:35:7b:4a:
         a8:1e:46:4f:6a:2f:ea:24:72:6a:3a:b8:fb:9b:97:92:35:bb:
         52:67:e1:99:22:cf:fa:b5:3a:f5:c6:a2:25:02:59:e2:18:54:
         b7:96:3b:52:17:5f:a4:b7:39:36:bb:aa:a8:80:99:bb:dc:d1:
         11:3f:86:5d:89:7b:9f:64:58:9c:1d:e6:94:e8:a1:6b:65:fb:
         fb:1f:b3:c3:e7:a6:6d:f9:40:fc:fa:a2:44:45:81:6f:a3:7a:
         5e:6b:af:77
-----BEGIN CERTIFICATE-----
MIIE4zCCA8ugAwIBAgINC2V1xhDdhufk1TAoRzANBgkqhkiG9w0BAQsFADBBMRUw
EwYDVQQDDAxUZXN0IFN1YkNBIDIxDTALBgNVBAsMBFRlc3QxDDAKBgNVBAoMA01U
RzELMAkGA1UEBhMCREUwHhcNMTkxMTAxMDgwMzAxWhcNMjAxMTAxMDgwMzAxWjCB
oDEMMAoGA1UECgwDTVRHMRIwEAYDVQQHDAlEYXJtc3RhZHQxDzANBgNVBAgMBkhl
c3NlbjELMAkGA1UEBhMCREUxHTAbBgNVBA8MFFByaXZhdGUgT3JnYW5pemF0aW9u
MRcwFQYDVQRhDA5WQVRERS0xMjM0NTY3ODERMA8GA1UEBRMIMTIzNDU2NzgxEzAR
BgsrBgEEAYI3PAIBAwwCREUwggEiMA0GCSqGSIb3DQEBAQUAA4IBDwAwggEKAoIB
AQDCDYFxtJQFvM+ZiqpiCPIuY7IeRvkrhZjDg9DOJq12j1znWwUgJSYyGcIkirpp
o+vKEKTzz7XGHvZwWJZbiFJqiEIzhbjGFkhPAUU5P+FquQa17zfbeZ5QkFdDW4vD
NQ2zQfQbwkp/GDw5LU+/K6VxB3MzAOWNNp7+j3LFclYIzIa277ri/Ztcxi2U7S1k
JHfmZ01i25QuKY7dHXrKvGj7FSyAVtPd5zqPmBgUSxHZxAEfuXrQ2a1pEQX2Dq5f
/M3Gs8tNro5FGAqowEARKNzNn3omZ1pHgJvZTPfaX20TgxqRktG5RPdya5dHdHFw
gNPWc792M1xwuG+HNz5+jnXlAgMBAAGjggF4MIIBdDAfBgNVHSMEGDAWgBQMXpz+
ukshbAQdwlq344hfWd5MEjAdBgNVHQ4EFgQUDmuqg6myTVyFzbHSL4f3IMs2Qzsw
DgYDVR0PAQH/BAQDAgWgMAwGA1UdEwEB/wQCMAAwGgYDVR0RBBMwEYIPd3d3LmV4
YW1wbGUuY29tMGIGCCsGAQUFBwEBBFYwVDAoBggrBgEFBQcwAoYcaHR0cDovL2Nh
LmV4YW1wbGUuY29tL2NhLmNydDAoBggrBgEFBQcwAYYcaHR0cDovL29jc3AuZXhh
bXBsZS5jb20vb2NzcDBZBgNVHSAEUjBQMAcGBWeBDAEBMEUGCisGAQQBvUcNGAEw
NzA1BggrBgEFBQcCARYpaHR0cDovL3d3dy50ZWxlc2VjLmRlL3NlcnZlcnBhc3Mv
Y3BzLmh0bWwwHQYDVR0lBBYwFAYIKwYBBQUHAwEGCCsGAQUFBwMCMBoGBWeBDAMB
BBEwDxMDVkFUEwJERQwEMTIzNDANBgkqhkiG9w0BAQsFAAOCAQEAdT9CuyNzc10F
coRKZHDflaTlJExD35VP0gZhE2miZ2trrE5r+qvaC62hGW+Ju+vH/ShIcHCRSJ1m
NHQPQjPDmJ4vI35P/W0ZOwcDsWr3kmDqsMHm1XfySg8qyVe6VL5jWr/IgYO73/dM
2OEfEd/VmVJ7HWi+Akg/4allhTCZGyg3rJaJB4uZXIJppp03w4yFfB3DEWUeOxOa
qujicBs3NXtKqB5GT2ov6iRyajq4+5uXkjW7UmfhmSLP+rU69caiJQJZ4hhUt5Y7
UhdfpLc5NruqqICZu9zRET+GXYl7n2RYnB3mlOiha2X7+x+zw+embflA/PqiREWB
b6N6Xmuvdw==
-----END CERTIFICATE-----
