Certificate:
    Data:
        Version: 3 (0x2)
        Serial Number:
            0e:d6:fd:ec:d4:01:46:1e:db:87:77:15:e4
        Signature Algorithm: sha256WithRSAEncryption
        Issuer: CN = Test SubCA 2, OU = Test, O = MTG, C = DE
        Validity
            Not Before: Nov  1 08:03:01 2019 GMT
            Not After : Nov  1 08:03:01 2020 GMT
        Subject: O = MTG, L = Darmstadt, ST = Hessen, C = DE, businessCategory = Private Organization, organizationIdentifier = "NTRDE+HE-12345678", serialNumber = 12345678, jurisdictionC = DE, jurisdictionST = Hessen
        Subject Public Key Info:
            Public Key Algorithm: rsaEncryption
                RSA Public-Key: (2048 bit)
                Modulus:
                    00:c2:0d:81:71:b4:94:05:bc:cf:99:8a:aa:62:08:
                    f2:2e:63:b2:1e:46:f9:2b:85:98:c3:83:d0:ce:26:
                    ad:76:8f:5c:e7:5b:05:20:25:26:32:19:c2:24:8a:
                    ba:69:a3:eb:ca:10:a4:f3:cf:b5:c6:1e:f6:70:58:
                    96:5b:88:52:6a:88:42:33:85:b8:c6:16:48:4f:01:
                    45:39:3f:e1:6a:b9:06:b5:ef:37:db:79:9e:50:90:
                    57:43:5b:8b:c3:35:0d:b3:41:f4:1b:c2:4a:7f:18:
                    3c:39:2d:4f:bf:2b:a5:71:07:73:33:00:e5:8d:36:
                    9e:fe:8f:72:c5:72:56:08:cc:86:b6:ef:ba:e2:fd:
                    9b:5c:c6:2d:94:ed:2d:64:24:77:e6:67:4d:62:db:
                    94:2e:29:8e:dd:1d:7a:ca:bc:68:fb:15:2c:80:56:
                    d3:dd:e7:3a:8f:98:18:14:4b:11:d9:c4:01:1f:b9:
                    7a:d0:d9:ad:69:11:05:f6:0e:ae:5f:fc:cd:c6:b3:
                    cb:4d:ae:8e:45:18:0a:a8:c0:40:11:28:dc:cd:9f:
                    7a:26:67:5a:47:80:9b:d9:4c:f7:da:5f:6d:13:83:
                    1a:91:92:d1:b9:44:f7:72:6b:97:47:74:71:70:80:
                    d3:d6:73:bf:76:33:5c:70:b8:6f:87:37:3e:7e:8e:
                    75:e5
                Exponent: 65537 (0x10001)
        X509v3 extensions:
            X509v3 Authority Key Identifier: 
                keyid:0C:5E:9C:FE:BA:4B:21:6C:04:1D:C2:5A:B7:E3:88:5F:59:DE:4C:12

            X509v3 Subject Key Identifier: 
                0E:6B:AA:83:A9:B2:4D:5C:85:CD:B1:D2:2F:87:F7:20:CB:36:43:3B
            X509v3 Key Usage: critical
                Digital Signature, Key Encipherment
            X509v3 Basic Constraints: critical
                CA:FALSE
            X509v3 Subject Alternative Name: 
                DNS:www.example.com
            Authority Information Access: 
                CA Issuers - URI:http://ca.example.com/ca.crt
                OCSP - URI:http://ocsp.example.com/ocsp

            X509v3 Certificate Policies: 
                Policy: 2.23.140.1.1
                Policy: 1.3.6.1.4.1.7879.13.24.1
                  CPS: http://www.telesec.de/serverpass/cps.html

            X509v3 Extended Key Usage: 
                TLS Web Server Authentication, TLS Web Client Authentication
            2.23.140.3.1: 
                0...NTR..DE..Hessen..12345678
    Signature Algorithm: sha256WithRSAEncryption
         46:3b:4f:6b:80:a3:4a:71:a5:87:2c:6c:e7:b2:e0:91:c8:a1:
         8d:fc:e9:37:07:bb:03:a9:3d:53:93:c2:a2:49:e6:52:b0:60:
         2a:c2:9e:d8:df:dc:3e:3d:fb:da:5c:37:d4:b5:23:c7:8b:fa:
         3d:48:f5:6f:dc:69:b1:58:90:cf:c9:f4:58:60:25:e7:43:70:
         d2:48:52:4e:c1:a6:51:e1:7a:45:cc:09:7a:93:52:8a:ee:11:
         c6:f1:b6:22:4d:b3:36:20:68:42:f2:23:1d:af:55:3f:39:91:
         2e:02:92:c2:51:fa:30:16:c9:ea:dc:be:55:14:5f:48:9e:89:
         b9:c1:21:8a:5b:06:69:f8:b2:9d:67:11:31:3d:30:f2:8a:5e:
         ed:15:a4:bc:22:1b:a4:8a:ae:50:97:e6:aa:ca:88:c8:e6:16:
         d4:f1:9c:4d:0d:a5:81:69:da:c9:0b:5f:46:83:2f:49:d1:d9:
         ee:1c:40:3a:b3:86:3c:20:55:63:e9:13:1c:df:70:38:87:00:
         b7:6d:5c:45:c2:d4:50:00:df:50:60:13:f1:ef:aa:e3:b6:e7:
         39:45:6e:32:36:4c:01:80:15:72:42:c7:ab:e2:74:dc:71:bb:
         f1:81:04:b9:7a:39:ca:3b:3a:d1:a0:c4:b1:06:8a:30:1d:1f:
         3a:69:01:e5
-----BEGIN CERTIFICATE-----
MIIFCzCCA/OgAwIBAgINDtb97NQBRh7bh3cV5DANBgkqhkiG9w0BAQsFADBBMRUw
EwYDVQQDDAxUZXN0IFN1YkNBIDIxDTALBgNVBAsMBFRlc3QxDDAKBgNVBAoMA01U
RzELMAkGA1UEBhMCREUwHhcNMTkxMTAxMDgwMzAxWhcNMjAxMTAxMDgwMzAxWjCB
vDEMMAoGA1UECgwDTVRHMRIwEAYDVQQHDAlEYXJtc3RhZHQxDzANBgNVBAgMBkhl
c3NlbjELMAkGA1UEBhMCREUxHTAbBgNVBA8MFFByaXZhdGUgT3JnYW5pemF0aW9u
MRowGAYDVQRhDBFOVFJERStIRS0xMjM0NTY3ODERMA8GA1UEBRMIMTIzNDU2Nzgx
EzARBgsrBgEEAYI3PAIBAwwCREUxFzAVBgsrBgEEAYI3PAIBAgwGSGVzc2VuMIIB
IjANBgkqhkiG9w0BAQEFAAOCAQ8AMIIBCgKCAQEAwg2BcbSUBbzPmYqqYgjyLmOy
Hkb5K4WYw4PQziatdo9c51sFICUmMhnCJIq6aaPryhCk88+1xh72cFiWW4hSaohC
M4W4xhZITwFFOT/harkGte8323meUJBXQ1uLwzUNs0H0G8JKfxg8OS1PvyulcQdz
MwDljTae/o9yxXJWCMyGtu+64v2bXMYtlO0tZCR35mdNYtuULimO3R16yrxo+xUs
gFbT3ec6j5gYFEsR2cQBH7l60NmtaREF9g6uX/zNxrPLTa6ORRgKqMBAESjczZ96
JmdaR4Cb2Uz32l9tE4MakZLRuUT3cmuXR3RxcIDT1nO/djNccLhvhzc+fo515QID
AQABo4IBhDCCAYAwHwYDVR0jBBgwFoAUDF6c/rpLIWwEHcJat+OIX1neTBIwHQYD
VR0OBBYEFA5rqoOpsk1chc2x0i+H9yDLNkM7MA4GA1UdDwEB/wQEAwIFoDAMBgNV
HRMBAf8EAjAAMBoGA1UdEQQTMBGCD3d3dy5leGFtcGxlLmNvbTBiBggrBgEFBQcB
AQRWMFQwKAYIKwYBBQUHMAKGHGh0dHA6Ly9jYS5leGFtcGxlLmNvbS9jYS5jcnQw
KAYIKwYBBQUHMAGGHGh0dHA6Ly9vY3NwLmV4YW1wbGUuY29tL29jc3AwWQYDVR0g
BFIwUDAHBgVngQwBATBFBgorBgEEAb1HDRgBMDcwNQYIKwYBBQUHAgEWKWh0dHA6
Ly93d3cudGVsZXNlYy5kZS9zZXJ2ZXJwYXNzL2Nwcy5odG1sMB0GA1UdJQQWMBQG
CCsGAQUFBwMBBggrBgEFBQcDAjAmBgVngQwDAQQdMBsTA05UUhMCREWABkhlc3Nl
bgwIMTIzNDU2NzgwDQYJKoZIhvcNAQELBQADggEBAEY7T2uAo0pxpYcsbOey4JHI
oY386TcHuwOpPVOTwqJJ5lKwYCrCntjf3D49+9pcN9S1I8eL+j1I9W/cabFYkM/J
9FhgJedDcNJIUk7BplHhekXMCXqTUoruEcbxtiJNszYgaELyIx2vVT85kS4CksJR
+jAWyercvlUUX0ieibnBIYpbBmn4sp1nETE9MPKKXu0VpLwiG6SKrlCX5qrKiMjm
FtTxnE0NpYFp2skLX0aDL0nR2e4cQDqzhjwgVWPpExzfcDiHALdtXEXC1FAA31Bg
E/HvquO25zlFbjI2TAGAFXJCx6vidNxxu/GBBLl6Oco7OtGgxLEGijAdHzppAeU=
-----END CERTIFICATE-----
