Certificate:
    Data:
        Version: 3 (0x2)
        Serial Number:
            0f:fa:f4:ba:2f:fc:a4:c2:17:a4:59:62:32
        Signature Algorithm: sha256WithRSAEncryption
        Issuer: CN = Test SubCA 2, OU = Test, O = MTG, C = DE
        Validity
            Not Before: Nov  1 08:03:01 2019 GMT
            Not After : Nov  1 08:03:01 2020 GMT
        Subject: O = MTG, L = Darmstadt, ST = Hessen, C = DE, businessCategory = Private Organization, organizationIdentifier = PSDDE-BAFIN-12345.212938, serialNumber = 12345.212938, jurisdictionC = DE
        Subject Public Key Info:
            Public Key Algorithm: rsaEncryption
                RSA Public-Key: (2048 bit)
                Modulus:
                    00:c2:0d:81:71:b4:94:05:bc:cf:99:8a:aa:62:08:
                    f2:2e:63:b2:1e:46:f9:2b:85:98:c3:83:d0:ce:26:
                    ad:76:8f:5c:e7:5b:05:20:25:26:32:19:c2:24:8a:
                    ba:69:a3:eb:ca:10:a4:f3:cf:b5:c6:1e:f6:70:58:
                    96:5b:88:52:6a:88:42:33:85:b8:c6:16:48:4f:01:
                    45:39:3f:e1:6a:b9:06:b5:ef:37:db:79:9e:50:90:
                    57:43:5b:8b:c3:35:0d:b3:41:f4:1b:c2:4a:7f:18:
                    3c:39:2d:4f:bf:2b:a5:71:07:73:33:00:e5:8d:36:
                    9e:fe:8f:72:c5:72:56:08:cc:86:b6:ef:ba:e2:fd:
                    9b:5c:c6:2d:94:ed:2d:64:24:77:e6:67:4d:62:db:
                    94:2e:29:8e:dd:1d:7a:ca:bc:68:fb:15:2c:80:56:
                    d3:dd:e7:3a:8f:98:18:14:4b:11:d9:c4:01:1f:b9:
                    7a:d0:d9:ad:69:11:05:f6:0e:ae:5f:fc:cd:c6:b3:
                    cb:4d:ae:8e:45:18:0a:a8:c0:40:11:28:dc:cd:9f:
                    7a:26:67:5a:47:80:9b:d9:4c:f7:da:5f:6d:13:83:
                    1a:91:92:d1:b9:44:f7:72:6b:97:47:74:71:70:80:
                    d3:d6:73:bf:76:33:5c:70:b8:6f:87:37:3e:7e:8e:
                    75:e5
                Exponent: 65537 (0x10001)
        X509v3 extensions:
            X509v3 Authority Key Identifier: 
                keyid:0C:5E:9C:FE:BA:4B:21:6C:04:1D:C2:5A:B7:E3:88:5F:59:DE:4C:12

            X509v3 Subject Key Identifier: 
                0E:6B:AA:83:A9:B2:4D:5C:85:CD:B1:D2:2F:87:F7:20:CB:36:43:3B
            X509v3 Key Usage: critical
                Digital Signature, Key Encipherment
            X509v3 Basic Constraints: critical
                CA:FALSE
            X509v3 Subject Alternative Name: 
                DNS:www.example.com
            Authority Information Access: 
                CA Issuers - URI:http://ca.example.com/ca.crt
                OCSP - URI:http://ocsp.example.com/ocsp

            X509v3 Certificate Policies: 
                Policy: 2.23.140.1.1
                Policy: 1.3.6.1.4.1.7879.13.24.1
                  CPS: http://www.telesec.de/serverpass/cps.html

            X509v3 Extended Key Usage: 
                TLS Web Server Authentication, TLS Web Client Authentication
    Signature Algorithm: sha256WithRSAEncryption
         2b:c2:95:1d:c3:b3:8c:a2:f0:00:52:de:f2:fe:af:4b:53:20:
         29:a0:f6:39:04:1f:58:98:40:8e:6c:ef:0f:37:86:93:aa:34:
         05:d8:64:6e:af:2a:1c:a7:f0:99:a7:f9:24:6c:50:88:31:79:
         20:7c:a6:12:a1:83:e6:97:86:40:f9:e7:6d:79:54:c4:f9:7d:
         ab:21:5e:55:66:42:63:8d:6f:ec:ae:68:e5:87:df:7a:7c:35:
         f8:f7:df:85:cd:0b:78:e3:a8:a3:08:d7:e6:a7:b6:ae:0a:d4:
         87:31:da:44:08:9f:f3:9d:c3:60:3f:7c:64:a0:48:46:a3:43:
         67:1f:c8:62:71:e6:7f:27:24:43:09:16:13:f7:ce:d7:af:e9:
         f6:c7:89:11:41:a0:ad:40:0e:51:96:ef:97:d3:47:23:17:09:
         11:33:9c:cd:ad:30:89:0f:13:49:45:63:8a:0b:69:fd:13:d6:
         a4:f1:e7:56:1c:81:8d:c8:42:e7:de:37:57:7b:9f:d2:a7:f4:
         c2:09:87:63:50:3b:65:75:3e:56:c4:11:6c:68:e8:90:c5:6c:
         f6:0f:0e:09:17:55:8b:9a:9a:55:f3:25:24:e5:b8:f5:23:4e:
         5c:ab:b8:96:4d:a4:50:15:50:0b:3d:27:b1:f2:84:9f:83:57:
         f4:87:ad:e4
-----BEGIN CERTIFICATE-----
MIIE1TCCA72gAwIBAgIND/r0ui/8pMIXpFliMjANBgkqhkiG9w0BAQsFADBBMRUw
EwYDVQQDDAxUZXN0IFN1YkNBIDIxDTALBgNVBAsMBFRlc3QxDDAKBgNVBAoMA01U
RzELMAkGA1UEBhMCREUwHhcNMTkxMTAxMDgwMzAxWhcNMjAxMTAxMDgwMzAxWjCB
rjEMMAoGA1UECgwDTVRHMRIwEAYDVQQHDAlEYXJtc3RhZHQxDzANBgNVBAgMBkhl
c3NlbjELMAkGA1UEBhMCREUxHTAbBgNVBA8MFFByaXZhdGUgT3JnYW5pemF0aW9u
MSEwHwYDVQRhDBhQU0RERS1CQUZJTi0xMjM0NS4yMTI5MzgxFTATBgNVBAUTDDEy
MzQ1LjIxMjkzODETMBEGCysGAQQBgjc8AgEDDAJERTCCASIwDQYJKoZIhvcNAQEB
BQADggEPADCCAQoCggEBAMINgXG0lAW8z5mKqmII8i5jsh5G+SuFmMOD0M4mrXaP
XOdbBSAlJjIZwiSKummj68oQpPPPtcYe9nBYlluIUmqIQjOFuMYWSE8BRTk/4Wq5
BrXvN9t5nlCQV0Nbi8M1DbNB9BvCSn8YPDktT78rpXEHczMA5Y02nv6PcsVyVgjM
hrbvuuL9m1zGLZTtLWQkd+ZnTWLblC4pjt0desq8aPsVLIBW093nOo+YGBRLEdnE
AR+5etDZrWkRBfYOrl/8zcazy02ujkUYCqjAQBEo3M2feiZnWkeAm9lM99pfbROD
GpGS0blE93Jrl0d0cXCA09Zzv3YzXHC4b4c3Pn6OdeUCAwEAAaOCAVwwggFYMB8G
A1UdIwQYMBaAFAxenP66SyFsBB3CWrfjiF9Z3kwSMB0GA1UdDgQWBBQOa6qDqbJN
XIXNsdIvh/cgyzZDOzAOBgNVHQ8BAf8EBAMCBaAwDAYDVR0TAQH/BAIwADAaBgNV
HREEEzARgg93d3cuZXhhbXBsZS5jb20wYgYIKwYBBQUHAQEEVjBUMCgGCCsGAQUF
BzAChhxodHRwOi8vY2EuZXhhbXBsZS5jb20vY2EuY3J0MCgGCCsGAQUFBzABhhxo
dHRwOi8vb2NzcC5leGFtcGxlLmNvbS9vY3NwMFkGA1UdIARSMFAwBwYFZ4EMAQEw
RQYKKwYBBAG9Rw0YATA3MDUGCCsGAQUFBwIBFilodHRwOi8vd3d3LnRlbGVzZWMu
ZGUvc2VydmVycGFzcy9jcHMuaHRtbDAdBgNVHSUEFjAUBggrBgEFBQcDAQYIKwYB
BQUHAwIwDQYJKoZIhvcNAQELBQADggEBACvClR3Ds4yi8ABS3vL+r0tTICmg9jkE
H1iYQI5s7w83hpOqNAXYZG6vKhyn8Jmn+SRsUIgxeSB8phKhg+aXhkD55215VMT5
fashXlVmQmONb+yuaOWH33p8Nfj334XNC3jjqKMI1+antq4K1Icx2kQIn/Odw2A/
fGSgSEajQ2cfyGJx5n8nJEMJFhP3ztev6fbHiRFBoK1ADlGW75fTRyMXCREznM2t
MIkPE0lFY4oLaf0T1qTx51YcgY3IQufeN1d7n9Kn9MIJh2NQO2V1PlbEEWxo6JDF
bPYPDgkXVYuamlXzJSTluPUjTlyruJZNpFAVUAs9J7HyhJ+DV/SHreQ=
-----END CERTIFICATE-----
