Certificate:
    Data:
        Version: 3 (0x2)
        Serial Number:
            0b:3b:1e:3e:9a:e7:b4:9a:c8:44:ce:38:52
        Signature Algorithm: sha256WithRSAEncryption
        Issuer: CN = Test SubCA 2, OU = Test, O = MTG, C = DE
        Validity
            Not Before: Nov  1 08:03:01 2019 GMT
            Not After : Nov  1 08:03:01 2020 GMT
        Subject: O = MTG, L = Darmstadt, ST = Hessen, C = DE, businessCategory = Private Organization, organizationIdentifier = VAT-123456789, serialNumber = 123456789, jurisdictionC = DE
        Subject Public Key Info:
            Public Key Algorithm: rsaEncryption
                RSA Public-Key: (2048 bit)
                Modulus:
                    00:c2:0d:81:71:b4:94:05:bc:cf:99:8a:aa:62:08:
                    f2:2e:63:b2:1e:46:f9:2b:85:98:c3:83:d0:ce:26:
                    ad:76:8f:5c:e7:5b:05:20:25:26:32:19:c2:24:8a:
                    ba:69:a3:eb:ca:10:a4:f3:cf:b5:c6:1e:f6:70:58:
                    96:5b:88:52:6a:88:42:33:85:b8:c6:16:48:4f:01:
                    45:39:3f:e1:6a:b9:06:b5:ef:37:db:79:9e:50:90:
                    57:43:5b:8b:c3:35:0d:b3:41:f4:1b:c2:4a:7f:18:
                    3c:39:2d:4f:bf:2b:a5:71:07:73:33:00:e5:8d:36:
                    9e:fe:8f:72:c5:72:56:08:cc:86:b6:ef:ba:e2:fd:
                    9b:5c:c6:2d:94:ed:2d:64:24:77:e6:67:4d:62:db:
                    94:2e:29:8e:dd:1d:7a:ca:bc:68:fb:15:2c:80:56:
                    d3:dd:e7:3a:8f:98:18:14:4b:11:d9:c4:01:1f:b9:
                    7a:d0:d9:ad:69:11:05:f6:0e:ae:5f:fc:cd:c6:b3:
                    cb:4d:ae:8e:45:18:0a:a8:c0:40:11:28:dc:cd:9f:
                    7a:26:67:5a:47:80:9b:d9:4c:f7:da:5f:6d:13:83:
                    1a:91:92:d1:b9:44:f7:72:6b:97:47:74:71:70:80:
                    d3:d6:73:bf:76:33:5c:70:b8:6f:87:37:3e:7e:8e:
                    75:e5
                Exponent: 65537 (0x10001)
        X509v3 extensions:
            X509v3 Authority Key Identifier: 
                keyid:0C:5E:9C:FE:BA:4B:21:6C:04:1D:C2:5A:B7:E3:88:5F:59:DE:4C:12

            X509v3 Subject Key Identifier: 
                0E:6B:AA:83:A9:B2:4D:5C:85:CD:B1:D2:2F:87:F7:20:CB:36:43:3B
            X509v3 Key Usage: critical
                Digital Signature, Key Encipherment
            X509v3 Basic Constraints: critical
                CA:FALSE
            X509v3 Subject Alternative Name: 
                DNS:www.example.com
            Authority Information Access: 
                CA Issuers - URI:http://ca.example.com/ca.crt
                OCSP - URI:http://ocsp.example.com/ocsp

            X509v3 Certificate Policies: 
                Policy: 2.23.140.1.1
                Policy: 1.3.6.1.4.1.7879.13.24.1
                  CPS: http://www.telesec.de/serverpass/cps.html

            X509v3 Extended Key Usage: 
                TLS Web Server Authentication, TLS Web Client Authentication
    Signature Algorithm: sha256WithRSAEncryption
         3b:19:b3:69:ff:61:de:48:5e:0d:23:73:d5:e8:3f:55:40:a5:
         72:bd:2e:9a:17:f9:b6:95:8e:3b:2b:51:84:02:7c:16:4c:b1:
         3d:59:e2:c1:7a:0d:72:40:7c:fb:8d:c3:14:21:9c:f8:a1:e1:
         4d:97:6c:4f:89:08:b7:04:e1:0a:66:72:08:00:1a:b6:3e:02:
         ff:ff:17:eb:bf:11:c5:da:37:6b:e5:7c:53:4f:ab:f0:3d:c9:
         03:e4:d0:34:ff:f7:37:b0:4b:1c:41:f7:41:c3:db:38:51:36:
         32:58:ed:19:90:4c:f7:da:c6:2c:01:61:9b:5b:43:34:98:40:
         fb:3b:c3:72:00:16:98:04:5e:62:1b:53:b6:f9:41:16:b9:dc:
         b7:33:1e:f7:d1:05:ee:ab:5a:11:ba:d2:1f:6c:b5:ba:4d:78:
         df:23:bb:81:c0:19:91:f0:ab:13:ba:05:57:fb:69:c2:83:cf:
         27:27:af:a9:22:6f:bb:98:6b:25:77:cf:ac:38:4b:ed:63:d9:
         ac:b0:2d:8f:19:20:2f:0e:7a:5d:ed:a3:08:3f:d3:30:d3:1f:
         e2:c3:e7:80:3c:49:04:6c:a9:71:ea:03:bf:3c:60:5a:f6:cb:
         d8:29:5b:16:32:96:30:c5:de:85:de:9b:6a:17:13:df:fa:ab:
         89:5d:7d:c4
-----BEGIN CERTIFICATE-----
MIIExzCCA6+gAwIBAgINCzsePprntJrIRM44UjANBgkqhkiG9w0BAQsFADBBMRUw
EwYDVQQDDAxUZXN0IFN1YkNBIDIxDTALBgNVBAsMBFRlc3QxDDAKBgNVBAoMA01U
RzELMAkGA1UEBhMCREUwHhcNMTkxMTAxMDgwMzAxWhcNMjAxMTAxMDgwMzAxWjCB
oDEMMAoGA1UECgwDTVRHMRIwEAYDVQQHDAlEYXJtc3RhZHQxDzANBgNVBAgMBkhl
c3NlbjELMAkGA1UEBhMCREUxHTAbBgNVBA8MFFByaXZhdGUgT3JnYW5pemF0aW9u
MRYwFAYDVQRhDA1WQVQtMTIzNDU2Nzg5MRIwEAYDVQQFEwkxMjM0NTY3ODkxEzAR
BgsrBgEEAYI3PAIBAwwCREUwggEiMA0GCSqGSIb3DQEBAQUAA4IBDwAwggEKAoIB
AQDCDYFxtJQFvM+ZiqpiCPIuY7IeRvkrhZjDg9DOJq12j1znWwUgJSYyGcIkirpp
o+vKEKTzz7XGHvZwWJZbiFJqiEIzhbjGFkhPAUU5P+FquQa17zfbeZ5QkFdDW4vD
NQ2zQfQbwkp/GDw5LU+/K6VxB3MzAOWNNp7+j3LFclYIzIa277ri/Ztcxi2U7S1k
JHfmZ01i25QuKY7dHXrKvGj7FSyAVtPd5zqPmBgUSxHZxAEfuXrQ2a1pEQX2Dq5f
/M3Gs8tNro5FGAqowEARKNzNn3omZ1pHgJvZTPfaX20TgxqRktG5RPdya5dHdHFw
gNPWc792M1xwuG+HNz5+jnXlAgMBAAGjggFcMIIBWDAfBgNVHSMEGDAWgBQMXpz+
ukshbAQdwlq344hfWd5MEjAdBgNVHQ4EFgQUDmuqg6myTVyFzbHSL4f3IMs2Qzsw
DgYDVR0PAQH/BAQDAgWgMAwGA1UdEwEB/wQCMAAwGgYDVR0RBBMwEYIPd3d3LmV4
YW1wbGUuY29tMGIGCCsGAQUFBwEBBFYwVDAoBggrBgEFBQcwAoYcaHR0cDovL2Nh
LmV4YW1wbGUuY29tL2NhLmNydDAoBggrBgEFBQcwAYYcaHR0cDovL29jc3AuZXhh
bXBsZS5jb20vb2NzcDBZBgNVHSAEUjBQMAcGBWeBDAEBMEUGCisGAQQBvUcNGAEw
NzA1BggrBgEFBQcCARYpaHR0cDovL3d3dy50ZWxlc2VjLmRlL3NlcnZlcnBhc3Mv
Y3BzLmh0bWwwHQYDVR0lBBYwFAYIKwYBBQUHAwEGCCsGAQUFBwMCMA0GCSqGSIb3
DQEBCwUAA4IBAQA7GbNp/2HeSF4NI3PV6D9VQKVyvS6aF/m2lY47K1GEAnwWTLE9
WeLBeg1yQHz7jcMUIZz4oeFNl2xPiQi3BOEKZnIIABq2PgL//xfrvxHF2jdr5XxT
T6vwPckD5NA0//c3sEscQfdBw9s4UTYyWO0ZkEz32sYsAWGbW0M0mED7O8NyABaY
BF5iG1O2+UEWudy3Mx730QXuq1oRutIfbLW6TXjfI7uBwBmR8KsTugVX+2nCg88n
J6+pIm+7mGsld8+sOEvtY9mssC2PGSAvDnpd7aMIP9Mw0x/iw+eAPEkEbKlx6gO/
PGBa9svYKVsWMpYwxd6F3ptqFxPf+quJXX3E
-----END CERTIFICATE-----
