Certificate:
    Data:
        Version: 3 (0x2)
        Serial Number:
            0a:fa:0b:f5:dc:ae:9b:32:99:33:60:6d:a2
        Signature Algorithm: sha256WithRSAEncryption
        Issuer: CN = Test SubCA 2, OU = Test, O = MTG, C = DE
        Validity
            Not Before: Nov  1 08:03:01 2019 GMT
            Not After : Nov  1 08:03:01 2020 GMT
        Subject: O = MTG, L = Darmstadt, ST = Hessen, C = DE, businessCategory = Private Organization, organizationIdentifier = VATDE-12345678, serialNumber = 12345678, jurisdictionC = DE
        Subject Public Key Info:
            Public Key Algorithm: rsaEncryption
                RSA Public-Key: (2048 bit)
                Modulus:
                    00:c2:0d:81:71:b4:94:05:bc:cf:99:8a:aa:62:08:
                    f2:2e:63:b2:1e:46:f9:2b:85:98:c3:83:d0:ce:26:
                    ad:76:8f:5c:e7:5b:05:20:25:26:32:19:c2:24:8a:
                    ba:69:a3:eb:ca:10:a4:f3:cf:b5:c6:1e:f6:70:58:
                    96:5b:88:52:6a:88:42:33:85:b8:c6:16:48:4f:01:
                    45:39:3f:e1:6a:b9:06:b5:ef:37:db:79:9e:50:90:
                    57:43:5b:8b:c3:35:0d:b3:41:f4:1b:c2:4a:7f:18:
                    3c:39:2d:4f:bf:2b:a5:71:07:73:33:00:e5:8d:36:
                    9e:fe:8f:72:c5:72:56:08:cc:86:b6:ef:ba:e2:fd:
                    9b:5c:c6:2d:94:ed:2d:64:24:77:e6:67:4d:62:db:
                    94:2e:29:8e:dd:1d:7a:ca:bc:68:fb:15:2c:80:56:
                    d3:dd:e7:3a:8f:98:18:14:4b:11:d9:c4:01:1f:b9:
                    7a:d0:d9:ad:69:11:05:f6:0e:ae:5f:fc:cd:c6:b3:
                    cb:4d:ae:8e:45:18:0a:a8:c0:40:11:28:dc:cd:9f:
                    7a:26:67:5a:47:80:9b:d9:4c:f7:da:5f:6d:13:83:
                    1a:91:92:d1:b9:44:f7:72:6b:97:47:74:71:70:80:
                    d3:d6:73:bf:76:33:5c:70:b8:6f:87:37:3e:7e:8e:
                    75:e5
                Exponent: 65537 (0x10001)
        X509v3 extensions:
            X509v3 Authority Key Identifier: 
                keyid:0C:5E:9C:FE:BA:4B:21:6C:04:1D:C2:5A:B7:E3:88:5F:59:DE:4C:12

            X509v3 Subject Key Identifier: 
                0E:6B:AA:83:A9:B2:4D:5C:85:CD:B1:D2:2F:87:F7:20:CB:36:43:3B
            X509v3 Key Usage: critical
                Digital Signature, Key Encipherment
            X509v3 Basic Constraints: critical
                CA:FALSE
            X509v3 Subject Alternative Name: 
                DNS:www.example.com
            Authority Information Access: 
                CA Issuers - URI:http://ca.example.com/ca.crt
                OCSP - URI:http://ocsp.example.com/ocsp

            X509v3 Certificate Policies: 
                Policy: 2.23.140.1.1
                Policy: 1.3.6.1.4.1.7879.13.24.1
                  CPS: http://www.telesec.de/serverpass/cps.html

            X509v3 Extended Key Usage: 
                TLS Web Server Authentication, TLS Web Client Authentication
            2.23.140.3.1: 
                0...VATT..DE..12345678
    Signature Algorithm: sha256WithRSAEncryption
         36:c1:58:04:ba:36:2b:f3:48:40:d9:83:a9:3f:28:81:36:8d:
         e8:f8:d8:cf:55:49:2c:42:63:ff:a8:04:35:6f:57:2f:51:a0:
         2b:15:0e:f1:bb:46:a4:5a:9b:69:e3:f4:90:ee:f9:b5:d9:f8:
         aa:76:96:f8:f7:33:7d:e6:ae:f5:9b:37:cc:41:5a:6c:19:46:
         ce:50:50:f5:65:62:27:3f:7f:9d:11:06:76:e3:cd:ae:eb:58:
         40:7c:98:2d:d0:38:c8:e6:dc:e7:88:aa:ca:8b:8d:f0:cd:01:
         8d:61:83:83:9b:1e:96:f2:6a:00:03:bd:cb:c9:7f:17:12:3a:
         96:31:e4:00:54:73:5b:cf:92:21:ae:1b:de:c9:58:06:62:24:
         8d:57:fc:94:89:28:9d:17:d3:c4:bd:58:ba:3f:b3:3b:e4:8c:
         64:c5:33:75:67:6c:7b:6c:87:0b:15:85:cd:45:08:a7:3f:be:
         f3:92:01:e6:95:81:51:5b:2f:5c:0a:c2:6e:1d:37:78:fc:24:
         82:fa:b6:05:6b:1a:6e:25:f3:7b:32:3d:a3:fc:5c:f3:f8:3c:
         bc:6c:0a:c0:67:33:b9:be:3c:58:09:d7:e7:88:d1:f6:40:d3:
         95:38:b7:30:40:36:50:9f:ab:1e:3e:bd:ab:7c:9b:dc:b5:4b:
         eb:1f:1d:25
-----BEGIN CERTIFICATE-----
MIIE6DCCA9CgAwIBAgINCvoL9dyumzKZM2BtojANBgkqhkiG9w0BAQsFADBBMRUw
EwYDVQQDDAxUZXN0IFN1YkNBIDIxDTALBgNVBAsMBFRlc3QxDDAKBgNVBAoMA01U
RzELMAkGA1UEBhMCREUwHhcNMTkxMTAxMDgwMzAxWhcNMjAxMTAxMDgwMzAxWjCB
oDEMMAoGA1UECgwDTVRHMRIwEAYDVQQHDAlEYXJtc3RhZHQxDzANBgNVBAgMBkhl
c3NlbjELMAkGA1UEBhMCREUxHTAbBgNVBA8MFFByaXZhdGUgT3JnYW5pemF0aW9u
MRcwFQYDVQRhDA5WQVRERS0xMjM0NTY3ODERMA8GA1UEBRMIMTIzNDU2NzgxEzAR
BgsrBgEEAYI3PAIBAwwCREUwggEiMA0GCSqGSIb3DQEBAQUAA4IBDwAwggEKAoIB
AQDCDYFxtJQFvM+ZiqpiCPIuY7IeRvkrhZjDg9DOJq12j1znWwUgJSYyGcIkirpp
o+vKEKTzz7XGHvZwWJZbiFJqiEIzhbjGFkhPAUU5P+FquQa17zfbeZ5QkFdDW4vD
NQ2zQfQbwkp/GDw5LU+/K6VxB3MzAOWNNp7+j3LFclYIzIa277ri/Ztcxi2U7S1k
JHfmZ01i25QuKY7dHXrKvGj7FSyAVtPd5zqPmBgUSxHZxAEfuXrQ2a1pEQX2Dq5f
/M3Gs8tNro5FGAqowEARKNzNn3omZ1pHgJvZTPfaX20TgxqRktG5RPdya5dHdHFw
gNPWc792M1xwuG+HNz5+jnXlAgMBAAGjggF9MIIBeTAfBgNVHSMEGDAWgBQMXpz+
ukshbAQdwlq344hfWd5MEjAdBgNVHQ4EFgQUDmuqg6myTVyFzbHSL4f3IMs2Qzsw
DgYDVR0PAQH/BAQDAgWgMAwGA1UdEwEB/wQCMAAwGgYDVR0RBBMwEYIPd3d3LmV4
YW1wbGUuY29tMGIGCCsGAQUFBwEBBFYwVDAoBggrBgEFBQcwAoYcaHR0cDovL2Nh
LmV4YW1wbGUuY29tL2NhLmNydDAoBggrBgEFBQcwAYYcaHR0cDovL29jc3AuZXhh
bXBsZS5jb20vb2NzcDBZBgNVHSAEUjBQMAcGBWeBDAEBMEUGCisGAQQBvUcNGAEw
NzA1BggrBgEFBQcCARYpaHR0cDovL3d3dy50ZWxlc2VjLmRlL3NlcnZlcnBhc3Mv
Y3BzLmh0bWwwHQYDVR0lBBYwFAYIKwYBBQUHAwEGCCsGAQUFBwMCMB8GBWeBDAMB
BBYwFBMEVkFUVBMCREUMCDEyMzQ1Njc4MA0GCSqGSIb3DQEBCwUAA4IBAQA2wVgE
ujYr80hA2YOpPyiBNo3o+NjPVUksQmP/qAQ1b1cvUaArFQ7xu0akWptp4/SQ7vm1
2fiqdpb49zN95q71mzfMQVpsGUbOUFD1ZWInP3+dEQZ2482u61hAfJgt0DjI5tzn
iKrKi43wzQGNYYODmx6W8moAA73LyX8XEjqWMeQAVHNbz5IhrhveyVgGYiSNV/yU
iSidF9PEvVi6P7M75IxkxTN1Z2x7bIcLFYXNRQinP77zkgHmlYFRWy9cCsJuHTd4
/CSC+rYFaxpuJfN7Mj2j/Fzz+Dy8bArAZzO5vjxYCdfniNH2QNOVOLcwQDZQn6se
Pr2rfJvctUvrHx0l
-----END CERTIFICATE-----
