Certificate:
    Data:
        Version: 3 (0x2)
        Serial Number:
            0a:9d:7f:d1:99:c5:6e:9a:b0:f8:4a:a5:17
        Signature Algorithm: sha256WithRSAEncryption
        Issuer: CN = Test SubCA 2, OU = Test, O = MTG, C = DE
        Validity
            Not Before: Nov  1 08:03:01 2019 GMT
            Not After : Nov  1 08:03:01 2020 GMT
        Subject: O = MTG, L = Darmstadt, ST = Hessen, C = DE, businessCategory = Private Organization, organizationIdentifier = VATDE-123456789, serialNumber = 123456789, jurisdictionC = DE
        Subject Public Key Info:
            Public Key Algorithm: rsaEncryption
                RSA Public-Key: (2048 bit)
                Modulus:
                    00:c2:0d:81:71:b4:94:05:bc:cf:99:8a:aa:62:08:
                    f2:2e:63:b2:1e:46:f9:2b:85:98:c3:83:d0:ce:26:
                    ad:76:8f:5c:e7:5b:05:20:25:26:32:19:c2:24:8a:
                    ba:69:a3:eb:ca:10:a4:f3:cf:b5:c6:1e:f6:70:58:
                    96:5b:88:52:6a:88:42:33:85:b8:c6:16:48:4f:01:
                    45:39:3f:e1:6a:b9:06:b5:ef:37:db:79:9e:50:90:
                    57:43:5b:8b:c3:35:0d:b3:41:f4:1b:c2:4a:7f:18:
                    3c:39:2d:4f:bf:2b:a5:71:07:73:33:00:e5:8d:36:
                    9e:fe:8f:72:c5:72:56:08:cc:86:b6:ef:ba:e2:fd:
                    9b:5c:c6:2d:94:ed:2d:64:24:77:e6:67:4d:62:db:
                    94:2e:29:8e:dd:1d:7a:ca:bc:68:fb:15:2c:80:56:
                    d3:dd:e7:3a:8f:98:18:14:4b:11:d9:c4:01:1f:b9:
                    7a:d0:d9:ad:69:11:05:f6:0e:ae:5f:fc:cd:c6:b3:
                    cb:4d:ae:8e:45:18:0a:a8:c0:40:11:28:dc:cd:9f:
                    7a:26:67:5a:47:80:9b:d9:4c:f7:da:5f:6d:13:83:
                    1a:91:92:d1:b9:44:f7:72:6b:97:47:74:71:70:80:
                    d3:d6:73:bf:76:33:5c:70:b8:6f:87:37:3e:7e:8e:
                    75:e5
                Exponent: 65537 (0x10001)
        X509v3 extensions:
            X509v3 Authority Key Identifier: 
                keyid:0C:5E:9C:FE:BA:4B:21:6C:04:1D:C2:5A:B7:E3:88:5F:59:DE:4C:12

            X509v3 Subject Key Identifier: 
                0E:6B:AA:83:A9:B2:4D:5C:85:CD:B1:D2:2F:87:F7:20:CB:36:43:3B
            X509v3 Key Usage: critical
                Digital Signature, Key Encipherment
            X509v3 Basic Constraints: critical
                CA:FALSE
            X509v3 Subject Alternative Name: 
                DNS:www.example.com
            Authority Information Access: 
                CA Issuers - URI:http://ca.example.com/ca.crt
                OCSP - URI:http://ocsp.example.com/ocsp

            X509v3 Certificate Policies: 
                Policy: 2.23.140.1.1
                Policy: 1.3.6.1.4.1.7879.13.24.1
                  CPS: http://www.telesec.de/serverpass/cps.html

            X509v3 Extended Key Usage: 
                TLS Web Server Authentication, TLS Web Client Authentication
    Signature Algorithm: sha256WithRSAEncryption
         48:22:56:f4:7f:9e:e4:c5:58:98:2d:35:b4:40:8c:b8:e5:eb:
         16:ee:ef:0e:1a:97:2f:e9:75:24:bc:31:30:a7:20:9b:03:db:
         c6:20:1f:af:0b:06:05:2b:7a:44:bc:76:9d:df:c9:f2:69:0a:
         ea:c7:35:3f:44:23:be:bc:f5:cc:a6:c7:0f:3c:53:a0:e9:ea:
         d3:5d:f9:91:ef:7b:1a:3f:8e:e8:75:61:11:c5:6c:60:b3:91:
         ea:3f:ef:50:56:90:10:55:bb:a1:25:b4:ce:a5:7b:23:1b:cb:
         49:e8:4a:9b:38:d3:d5:0e:a6:0d:f9:c8:3a:c4:37:24:ee:19:
         18:26:76:96:de:40:19:28:87:6c:98:0d:73:04:64:58:13:93:
         5c:1f:60:d3:c4:eb:9b:c5:ca:fd:56:9f:df:ee:b0:b6:d6:30:
         63:5a:35:de:33:87:d2:ec:5c:89:00:5c:a3:58:67:48:6c:6c:
         be:20:2b:c2:e5:44:4a:d7:1c:40:81:89:c0:8d:5d:1c:ed:ab:
         bb:c5:e9:05:44:8e:e1:b9:c5:f4:bb:a3:28:fa:3a:aa:66:dc:
         bd:20:c2:6a:fe:5a:93:ad:18:68:ae:97:ca:20:1e:20:ee:17:
         bf:27:8d:d3:13:ce:84:55:86:a2:6c:3b:14:20:39:a2:08:f4:
         5a:c7:13:b1
-----BEGIN CERTIFICATE-----
MIIEyTCCA7GgAwIBAgINCp1/0ZnFbpqw+EqlFzANBgkqhkiG9w0BAQsFADBBMRUw
EwYDVQQDDAxUZXN0IFN1YkNBIDIxDTALBgNVBAsMBFRlc3QxDDAKBgNVBAoMA01U
RzELMAkGA1UEBhMCREUwHhcNMTkxMTAxMDgwMzAxWhcNMjAxMTAxMDgwMzAxWjCB
ojEMMAoGA1UECgwDTVRHMRIwEAYDVQQHDAlEYXJtc3RhZHQxDzANBgNVBAgMBkhl
c3NlbjELMAkGA1UEBhMCREUxHTAbBgNVBA8MFFByaXZhdGUgT3JnYW5pemF0aW9u
MRgwFgYDVQRhEw9WQVRERS0xMjM0NTY3ODkxEjAQBgNVBAUTCTEyMzQ1Njc4OTET
MBEGCysGAQQBgjc8AgEDDAJERTCCASIwDQYJKoZIhvcNAQEBBQADggEPADCCAQoC
ggEBAMINgXG0lAW8z5mKqmII8i5jsh5G+SuFmMOD0M4mrXaPXOdbBSAlJjIZwiSK
ummj68oQpPPPtcYe9nBYlluIUmqIQjOFuMYWSE8BRTk/4Wq5BrXvN9t5nlCQV0Nb
i8M1DbNB9BvCSn8YPDktT78rpXEHczMA5Y02nv6PcsVyVgjMhrbvuuL9m1zGLZTt
LWQkd+ZnTWLblC4pjt0desq8aPsVLIBW093nOo+YGBRLEdnEAR+5etDZrWkRBfYO
rl/8zcazy02ujkUYCqjAQBEo3M2feiZnWkeAm9lM99pfbRODGpGS0blE93Jrl0d0
cXCA09Zzv3YzXHC4b4c3Pn6OdeUCAwEAAaOCAVwwggFYMB8GA1UdIwQYMBaAFAxe
nP66SyFsBB3CWrfjiF9Z3kwSMB0GA1UdDgQWBBQOa6qDqbJNXIXNsdIvh/cgyzZD
OzAOBgNVHQ8BAf8EBAMCBaAwDAYDVR0TAQH/BAIwADAaBgNVHREEEzARgg93d3cu
ZXhhbXBsZS5jb20wYgYIKwYBBQUHAQEEVjBUMCgGCCsGAQUFBzAChhxodHRwOi8v
Y2EuZXhhbXBsZS5jb20vY2EuY3J0MCgGCCsGAQUFBzABhhxodHRwOi8vb2NzcC5l
eGFtcGxlLmNvbS9vY3NwMFkGA1UdIARSMFAwBwYFZ4EMAQEwRQYKKwYBBAG9Rw0Y
ATA3MDUGCCsGAQUFBwIBFilodHRwOi8vd3d3LnRlbGVzZWMuZGUvc2VydmVycGFz
cy9jcHMuaHRtbDAdBgNVHSUEFjAUBggrBgEFBQcDAQYIKwYBBQUHAwIwDQYJKoZI
hvcNAQELBQADggEBAEgiVvR/nuTFWJgtNbRAjLjl6xbu7w4aly/pdSS8MTCnIJsD
28YgH68LBgUrekS8dp3fyfJpCurHNT9EI7689cymxw88U6Dp6tNd+ZHvexo/juh1
YRHFbGCzkeo/71BWkBBVu6EltM6leyMby0noSps409UOpg35yDrENyTuGRgmdpbe
QBkoh2yYDXMEZFgTk1wfYNPE65vFyv1Wn9/usLbWMGNaNd4zh9LsXIkAXKNYZ0hs
bL4gK8LlRErXHECBicCNXRztq7vF6QVEjuG5xfS7oyj6Oqpm3L0gwmr+WpOtGGiu
l8ogHiDuF78njdMTzoRVhqJsOxQgOaII9FrHE7E=
-----END CERTIFICATE-----
