Certificate:
    Data:
        Version: 3 (0x2)
        Serial Number:
            e9:89:33:e0:01:2c:f4:46:ab:dc:53:8c
        Signature Algorithm: sha256WithRSAEncryption
        Issuer: CN = Test SubCA 2, OU = Test, O = MTG, C = DE
        Validity
            Not Before: Nov  1 08:03:01 2019 GMT
            Not After : Nov  1 08:03:01 2020 GMT
        Subject: O = MTG, L = Darmstadt, ST = Hessen, C = DE, businessCategory = Private Organization, organizationIdentifier = "NTRDE+HE-12345678", serialNumber = 12345678, jurisdictionC = DE, jurisdictionST = Hessen
        Subject Public Key Info:
            Public Key Algorithm: rsaEncryption
                RSA Public-Key: (2048 bit)
                Modulus:
                    00:c2:0d:81:71:b4:94:05:bc:cf:99:8a:aa:62:08:
                    f2:2e:63:b2:1e:46:f9:2b:85:98:c3:83:d0:ce:26:
                    ad:76:8f:5c:e7:5b:05:20:25:26:32:19:c2:24:8a:
                    ba:69:a3:eb:ca:10:a4:f3:cf:b5:c6:1e:f6:70:58:
                    96:5b:88:52:6a:88:42:33:85:b8:c6:16:48:4f:01:
                    45:39:3f:e1:6a:b9:06:b5:ef:37:db:79:9e:50:90:
                    57:43:5b:8b:c3:35:0d:b3:41:f4:1b:c2:4a:7f:18:
                    3c:39:2d:4f:bf:2b:a5:71:07:73:33:00:e5:8d:36:
                    9e:fe:8f:72:c5:72:56:08:cc:86:b6:ef:ba:e2:fd:
                    9b:5c:c6:2d:94:ed:2d:64:24:77:e6:67:4d:62:db:
                    94:2e:29:8e:dd:1d:7a:ca:bc:68:fb:15:2c:80:56:
                    d3:dd:e7:3a:8f:98:18:14:4b:11:d9:c4:01:1f:b9:
                    7a:d0:d9:ad:69:11:05:f6:0e:ae:5f:fc:cd:c6:b3:
                    cb:4d:ae:8e:45:18:0a:a8:c0:40:11:28:dc:cd:9f:
                    7a:26:67:5a:47:80:9b:d9:4c:f7:da:5f:6d:13:83:
                    1a:91:92:d1:b9:44:f7:72:6b:97:47:74:71:70:80:
                    d3:d6:73:bf:76:33:5c:70:b8:6f:87:37:3e:7e:8e:
                    75:e5
                Exponent: 65537 (0x10001)
        X509v3 extensions:
            X509v3 Authority Key Identifier: 
                keyid:0C:5E:9C:FE:BA:4B:21:6C:04:1D:C2:5A:B7:E3:88:5F:59:DE:4C:12

            X509v3 Subject Key Identifier: 
                0E:6B:AA:83:A9:B2:4D:5C:85:CD:B1:D2:2F:87:F7:20:CB:36:43:3B
            X509v3 Key Usage: critical
                Digital Signature, Key Encipherment
            X509v3 Basic Constraints: critical
                CA:FALSE
            X509v3 Subject Alternative Name: 
                DNS:www.example.com
            Authority Information Access: 
                CA Issuers - URI:http://ca.example.com/ca.crt
                OCSP - URI:http://ocsp.example.com/ocsp

            X509v3 Certificate Policies: 
                Policy: 2.23.140.1.1
                Policy: 1.3.6.1.4.1.7879.13.24.1
                  CPS: http://www.telesec.de/serverpass/cps.html

            X509v3 Extended Key Usage: 
                TLS Web Server Authentication, TLS Web Client Authentication
            2.23.140.3.1: 
                0...NTR..DE..Hessen..12345678
    Signature Algorithm: sha256WithRSAEncryption
         38:2a:82:80:5a:e1:9c:4e:18:e6:03:85:8b:5f:48:ae:50:e5:
         7f:b6:ea:5b:3f:27:65:18:51:0e:c0:73:21:cf:c2:45:76:54:
         c3:13:c1:c8:75:d7:1e:cb:ba:c3:f8:eb:d5:34:39:ed:42:2e:
         24:ce:83:46:b4:f1:c6:8e:7f:f1:cc:d8:10:59:72:aa:86:3b:
         c6:2b:af:26:43:6c:b8:4c:24:28:0f:ff:2b:d8:5c:7b:33:c5:
         67:52:60:77:cb:f4:22:81:20:02:fb:37:00:b8:0d:2e:6c:04:
         22:9f:05:dd:48:1e:0d:92:c9:29:14:65:25:8e:2d:71:1c:3d:
         a3:89:36:c4:7f:6a:8b:95:d4:9e:bc:d4:8e:ab:9c:55:67:34:
         20:4f:d1:5d:bd:2c:1c:f5:7a:19:34:e8:c1:7d:95:60:e9:ff:
         34:7e:d0:b2:45:bf:cc:ae:e2:c3:8d:59:c1:90:75:5b:0b:1d:
         23:54:70:64:14:4d:ea:26:81:ca:5a:70:a2:68:de:0c:ff:61:
         17:45:73:5b:42:5d:39:5c:a8:c4:69:b0:09:7e:85:db:9e:6f:
         c0:a8:c1:a7:9f:77:4b:34:13:19:fa:b6:05:0c:9d:ba:ac:0b:
         e6:64:bb:de:05:5b:22:c4:f2:b8:4c:10:4c:2f:6a:9f:28:39:
         1b:96:4e:db
-----BEGIN CERTIFICATE-----
MIIFCzCCA/OgAwIBAgINAOmJM+ABLPRGq9xTjDANBgkqhkiG9w0BAQsFADBBMRUw
EwYDVQQDDAxUZXN0IFN1YkNBIDIxDTALBgNVBAsMBFRlc3QxDDAKBgNVBAoMA01U
RzELMAkGA1UEBhMCREUwHhcNMTkxMTAxMDgwMzAxWhcNMjAxMTAxMDgwMzAxWjCB
vDEMMAoGA1UECgwDTVRHMRIwEAYDVQQHDAlEYXJtc3RhZHQxDzANBgNVBAgMBkhl
c3NlbjELMAkGA1UEBhMCREUxHTAbBgNVBA8MFFByaXZhdGUgT3JnYW5pemF0aW9u
MRowGAYDVQRhDBFOVFJERStIRS0xMjM0NTY3ODERMA8GA1UEBRMIMTIzNDU2Nzgx
EzARBgsrBgEEAYI3PAIBAwwCREUxFzAVBgsrBgEEAYI3PAIBAgwGSGVzc2VuMIIB
IjANBgkqhkiG9w0BAQEFAAOCAQ8AMIIBCgKCAQEAwg2BcbSUBbzPmYqqYgjyLmOy
Hkb5K4WYw4PQziatdo9c51sFICUmMhnCJIq6aaPryhCk88+1xh72cFiWW4hSaohC
M4W4xhZITwFFOT/harkGte8323meUJBXQ1uLwzUNs0H0G8JKfxg8OS1PvyulcQdz
MwDljTae/o9yxXJWCMyGtu+64v2bXMYtlO0tZCR35mdNYtuULimO3R16yrxo+xUs
gFbT3ec6j5gYFEsR2cQBH7l60NmtaREF9g6uX/zNxrPLTa6ORRgKqMBAESjczZ96
JmdaR4Cb2Uz32l9tE4MakZLRuUT3cmuXR3RxcIDT1nO/djNccLhvhzc+fo515QID
AQABo4IBhDCCAYAwHwYDVR0jBBgwFoAUDF6c/rpLIWwEHcJat+OIX1neTBIwHQYD
VR0OBBYEFA5rqoOpsk1chc2x0i+H9yDLNkM7MA4GA1UdDwEB/wQEAwIFoDAMBgNV
HRMBAf8EAjAAMBoGA1UdEQQTMBGCD3d3dy5leGFtcGxlLmNvbTBiBggrBgEFBQcB
AQRWMFQwKAYIKwYBBQUHMAKGHGh0dHA6Ly9jYS5leGFtcGxlLmNvbS9jYS5jcnQw
KAYIKwYBBQUHMAGGHGh0dHA6Ly9vY3NwLmV4YW1wbGUuY29tL29jc3AwWQYDVR0g
BFIwUDAHBgVngQwBATBFBgorBgEEAb1HDRgBMDcwNQYIKwYBBQUHAgEWKWh0dHA6
Ly93d3cudGVsZXNlYy5kZS9zZXJ2ZXJwYXNzL2Nwcy5odG1sMB0GA1UdJQQWMBQG
CCsGAQUFBwMBBggrBgEFBQcDAjAmBgVngQwDAQQdMBsTA05UUhMCREWABkhlc3Nl
bgwIMTIzNDU2NzgwDQYJKoZIhvcNAQELBQADggEBADgqgoBa4ZxOGOYDhYtfSK5Q
5X+26ls/J2UYUQ7AcyHPwkV2VMMTwch11x7LusP469U0Oe1CLiTOg0a08caOf/HM
2BBZcqqGO8YrryZDbLhMJCgP/yvYXHszxWdSYHfL9CKBIAL7NwC4DS5sBCKfBd1I
Hg2SySkUZSWOLXEcPaOJNsR/aouV1J681I6rnFVnNCBP0V29LBz1ehk06MF9lWDp
/zR+0LJFv8yu4sONWcGQdVsLHSNUcGQUTeomgcpacKJo3gz/YRdFc1tCXTlcqMRp
sAl+hdueb8Cowaefd0s0Exn6tgUMnbqsC+Zku94FWyLE8rhMEEwvap8oORuWTts=
-----END CERTIFICATE-----
