Certificate:
    Data:
        Version: 3 (0x2)
        Serial Number:
            0a:d8:fc:3d:cc:73:7c:2c:c2:ae:18:86:39
        Signature Algorithm: sha256WithRSAEncryption
        Issuer: CN = Test SubCA 2, OU = Test, O = MTG, C = DE
        Validity
            Not Before: Nov  1 08:03:01 2019 GMT
            Not After : Nov  1 08:03:01 2020 GMT
        Subject: O = MTG, L = Darmstadt, ST = Hessen, C = DE, businessCategory = Private Organization, organizationIdentifier = VATDE-123456789, serialNumber = 123456789, jurisdictionC = DE
        Subject Public Key Info:
            Public Key Algorithm: rsaEncryption
                RSA Public-Key: (2048 bit)
                Modulus:
                    00:c2:0d:81:71:b4:94:05:bc:cf:99:8a:aa:62:08:
                    f2:2e:63:b2:1e:46:f9:2b:85:98:c3:83:d0:ce:26:
                    ad:76:8f:5c:e7:5b:05:20:25:26:32:19:c2:24:8a:
                    ba:69:a3:eb:ca:10:a4:f3:cf:b5:c6:1e:f6:70:58:
                    96:5b:88:52:6a:88:42:33:85:b8:c6:16:48:4f:01:
                    45:39:3f:e1:6a:b9:06:b5:ef:37:db:79:9e:50:90:
                    57:43:5b:8b:c3:35:0d:b3:41:f4:1b:c2:4a:7f:18:
                    3c:39:2d:4f:bf:2b:a5:71:07:73:33:00:e5:8d:36:
                    9e:fe:8f:72:c5:72:56:08:cc:86:b6:ef:ba:e2:fd:
                    9b:5c:c6:2d:94:ed:2d:64:24:77:e6:67:4d:62:db:
                    94:2e:29:8e:dd:1d:7a:ca:bc:68:fb:15:2c:80:56:
                    d3:dd:e7:3a:8f:98:18:14:4b:11:d9:c4:01:1f:b9:
                    7a:d0:d9:ad:69:11:05:f6:0e:ae:5f:fc:cd:c6:b3:
                    cb:4d:ae:8e:45:18:0a:a8:c0:40:11:28:dc:cd:9f:
                    7a:26:67:5a:47:80:9b:d9:4c:f7:da:5f:6d:13:83:
                    1a:91:92:d1:b9:44:f7:72:6b:97:47:74:71:70:80:
                    d3:d6:73:bf:76:33:5c:70:b8:6f:87:37:3e:7e:8e:
                    75:e5
                Exponent: 65537 (0x10001)
        X509v3 extensions:
            X509v3 Authority Key Identifier: 
                keyid:0C:5E:9C:FE:BA:4B:21:6C:04:1D:C2:5A:B7:E3:88:5F:59:DE:4C:12

            X509v3 Subject Key Identifier: 
                0E:6B:AA:83:A9:B2:4D:5C:85:CD:B1:D2:2F:87:F7:20:CB:36:43:3B
            X509v3 Key Usage: critical
                Digital Signature, Key Encipherment
            X509v3 Basic Constraints: critical
                CA:FALSE
            X509v3 Subject Alternative Name: 
                DNS:www.example.com
            Authority Information Access: 
                CA Issuers - URI:http://ca.example.com/ca.crt
                OCSP - URI:http://ocsp.example.com/ocsp

            X509v3 Certificate Policies: 
                Policy: 2.23.140.1.1
                Policy: 1.3.6.1.4.1.7879.13.24.1
                  CPS: http://www.telesec.de/serverpass/cps.html

            X509v3 Extended Key Usage: 
                TLS Web Server Authentication, TLS Web Client Authentication
    Signature Algorithm: sha256WithRSAEncryption
         41:36:db:ce:5b:5b:40:b5:16:7c:73:ea:c5:ce:b8:c3:41:00:
         96:6c:90:ea:47:04:33:bf:44:cb:d1:74:b1:98:7d:e2:08:f7:
         30:f3:77:cd:95:96:1b:7a:d5:2f:7f:b7:f6:24:cf:9f:52:62:
         25:56:0e:62:ef:a2:57:c9:40:5a:5e:fd:32:8d:8d:38:d1:b7:
         df:d8:01:ce:3a:ce:9d:c0:7e:bc:9c:c2:f2:23:0e:40:cb:fd:
         03:a7:33:9d:a1:67:bd:b0:a8:f6:71:24:3e:2f:35:60:ed:e9:
         cf:0b:a7:a4:fc:35:0d:63:33:3e:a2:bf:2c:1c:84:ab:ff:3d:
         b4:89:0a:c2:79:da:0f:70:c6:7a:21:96:ca:86:1e:04:9f:6b:
         4a:2b:e7:6c:7a:39:5f:cf:bf:0b:d0:82:7e:96:5d:ce:37:8a:
         10:cc:81:67:33:59:80:55:4d:83:6d:6f:e8:1e:b6:52:b3:96:
         1e:ca:c3:c3:ee:6c:20:21:c3:69:4e:77:81:e7:68:b2:d0:d3:
         25:6d:4e:5b:69:57:b1:3a:fe:fd:ec:60:df:57:ec:ea:1e:56:
         1f:00:5c:09:61:92:c3:13:87:30:fd:78:9f:65:c3:bf:e8:23:
         8d:79:9d:ea:53:c4:81:1d:e8:eb:0c:69:c2:f5:46:fe:b1:23:
         ea:47:81:ba
-----BEGIN CERTIFICATE-----
MIIEyTCCA7GgAwIBAgINCtj8PcxzfCzCrhiGOTANBgkqhkiG9w0BAQsFADBBMRUw
EwYDVQQDDAxUZXN0IFN1YkNBIDIxDTALBgNVBAsMBFRlc3QxDDAKBgNVBAoMA01U
RzELMAkGA1UEBhMCREUwHhcNMTkxMTAxMDgwMzAxWhcNMjAxMTAxMDgwMzAxWjCB
ojEMMAoGA1UECgwDTVRHMRIwEAYDVQQHDAlEYXJtc3RhZHQxDzANBgNVBAgMBkhl
c3NlbjELMAkGA1UEBhMCREUxHTAbBgNVBA8MFFByaXZhdGUgT3JnYW5pemF0aW9u
MRgwFgYDVQRhFg9WQVRERS0xMjM0NTY3ODkxEjAQBgNVBAUTCTEyMzQ1Njc4OTET
MBEGCysGAQQBgjc8AgEDDAJERTCCASIwDQYJKoZIhvcNAQEBBQADggEPADCCAQoC
ggEBAMINgXG0lAW8z5mKqmII8i5jsh5G+SuFmMOD0M4mrXaPXOdbBSAlJjIZwiSK
ummj68oQpPPPtcYe9nBYlluIUmqIQjOFuMYWSE8BRTk/4Wq5BrXvN9t5nlCQV0Nb
i8M1DbNB9BvCSn8YPDktT78rpXEHczMA5Y02nv6PcsVyVgjMhrbvuuL9m1zGLZTt
LWQkd+ZnTWLblC4pjt0desq8aPsVLIBW093nOo+YGBRLEdnEAR+5etDZrWkRBfYO
rl/8zcazy02ujkUYCqjAQBEo3M2feiZnWkeAm9lM99pfbRODGpGS0blE93Jrl0d0
cXCA09Zzv3YzXHC4b4c3Pn6OdeUCAwEAAaOCAVwwggFYMB8GA1UdIwQYMBaAFAxe
nP66SyFsBB3CWrfjiF9Z3kwSMB0GA1UdDgQWBBQOa6qDqbJNXIXNsdIvh/cgyzZD
OzAOBgNVHQ8BAf8EBAMCBaAwDAYDVR0TAQH/BAIwADAaBgNVHREEEzARgg93d3cu
ZXhhbXBsZS5jb20wYgYIKwYBBQUHAQEEVjBUMCgGCCsGAQUFBzAChhxodHRwOi8v
Y2EuZXhhbXBsZS5jb20vY2EuY3J0MCgGCCsGAQUFBzABhhxodHRwOi8vb2NzcC5l
eGFtcGxlLmNvbS9vY3NwMFkGA1UdIARSMFAwBwYFZ4EMAQEwRQYKKwYBBAG9Rw0Y
ATA3MDUGCCsGAQUFBwIBFilodHRwOi8vd3d3LnRlbGVzZWMuZGUvc2VydmVycGFz
cy9jcHMuaHRtbDAdBgNVHSUEFjAUBggrBgEFBQcDAQYIKwYBBQUHAwIwDQYJKoZI
hvcNAQELBQADggEBAEE2285bW0C1Fnxz6sXOuMNBAJZskOpHBDO/RMvRdLGYfeII
9zDzd82Vlht61S9/t/Ykz59SYiVWDmLvolfJQFpe/TKNjTjRt9/YAc46zp3Afryc
wvIjDkDL/QOnM52hZ72wqPZxJD4vNWDt6c8Lp6T8NQ1jMz6ivywchKv/PbSJCsJ5
2g9wxnohlsqGHgSfa0or52x6OV/PvwvQgn6WXc43ihDMgWczWYBVTYNtb+getlKz
lh7Kw8PubCAhw2lOd4HnaLLQ0yVtTltpV7E6/v3sYN9X7OoeVh8AXAlhksMThzD9
eJ9lw7/oI415nepTxIEd6OsMacL1Rv6xI+pHgbo=
-----END CERTIFICATE-----
