Certificate:
    Data:
        Version: 3 (0x2)
        Serial Number:
            07:26:26:04:e3:58:24:bc:1a:d7:a1:85:64
        Signature Algorithm: sha256WithRSAEncryption
        Issuer: CN = Test SubCA 2, OU = Test, O = MTG, C = DE
        Validity
            Not Before: Nov  1 08:03:01 2019 GMT
            Not After : Nov  1 08:03:01 2020 GMT
        Subject: O = MTG, L = Darmstadt, ST = Hessen, C = DE, businessCategory = Private Organization, organizationIdentifier = "NTRDE+HE-12345678", serialNumber = 12345678, jurisdictionC = DE, jurisdictionST = Hessen
        Subject Public Key Info:
            Public Key Algorithm: rsaEncryption
                RSA Public-Key: (2048 bit)
                Modulus:
                    00:c2:0d:81:71:b4:94:05:bc:cf:99:8a:aa:62:08:
                    f2:2e:63:b2:1e:46:f9:2b:85:98:c3:83:d0:ce:26:
                    ad:76:8f:5c:e7:5b:05:20:25:26:32:19:c2:24:8a:
                    ba:69:a3:eb:ca:10:a4:f3:cf:b5:c6:1e:f6:70:58:
                    96:5b:88:52:6a:88:42:33:85:b8:c6:16:48:4f:01:
                    45:39:3f:e1:6a:b9:06:b5:ef:37:db:79:9e:50:90:
                    57:43:5b:8b:c3:35:0d:b3:41:f4:1b:c2:4a:7f:18:
                    3c:39:2d:4f:bf:2b:a5:71:07:73:33:00:e5:8d:36:
                    9e:fe:8f:72:c5:72:56:08:cc:86:b6:ef:ba:e2:fd:
                    9b:5c:c6:2d:94:ed:2d:64:24:77:e6:67:4d:62:db:
                    94:2e:29:8e:dd:1d:7a:ca:bc:68:fb:15:2c:80:56:
                    d3:dd:e7:3a:8f:98:18:14:4b:11:d9:c4:01:1f:b9:
                    7a:d0:d9:ad:69:11:05:f6:0e:ae:5f:fc:cd:c6:b3:
                    cb:4d:ae:8e:45:18:0a:a8:c0:40:11:28:dc:cd:9f:
                    7a:26:67:5a:47:80:9b:d9:4c:f7:da:5f:6d:13:83:
                    1a:91:92:d1:b9:44:f7:72:6b:97:47:74:71:70:80:
                    d3:d6:73:bf:76:33:5c:70:b8:6f:87:37:3e:7e:8e:
                    75:e5
                Exponent: 65537 (0x10001)
        X509v3 extensions:
            X509v3 Authority Key Identifier: 
                keyid:0C:5E:9C:FE:BA:4B:21:6C:04:1D:C2:5A:B7:E3:88:5F:59:DE:4C:12

            X509v3 Subject Key Identifier: 
                0E:6B:AA:83:A9:B2:4D:5C:85:CD:B1:D2:2F:87:F7:20:CB:36:43:3B
            X509v3 Key Usage: critical
                Digital Signature, Key Encipherment
            X509v3 Basic Constraints: critical
                CA:FALSE
            X509v3 Subject Alternative Name: 
                DNS:www.example.com
            Authority Information Access: 
                CA Issuers - URI:http://ca.example.com/ca.crt
                OCSP - URI:http://ocsp.example.com/ocsp

            X509v3 Certificate Policies: 
                Policy: 2.23.140.1.1
                Policy: 1.3.6.1.4.1.7879.13.24.1
                  CPS: http://www.telesec.de/serverpass/cps.html

            X509v3 Extended Key Usage: 
                TLS Web Server Authentication, TLS Web Client Authentication
    Signature Algorithm: sha256WithRSAEncryption
         28:ed:88:b7:18:61:47:88:8a:c5:31:ff:40:ab:18:e9:f1:9a:
         be:87:ac:99:e4:72:33:35:57:96:02:17:03:b1:ab:ac:ad:89:
         d8:86:94:48:5a:ba:b5:03:42:81:47:2c:e8:dd:e7:e2:d8:0b:
         7e:de:e3:b9:78:f8:62:b9:62:1f:cd:64:6a:57:a0:22:c0:ab:
         72:35:27:29:a9:59:d1:0d:91:a0:74:14:ef:c4:72:7b:dc:f3:
         8d:4c:05:36:8f:57:dc:1c:6c:39:7c:7e:c5:20:a1:32:93:2a:
         08:57:6d:2f:b4:d2:9e:f6:05:8f:0f:fb:59:bd:cb:23:25:cc:
         e4:51:72:65:51:6a:24:bf:f4:55:9e:76:f3:5c:bc:1a:8d:e8:
         d0:27:19:ff:fa:a1:71:fb:db:e9:16:8a:01:90:0b:e1:f4:b3:
         ef:f1:f7:6b:8a:70:20:de:8d:d8:35:c8:c2:6f:4e:44:e9:e1:
         5b:c8:a7:c5:d9:63:01:f9:7f:a1:b8:86:2a:be:ed:be:8b:e0:
         80:cd:57:eb:6c:45:97:43:38:07:09:b8:b3:8a:22:1c:2c:13:
         72:fe:f1:34:65:da:87:8b:12:71:35:72:51:0d:a1:01:d2:b6:
         cb:31:53:62:1e:97:9b:0f:53:86:a2:4f:70:de:13:33:2f:67:
         5e:9b:2a:0e
-----BEGIN CERTIFICATE-----
MIIE4zCCA8ugAwIBAgINByYmBONYJLwa16GFZDANBgkqhkiG9w0BAQsFADBBMRUw
EwYDVQQDDAxUZXN0IFN1YkNBIDIxDTALBgNVBAsMBFRlc3QxDDAKBgNVBAoMA01U
RzELMAkGA1UEBhMCREUwHhcNMTkxMTAxMDgwMzAxWhcNMjAxMTAxMDgwMzAxWjCB
vDEMMAoGA1UECgwDTVRHMRIwEAYDVQQHDAlEYXJtc3RhZHQxDzANBgNVBAgMBkhl
c3NlbjELMAkGA1UEBhMCREUxHTAbBgNVBA8MFFByaXZhdGUgT3JnYW5pemF0aW9u
MRowGAYDVQRhDBFOVFJERStIRS0xMjM0NTY3ODERMA8GA1UEBRMIMTIzNDU2Nzgx
EzARBgsrBgEEAYI3PAIBAwwCREUxFzAVBgsrBgEEAYI3PAIBAgwGSGVzc2VuMIIB
IjANBgkqhkiG9w0BAQEFAAOCAQ8AMIIBCgKCAQEAwg2BcbSUBbzPmYqqYgjyLmOy
Hkb5K4WYw4PQziatdo9c51sFICUmMhnCJIq6aaPryhCk88+1xh72cFiWW4hSaohC
M4W4xhZITwFFOT/harkGte8323meUJBXQ1uLwzUNs0H0G8JKfxg8OS1PvyulcQdz
MwDljTae/o9yxXJWCMyGtu+64v2bXMYtlO0tZCR35mdNYtuULimO3R16yrxo+xUs
gFbT3ec6j5gYFEsR2cQBH7l60NmtaREF9g6uX/zNxrPLTa6ORRgKqMBAESjczZ96
JmdaR4Cb2Uz32l9tE4MakZLRuUT3cmuXR3RxcIDT1nO/djNccLhvhzc+fo515QID
AQABo4IBXDCCAVgwHwYDVR0jBBgwFoAUDF6c/rpLIWwEHcJat+OIX1neTBIwHQYD
VR0OBBYEFA5rqoOpsk1chc2x0i+H9yDLNkM7MA4GA1UdDwEB/wQEAwIFoDAMBgNV
HRMBAf8EAjAAMBoGA1UdEQQTMBGCD3d3dy5leGFtcGxlLmNvbTBiBggrBgEFBQcB
AQRWMFQwKAYIKwYBBQUHMAKGHGh0dHA6Ly9jYS5leGFtcGxlLmNvbS9jYS5jcnQw
KAYIKwYBBQUHMAGGHGh0dHA6Ly9vY3NwLmV4YW1wbGUuY29tL29jc3AwWQYDVR0g
BFIwUDAHBgVngQwBATBFBgorBgEEAb1HDRgBMDcwNQYIKwYBBQUHAgEWKWh0dHA6
Ly93d3cudGVsZXNlYy5kZS9zZXJ2ZXJwYXNzL2Nwcy5odG1sMB0GA1UdJQQWMBQG
CCsGAQUFBwMBBggrBgEFBQcDAjANBgkqhkiG9w0BAQsFAAOCAQEAKO2ItxhhR4iK
xTH/QKsY6fGavoesmeRyMzVXlgIXA7GrrK2J2IaUSFq6tQNCgUcs6N3n4tgLft7j
uXj4YrliH81kalegIsCrcjUnKalZ0Q2RoHQU78Rye9zzjUwFNo9X3BxsOXx+xSCh
MpMqCFdtL7TSnvYFjw/7Wb3LIyXM5FFyZVFqJL/0VZ5281y8Go3o0CcZ//qhcfvb
6RaKAZAL4fSz7/H3a4pwIN6N2DXIwm9OROnhW8inxdljAfl/obiGKr7tvovggM1X
62xFl0M4Bwm4s4oiHCwTcv7xNGXah4sScTVyUQ2hAdK2yzFTYh6Xmw9ThqJPcN4T
My9nXpsqDg==
-----END CERTIFICATE-----
