Certificate:
    Data:
        Version: 3 (0x2)
        Serial Number:
            01:65:8e:d6:30:2c:40:30:ff:f1:fe:fb:4a
        Signature Algorithm: sha256WithRSAEncryption
        Issuer: CN = Test SubCA 2, OU = Test, O = MTG, C = DE
        Validity
            Not Before: Nov  1 08:03:01 2019 GMT
            Not After : Nov  1 08:03:01 2020 GMT
        Subject: O = MTG, L = Darmstadt, ST = Hessen, C = DE, businessCategory = Private Organization, organizationIdentifier = , serialNumber = HRB 123456, jurisdictionC = DE, jurisdictionST = Hessen
        Subject Public Key Info:
            Public Key Algorithm: rsaEncryption
                RSA Public-Key: (2048 bit)
                Modulus:
                    00:c2:0d:81:71:b4:94:05:bc:cf:99:8a:aa:62:08:
                    f2:2e:63:b2:1e:46:f9:2b:85:98:c3:83:d0:ce:26:
                    ad:76:8f:5c:e7:5b:05:20:25:26:32:19:c2:24:8a:
                    ba:69:a3:eb:ca:10:a4:f3:cf:b5:c6:1e:f6:70:58:
                    96:5b:88:52:6a:88:42:33:85:b8:c6:16:48:4f:01:
                    45:39:3f:e1:6a:b9:06:b5:ef:37:db:79:9e:50:90:
                    57:43:5b:8b:c3:35:0d:b3:41:f4:1b:c2:4a:7f:18:
                    3c:39:2d:4f:bf:2b:a5:71:07:73:33:00:e5:8d:36:
                    9e:fe:8f:72:c5:72:56:08:cc:86:b6:ef:ba:e2:fd:
                    9b:5c:c6:2d:94:ed:2d:64:24:77:e6:67:4d:62:db:
                    94:2e:29:8e:dd:1d:7a:ca:bc:68:fb:15:2c:80:56:
                    d3:dd:e7:3a:8f:98:18:14:4b:11:d9:c4:01:1f:b9:
                    7a:d0:d9:ad:69:11:05:f6:0e:ae:5f:fc:cd:c6:b3:
                    cb:4d:ae:8e:45:18:0a:a8:c0:40:11:28:dc:cd:9f:
                    7a:26:67:5a:47:80:9b:d9:4c:f7:da:5f:6d:13:83:
                    1a:91:92:d1:b9:44:f7:72:6b:97:47:74:71:70:80:
                    d3:d6:73:bf:76:33:5c:70:b8:6f:87:37:3e:7e:8e:
                    75:e5
                Exponent: 65537 (0x10001)
        X509v3 extensions:
            X509v3 Authority Key Identifier: 
                keyid:0C:5E:9C:FE:BA:4B:21:6C:04:1D:C2:5A:B7:E3:88:5F:59:DE:4C:12

            X509v3 Subject Key Identifier: 
                0E:6B:AA:83:A9:B2:4D:5C:85:CD:B1:D2:2F:87:F7:20:CB:36:43:3B
            X509v3 Key Usage: critical
                Digital Signature, Key Encipherment
            X509v3 Basic Constraints: critical
                CA:FALSE
            X509v3 Subject Alternative Name: 
                DNS:www.example.com
            Authority Information Access: 
                CA Issuers - URI:http://ca.example.com/ca.crt
                OCSP - URI:http://ocsp.example.com/ocsp

            X509v3 Certificate Policies: 
                Policy: 2.23.140.1.1
                Policy: 1.3.6.1.4.1.7879.13.24.1
                  CPS: http://www.telesec.de/serverpass/cps.html

            X509v3 Extended Key Usage: 
                TLS Web Server Authentication, TLS Web Client Authentication
    Signature Algorithm: sha256WithRSAEncryption
         3c:2a:6e:33:23:e1:15:2c:82:b5:ee:65:73:a3:38:e8:20:34:
         d9:1e:bb:19:ca:a9:a8:d9:2e:72:31:3f:d3:73:06:41:31:d5:
         43:e1:8b:73:41:8f:11:76:86:f4:1d:d6:34:e9:22:e6:41:9c:
         72:7c:8f:0c:91:fb:bd:90:f5:f0:d7:fa:1b:66:d2:a6:51:32:
         cc:82:72:66:f2:0b:d9:fd:a9:ad:cd:92:07:52:d1:0f:af:3c:
         58:56:c3:eb:10:4b:2f:4f:33:5b:0f:5b:7b:6f:5a:23:ff:45:
         a8:53:35:ad:bb:09:42:61:27:25:9d:03:47:83:66:6c:35:d0:
         e1:fb:36:91:88:d4:b3:c3:3e:b8:ac:fe:c9:5f:e1:1a:42:91:
         43:03:f2:02:8d:20:00:a4:21:fc:71:2c:88:70:d2:de:8a:9d:
         04:23:27:5b:de:b8:cf:bb:51:0e:2e:f6:dc:bc:56:f3:c5:8a:
         92:c5:69:e4:85:b0:10:9a:d1:d4:8a:7a:31:09:9a:f0:52:ea:
         21:90:e8:81:30:16:e6:44:ce:6f:3e:b0:c0:07:37:f8:e7:a2:
         ef:76:05:43:c6:17:ae:30:f7:b9:61:a1:29:91:5c:17:7c:5d:
         73:1f:4b:8e:c4:8e:88:08:a1:6f:03:68:df:5e:80:f1:89:7f:
         56:fb:c7:af
-----BEGIN CERTIFICATE-----
MIIE1DCCA7ygAwIBAgINAWWO1jAsQDD/8f77SjANBgkqhkiG9w0BAQsFADBBMRUw
EwYDVQQDDAxUZXN0IFN1YkNBIDIxDTALBgNVBAsMBFRlc3QxDDAKBgNVBAoMA01U
RzELMAkGA1UEBhMCREUwHhcNMTkxMTAxMDgwMzAxWhcNMjAxMTAxMDgwMzAxWjCB
rTEMMAoGA1UECgwDTVRHMRIwEAYDVQQHDAlEYXJtc3RhZHQxDzANBgNVBAgMBkhl
c3NlbjELMAkGA1UEBhMCREUxHTAbBgNVBA8MFFByaXZhdGUgT3JnYW5pemF0aW9u
MQkwBwYDVQRhDAAxEzARBgNVBAUTCkhSQiAxMjM0NTYxEzARBgsrBgEEAYI3PAIB
AwwCREUxFzAVBgsrBgEEAYI3PAIBAgwGSGVzc2VuMIIBIjANBgkqhkiG9w0BAQEF
AAOCAQ8AMIIBCgKCAQEAwg2BcbSUBbzPmYqqYgjyLmOyHkb5K4WYw4PQziatdo9c
51sFICUmMhnCJIq6aaPryhCk88+1xh72cFiWW4hSaohCM4W4xhZITwFFOT/harkG
te8323meUJBXQ1uLwzUNs0H0G8JKfxg8OS1PvyulcQdzMwDljTae/o9yxXJWCMyG
tu+64v2bXMYtlO0tZCR35mdNYtuULimO3R16yrxo+xUsgFbT3ec6j5gYFEsR2cQB
H7l60NmtaREF9g6uX/zNxrPLTa6ORRgKqMBAESjczZ96JmdaR4Cb2Uz32l9tE4Ma
kZLRuUT3cmuXR3RxcIDT1nO/djNccLhvhzc+fo515QIDAQABo4IBXDCCAVgwHwYD
VR0jBBgwFoAUDF6c/rpLIWwEHcJat+OIX1neTBIwHQYDVR0OBBYEFA5rqoOpsk1c
hc2x0i+H9yDLNkM7MA4GA1UdDwEB/wQEAwIFoDAMBgNVHRMBAf8EAjAAMBoGA1Ud
EQQTMBGCD3d3dy5leGFtcGxlLmNvbTBiBggrBgEFBQcBAQRWMFQwKAYIKwYBBQUH
MAKGHGh0dHA6Ly9jYS5leGFtcGxlLmNvbS9jYS5jcnQwKAYIKwYBBQUHMAGGHGh0
dHA6Ly9vY3NwLmV4YW1wbGUuY29tL29jc3AwWQYDVR0gBFIwUDAHBgVngQwBATBF
BgorBgEEAb1HDRgBMDcwNQYIKwYBBQUHAgEWKWh0dHA6Ly93d3cudGVsZXNlYy5k
ZS9zZXJ2ZXJwYXNzL2Nwcy5odG1sMB0GA1UdJQQWMBQGCCsGAQUFBwMBBggrBgEF
BQcDAjANBgkqhkiG9w0BAQsFAAOCAQEAPCpuMyPhFSyCte5lc6M46CA02R67Gcqp
qNkucjE/03MGQTHVQ+GLc0GPEXaG9B3WNOki5kGccnyPDJH7vZD18Nf6G2bSplEy
zIJyZvIL2f2prc2SB1LRD688WFbD6xBLL08zWw9be29aI/9FqFM1rbsJQmEnJZ0D
R4NmbDXQ4fs2kYjUs8M+uKz+yV/hGkKRQwPyAo0gAKQh/HEsiHDS3oqdBCMnW964
z7tRDi723LxW88WKksVp5IWwEJrR1Ip6MQma8FLqIZDogTAW5kTObz6wwAc3+Oei
73YFQ8YXrjD3uWGhKZFcF3xdcx9LjsSOiAihbwNo316A8Yl/VvvHrw==
-----END CERTIFICATE-----
