Certificate:
    Data:
        Version: 3 (0x2)
        Serial Number:
            03:f9:26:2d:6f:c7:84:5b:f8:94:a4:86:32
        Signature Algorithm: sha256WithRSAEncryption
        Issuer: CN = Test SubCA 2, OU = Test, O = MTG, C = DE
        Validity
            Not Before: Nov  1 08:03:01 2019 GMT
            Not After : Nov  1 08:03:01 2020 GMT
        Subject: O = MTG, L = Darmstadt, ST = Hessen, C = DE, businessCategory = Private Organization, organizationIdentifier = NTRDE-12345678, serialNumber = 12345678, jurisdictionC = DE
        Subject Public Key Info:
            Public Key Algorithm: rsaEncryption
                RSA Public-Key: (2048 bit)
                Modulus:
                    00:c2:0d:81:71:b4:94:05:bc:cf:99:8a:aa:62:08:
                    f2:2e:63:b2:1e:46:f9:2b:85:98:c3:83:d0:ce:26:
                    ad:76:8f:5c:e7:5b:05:20:25:26:32:19:c2:24:8a:
                    ba:69:a3:eb:ca:10:a4:f3:cf:b5:c6:1e:f6:70:58:
                    96:5b:88:52:6a:88:42:33:85:b8:c6:16:48:4f:01:
                    45:39:3f:e1:6a:b9:06:b5:ef:37:db:79:9e:50:90:
                    57:43:5b:8b:c3:35:0d:b3:41:f4:1b:c2:4a:7f:18:
                    3c:39:2d:4f:bf:2b:a5:71:07:73:33:00:e5:8d:36:
                    9e:fe:8f:72:c5:72:56:08:cc:86:b6:ef:ba:e2:fd:
                    9b:5c:c6:2d:94:ed:2d:64:24:77:e6:67:4d:62:db:
                    94:2e:29:8e:dd:1d:7a:ca:bc:68:fb:15:2c:80:56:
                    d3:dd:e7:3a:8f:98:18:14:4b:11:d9:c4:01:1f:b9:
                    7a:d0:d9:ad:69:11:05:f6:0e:ae:5f:fc:cd:c6:b3:
                    cb:4d:ae:8e:45:18:0a:a8:c0:40:11:28:dc:cd:9f:
                    7a:26:67:5a:47:80:9b:d9:4c:f7:da:5f:6d:13:83:
                    1a:91:92:d1:b9:44:f7:72:6b:97:47:74:71:70:80:
                    d3:d6:73:bf:76:33:5c:70:b8:6f:87:37:3e:7e:8e:
                    75:e5
                Exponent: 65537 (0x10001)
        X509v3 extensions:
            X509v3 Authority Key Identifier: 
                keyid:0C:5E:9C:FE:BA:4B:21:6C:04:1D:C2:5A:B7:E3:88:5F:59:DE:4C:12

            X509v3 Subject Key Identifier: 
                0E:6B:AA:83:A9:B2:4D:5C:85:CD:B1:D2:2F:87:F7:20:CB:36:43:3B
            X509v3 Key Usage: critical
                Digital Signature, Key Encipherment
            X509v3 Basic Constraints: critical
                CA:FALSE
            X509v3 Subject Alternative Name: 
                DNS:www.example.com
            Authority Information Access: 
                CA Issuers - URI:http://ca.example.com/ca.crt
                OCSP - URI:http://ocsp.example.com/ocsp

            X509v3 Certificate Policies: 
                Policy: 2.23.140.1.1
                Policy: 1.3.6.1.4.1.7879.13.24.1
                  CPS: http://www.telesec.de/serverpass/cps.html

            X509v3 Extended Key Usage: 
                TLS Web Server Authentication, TLS Web Client Authentication
            2.23.140.3.1: 
                0...PSD..DE..12345678
    Signature Algorithm: sha256WithRSAEncryption
         6a:4d:28:63:15:84:f9:7b:12:2a:58:17:3e:9d:53:ae:c1:b8:
         30:8d:a6:3c:f4:f3:21:21:8b:3f:5d:55:5f:e8:db:b1:cb:22:
         bc:0a:c8:1f:00:37:5a:6f:e1:0a:93:1d:f6:63:06:a4:e4:b2:
         02:9b:a8:1c:7c:37:8e:42:55:8a:9e:e0:36:bc:18:1d:b7:05:
         71:a4:97:a8:ee:9d:28:49:f1:cd:0a:e7:40:eb:b5:7e:ef:c3:
         8d:54:18:7e:49:d7:56:19:a1:77:83:1c:aa:e9:32:f6:57:4b:
         c7:50:0c:a5:4e:f1:ca:00:fd:70:ae:d1:dc:ba:e7:46:3d:1f:
         9b:cf:36:2e:9e:7f:b2:20:19:23:75:ce:77:ee:4b:59:bf:cc:
         e3:33:9e:3c:77:80:97:18:ae:c0:72:cd:6b:7c:71:5a:27:44:
         8d:01:3c:b4:64:f0:1a:1f:04:e4:29:cf:b4:a2:a1:2e:32:33:
         6a:9c:85:f4:63:fa:16:d3:cd:bf:04:a2:e1:00:1a:77:e0:d1:
         d8:92:30:77:f8:7e:9a:7d:9e:7a:4a:fe:35:5c:49:dc:9e:36:
         77:9d:96:28:28:f2:5e:ad:65:ab:66:c8:9b:ca:ff:11:f5:b9:
         1f:0c:10:90:c4:19:de:03:8b:05:6e:11:f0:88:97:97:c9:3d:
         11:cf:63:ca
-----BEGIN CERTIFICATE-----
MIIE5zCCA8+gAwIBAgINA/kmLW/HhFv4lKSGMjANBgkqhkiG9w0BAQsFADBBMRUw
EwYDVQQDDAxUZXN0IFN1YkNBIDIxDTALBgNVBAsMBFRlc3QxDDAKBgNVBAoMA01U
RzELMAkGA1UEBhMCREUwHhcNMTkxMTAxMDgwMzAxWhcNMjAxMTAxMDgwMzAxWjCB
oDEMMAoGA1UECgwDTVRHMRIwEAYDVQQHDAlEYXJtc3RhZHQxDzANBgNVBAgMBkhl
c3NlbjELMAkGA1UEBhMCREUxHTAbBgNVBA8MFFByaXZhdGUgT3JnYW5pemF0aW9u
MRcwFQYDVQRhDA5OVFJERS0xMjM0NTY3ODERMA8GA1UEBRMIMTIzNDU2NzgxEzAR
BgsrBgEEAYI3PAIBAwwCREUwggEiMA0GCSqGSIb3DQEBAQUAA4IBDwAwggEKAoIB
AQDCDYFxtJQFvM+ZiqpiCPIuY7IeRvkrhZjDg9DOJq12j1znWwUgJSYyGcIkirpp
o+vKEKTzz7XGHvZwWJZbiFJqiEIzhbjGFkhPAUU5P+FquQa17zfbeZ5QkFdDW4vD
NQ2zQfQbwkp/GDw5LU+/K6VxB3MzAOWNNp7+j3LFclYIzIa277ri/Ztcxi2U7S1k
JHfmZ01i25QuKY7dHXrKvGj7FSyAVtPd5zqPmBgUSxHZxAEfuXrQ2a1pEQX2Dq5f
/M3Gs8tNro5FGAqowEARKNzNn3omZ1pHgJvZTPfaX20TgxqRktG5RPdya5dHdHFw
gNPWc792M1xwuG+HNz5+jnXlAgMBAAGjggF8MIIBeDAfBgNVHSMEGDAWgBQMXpz+
ukshbAQdwlq344hfWd5MEjAdBgNVHQ4EFgQUDmuqg6myTVyFzbHSL4f3IMs2Qzsw
DgYDVR0PAQH/BAQDAgWgMAwGA1UdEwEB/wQCMAAwGgYDVR0RBBMwEYIPd3d3LmV4
YW1wbGUuY29tMGIGCCsGAQUFBwEBBFYwVDAoBggrBgEFBQcwAoYcaHR0cDovL2Nh
LmV4YW1wbGUuY29tL2NhLmNydDAoBggrBgEFBQcwAYYcaHR0cDovL29jc3AuZXhh
bXBsZS5jb20vb2NzcDBZBgNVHSAEUjBQMAcGBWeBDAEBMEUGCisGAQQBvUcNGAEw
NzA1BggrBgEFBQcCARYpaHR0cDovL3d3dy50ZWxlc2VjLmRlL3NlcnZlcnBhc3Mv
Y3BzLmh0bWwwHQYDVR0lBBYwFAYIKwYBBQUHAwEGCCsGAQUFBwMCMB4GBWeBDAMB
BBUwExMDUFNEEwJERQwIMTIzNDU2NzgwDQYJKoZIhvcNAQELBQADggEBAGpNKGMV
hPl7EipYFz6dU67BuDCNpjz08yEhiz9dVV/o27HLIrwKyB8AN1pv4QqTHfZjBqTk
sgKbqBx8N45CVYqe4Da8GB23BXGkl6junShJ8c0K50DrtX7vw41UGH5J11YZoXeD
HKrpMvZXS8dQDKVO8coA/XCu0dy650Y9H5vPNi6ef7IgGSN1znfuS1m/zOMznjx3
gJcYrsByzWt8cVonRI0BPLRk8BofBOQpz7SioS4yM2qchfRj+hbTzb8EouEAGnfg
0diSMHf4fpp9nnpK/jVcSdyeNnedligo8l6tZatmyJvK/xH1uR8MEJDEGd4DiwVu
EfCIl5fJPRHPY8o=
-----END CERTIFICATE-----
