Certificate:
    Data:
        Version: 3 (0x2)
        Serial Number:
            02:9e:4d:ad:77:38:d9:3b:30:82:b4:6b:19
        Signature Algorithm: sha256WithRSAEncryption
        Issuer: CN = Test SubCA 2, OU = Test, O = MTG, C = DE
        Validity
            Not Before: Nov  1 08:03:01 2019 GMT
            Not After : Nov  1 08:03:01 2020 GMT
        Subject: O = MTG, L = Darmstadt, ST = Hessen, C = DE, businessCategory = Private Organization, organizationIdentifier = NTRDE-12345678, serialNumber = 12345678, jurisdictionC = DE
        Subject Public Key Info:
            Public Key Algorithm: rsaEncryption
                RSA Public-Key: (2048 bit)
                Modulus:
                    00:c2:0d:81:71:b4:94:05:bc:cf:99:8a:aa:62:08:
                    f2:2e:63:b2:1e:46:f9:2b:85:98:c3:83:d0:ce:26:
                    ad:76:8f:5c:e7:5b:05:20:25:26:32:19:c2:24:8a:
                    ba:69:a3:eb:ca:10:a4:f3:cf:b5:c6:1e:f6:70:58:
                    96:5b:88:52:6a:88:42:33:85:b8:c6:16:48:4f:01:
                    45:39:3f:e1:6a:b9:06:b5:ef:37:db:79:9e:50:90:
                    57:43:5b:8b:c3:35:0d:b3:41:f4:1b:c2:4a:7f:18:
                    3c:39:2d:4f:bf:2b:a5:71:07:73:33:00:e5:8d:36:
                    9e:fe:8f:72:c5:72:56:08:cc:86:b6:ef:ba:e2:fd:
                    9b:5c:c6:2d:94:ed:2d:64:24:77:e6:67:4d:62:db:
                    94:2e:29:8e:dd:1d:7a:ca:bc:68:fb:15:2c:80:56:
                    d3:dd:e7:3a:8f:98:18:14:4b:11:d9:c4:01:1f:b9:
                    7a:d0:d9:ad:69:11:05:f6:0e:ae:5f:fc:cd:c6:b3:
                    cb:4d:ae:8e:45:18:0a:a8:c0:40:11:28:dc:cd:9f:
                    7a:26:67:5a:47:80:9b:d9:4c:f7:da:5f:6d:13:83:
                    1a:91:92:d1:b9:44:f7:72:6b:97:47:74:71:70:80:
                    d3:d6:73:bf:76:33:5c:70:b8:6f:87:37:3e:7e:8e:
                    75:e5
                Exponent: 65537 (0x10001)
        X509v3 extensions:
            X509v3 Authority Key Identifier: 
                keyid:0C:5E:9C:FE:BA:4B:21:6C:04:1D:C2:5A:B7:E3:88:5F:59:DE:4C:12

            X509v3 Subject Key Identifier: 
                0E:6B:AA:83:A9:B2:4D:5C:85:CD:B1:D2:2F:87:F7:20:CB:36:43:3B
            X509v3 Key Usage: critical
                Digital Signature, Key Encipherment
            X509v3 Basic Constraints: critical
                CA:FALSE
            X509v3 Subject Alternative Name: 
                DNS:www.example.com
            Authority Information Access: 
                CA Issuers - URI:http://ca.example.com/ca.crt
                OCSP - URI:http://ocsp.example.com/ocsp

            X509v3 Certificate Policies: 
                Policy: 2.23.140.1.1
                Policy: 1.3.6.1.4.1.7879.13.24.1
                  CPS: http://www.telesec.de/serverpass/cps.html

            X509v3 Extended Key Usage: 
                TLS Web Server Authentication, TLS Web Client Authentication
            2.23.140.3.1: 
                0...NTR..GB..12345678
    Signature Algorithm: sha256WithRSAEncryption
         24:91:71:5c:49:74:8d:29:4c:4a:8e:01:fb:c8:cb:9a:4a:af:
         ca:6a:be:1f:b0:02:98:34:6a:2b:fd:93:4a:1d:9c:71:4d:b4:
         79:a7:13:e8:a7:7b:30:9d:3b:ac:01:5f:48:fe:a1:a5:7f:3e:
         74:e7:20:1b:d0:06:40:06:a7:ce:6e:ba:39:ca:f1:70:26:bd:
         45:77:f0:ec:3d:bb:d2:8a:4d:b6:a5:b5:9d:67:0b:b1:ef:0a:
         2b:6d:ca:1d:de:f3:56:e7:57:f9:af:7a:fe:db:be:8e:fd:44:
         9f:f9:eb:59:84:d1:f3:ac:c3:38:ab:08:59:02:a3:cf:d9:f1:
         50:e1:32:f0:f3:6f:c5:7a:b5:4a:72:00:ef:f9:40:9e:66:81:
         ee:57:03:39:52:b4:65:37:48:95:1d:0f:3b:0e:1c:05:5a:c9:
         4e:54:b6:dd:8d:c9:6a:b2:fa:91:89:c7:d7:79:93:5d:6f:38:
         d7:bb:27:9f:c8:c0:ce:11:b0:52:82:44:49:f2:07:50:bb:79:
         b8:72:89:20:26:34:50:a1:5c:34:66:33:38:c8:31:76:06:08:
         15:71:fe:d0:81:d6:5b:76:79:2e:89:79:e1:dd:ad:05:37:6b:
         81:74:81:0c:cc:11:44:af:51:29:91:ec:de:36:66:0d:cf:9c:
         e2:50:be:5a
-----BEGIN CERTIFICATE-----
MIIE5zCCA8+gAwIBAgINAp5NrXc42TswgrRrGTANBgkqhkiG9w0BAQsFADBBMRUw
EwYDVQQDDAxUZXN0IFN1YkNBIDIxDTALBgNVBAsMBFRlc3QxDDAKBgNVBAoMA01U
RzELMAkGA1UEBhMCREUwHhcNMTkxMTAxMDgwMzAxWhcNMjAxMTAxMDgwMzAxWjCB
oDEMMAoGA1UECgwDTVRHMRIwEAYDVQQHDAlEYXJtc3RhZHQxDzANBgNVBAgMBkhl
c3NlbjELMAkGA1UEBhMCREUxHTAbBgNVBA8MFFByaXZhdGUgT3JnYW5pemF0aW9u
MRcwFQYDVQRhDA5OVFJERS0xMjM0NTY3ODERMA8GA1UEBRMIMTIzNDU2NzgxEzAR
BgsrBgEEAYI3PAIBAwwCREUwggEiMA0GCSqGSIb3DQEBAQUAA4IBDwAwggEKAoIB
AQDCDYFxtJQFvM+ZiqpiCPIuY7IeRvkrhZjDg9DOJq12j1znWwUgJSYyGcIkirpp
o+vKEKTzz7XGHvZwWJZbiFJqiEIzhbjGFkhPAUU5P+FquQa17zfbeZ5QkFdDW4vD
NQ2zQfQbwkp/GDw5LU+/K6VxB3MzAOWNNp7+j3LFclYIzIa277ri/Ztcxi2U7S1k
JHfmZ01i25QuKY7dHXrKvGj7FSyAVtPd5zqPmBgUSxHZxAEfuXrQ2a1pEQX2Dq5f
/M3Gs8tNro5FGAqowEARKNzNn3omZ1pHgJvZTPfaX20TgxqRktG5RPdya5dHdHFw
gNPWc792M1xwuG+HNz5+jnXlAgMBAAGjggF8MIIBeDAfBgNVHSMEGDAWgBQMXpz+
ukshbAQdwlq344hfWd5MEjAdBgNVHQ4EFgQUDmuqg6myTVyFzbHSL4f3IMs2Qzsw
DgYDVR0PAQH/BAQDAgWgMAwGA1UdEwEB/wQCMAAwGgYDVR0RBBMwEYIPd3d3LmV4
YW1wbGUuY29tMGIGCCsGAQUFBwEBBFYwVDAoBggrBgEFBQcwAoYcaHR0cDovL2Nh
LmV4YW1wbGUuY29tL2NhLmNydDAoBggrBgEFBQcwAYYcaHR0cDovL29jc3AuZXhh
bXBsZS5jb20vb2NzcDBZBgNVHSAEUjBQMAcGBWeBDAEBMEUGCisGAQQBvUcNGAEw
NzA1BggrBgEFBQcCARYpaHR0cDovL3d3dy50ZWxlc2VjLmRlL3NlcnZlcnBhc3Mv
Y3BzLmh0bWwwHQYDVR0lBBYwFAYIKwYBBQUHAwEGCCsGAQUFBwMCMB4GBWeBDAMB
BBUwExMDTlRSEwJHQgwIMTIzNDU2NzgwDQYJKoZIhvcNAQELBQADggEBACSRcVxJ
dI0pTEqOAfvIy5pKr8pqvh+wApg0aiv9k0odnHFNtHmnE+inezCdO6wBX0j+oaV/
PnTnIBvQBkAGp85uujnK8XAmvUV38Ow9u9KKTbaltZ1nC7HvCittyh3e81bnV/mv
ev7bvo79RJ/561mE0fOswzirCFkCo8/Z8VDhMvDzb8V6tUpyAO/5QJ5mge5XAzlS
tGU3SJUdDzsOHAVayU5Utt2NyWqy+pGJx9d5k11vONe7J5/IwM4RsFKCREnyB1C7
ebhyiSAmNFChXDRmMzjIMXYGCBVx/tCB1lt2eS6JeeHdrQU3a4F0gQzMEUSvUSmR
7N42Zg3PnOJQvlo=
-----END CERTIFICATE-----
