Certificate:
    Data:
        Version: 3 (0x2)
        Serial Number:
            06:62:dd:93:ff:ae:fd:99:73:ad:06:f0:40
        Signature Algorithm: sha256WithRSAEncryption
        Issuer: CN = Test SubCA 2, OU = Test, O = MTG, C = DE
        Validity
            Not Before: Nov  1 08:03:01 2019 GMT
            Not After : Nov  1 08:03:01 2020 GMT
        Subject: O = MTG, L = Darmstadt, ST = Hessen, C = DE, businessCategory = Private Organization, organizationIdentifier = VATDEU-12345, serialNumber = 12345, jurisdictionC = DE
        Subject Public Key Info:
            Public Key Algorithm: rsaEncryption
                RSA Public-Key: (2048 bit)
                Modulus:
                    00:c2:0d:81:71:b4:94:05:bc:cf:99:8a:aa:62:08:
                    f2:2e:63:b2:1e:46:f9:2b:85:98:c3:83:d0:ce:26:
                    ad:76:8f:5c:e7:5b:05:20:25:26:32:19:c2:24:8a:
                    ba:69:a3:eb:ca:10:a4:f3:cf:b5:c6:1e:f6:70:58:
                    96:5b:88:52:6a:88:42:33:85:b8:c6:16:48:4f:01:
                    45:39:3f:e1:6a:b9:06:b5:ef:37:db:79:9e:50:90:
                    57:43:5b:8b:c3:35:0d:b3:41:f4:1b:c2:4a:7f:18:
                    3c:39:2d:4f:bf:2b:a5:71:07:73:33:00:e5:8d:36:
                    9e:fe:8f:72:c5:72:56:08:cc:86:b6:ef:ba:e2:fd:
                    9b:5c:c6:2d:94:ed:2d:64:24:77:e6:67:4d:62:db:
                    94:2e:29:8e:dd:1d:7a:ca:bc:68:fb:15:2c:80:56:
                    d3:dd:e7:3a:8f:98:18:14:4b:11:d9:c4:01:1f:b9:
                    7a:d0:d9:ad:69:11:05:f6:0e:ae:5f:fc:cd:c6:b3:
                    cb:4d:ae:8e:45:18:0a:a8:c0:40:11:28:dc:cd:9f:
                    7a:26:67:5a:47:80:9b:d9:4c:f7:da:5f:6d:13:83:
                    1a:91:92:d1:b9:44:f7:72:6b:97:47:74:71:70:80:
                    d3:d6:73:bf:76:33:5c:70:b8:6f:87:37:3e:7e:8e:
                    75:e5
                Exponent: 65537 (0x10001)
        X509v3 extensions:
            X509v3 Authority Key Identifier: 
                keyid:0C:5E:9C:FE:BA:4B:21:6C:04:1D:C2:5A:B7:E3:88:5F:59:DE:4C:12

            X509v3 Subject Key Identifier: 
                0E:6B:AA:83:A9:B2:4D:5C:85:CD:B1:D2:2F:87:F7:20:CB:36:43:3B
            X509v3 Key Usage: critical
                Digital Signature, Key Encipherment
            X509v3 Basic Constraints: critical
                CA:FALSE
            X509v3 Subject Alternative Name: 
                DNS:www.example.com
            Authority Information Access: 
                CA Issuers - URI:http://ca.example.com/ca.crt
                OCSP - URI:http://ocsp.example.com/ocsp

            X509v3 Certificate Policies: 
                Policy: 2.23.140.1.1
                Policy: 1.3.6.1.4.1.7879.13.24.1
                  CPS: http://www.telesec.de/serverpass/cps.html

            X509v3 Extended Key Usage: 
                TLS Web Server Authentication, TLS Web Client Authentication
    Signature Algorithm: sha256WithRSAEncryption
         0e:a0:f4:fd:bc:6a:dc:05:34:00:35:1c:53:0b:bf:c0:1f:23:
         5a:2c:40:c2:65:d2:43:f5:43:06:6e:7d:07:5f:78:4d:53:87:
         e4:e4:2f:d3:ed:60:bc:38:0c:4e:31:4d:18:ff:1d:70:09:1d:
         f5:06:8f:27:20:77:cd:e5:af:53:a7:47:93:5e:28:57:9b:9e:
         7a:b6:1b:5a:a3:01:91:a1:ab:49:4c:5c:85:bb:50:f7:07:62:
         fd:a7:2b:f7:9e:61:bf:3d:d3:5d:22:3b:71:83:79:d6:aa:f0:
         60:fa:87:25:27:ff:e2:b6:c5:f5:19:96:6a:02:3f:c6:d5:80:
         83:70:84:8c:ab:a4:4a:17:6e:2b:53:49:91:58:a4:c5:c5:8b:
         94:8f:e1:72:1c:58:03:5b:fb:b9:dd:1d:c7:15:36:49:9a:22:
         65:2f:ba:3e:7c:af:36:cf:dc:b4:7b:e6:6f:32:f7:3d:b8:03:
         f0:16:1a:ab:ec:50:fe:81:62:68:39:d0:71:8a:34:04:d4:b6:
         50:61:e0:d6:be:d8:22:75:a7:b3:d9:ba:b3:9e:35:1f:04:c9:
         02:91:55:1f:50:cb:ca:04:d9:73:37:00:44:f2:38:b3:70:73:
         73:ec:b4:67:a0:ff:76:2c:2a:84:92:0f:14:dd:e2:76:47:c9:
         f4:48:44:73
-----BEGIN CERTIFICATE-----
MIIEwjCCA6qgAwIBAgINBmLdk/+u/ZlzrQbwQDANBgkqhkiG9w0BAQsFADBBMRUw
EwYDVQQDDAxUZXN0IFN1YkNBIDIxDTALBgNVBAsMBFRlc3QxDDAKBgNVBAoMA01U
RzELMAkGA1UEBhMCREUwHhcNMTkxMTAxMDgwMzAxWhcNMjAxMTAxMDgwMzAxWjCB
mzEMMAoGA1UECgwDTVRHMRIwEAYDVQQHDAlEYXJtc3RhZHQxDzANBgNVBAgMBkhl
c3NlbjELMAkGA1UEBhMCREUxHTAbBgNVBA8MFFByaXZhdGUgT3JnYW5pemF0aW9u
MRUwEwYDVQRhDAxWQVRERVUtMTIzNDUxDjAMBgNVBAUTBTEyMzQ1MRMwEQYLKwYB
BAGCNzwCAQMMAkRFMIIBIjANBgkqhkiG9w0BAQEFAAOCAQ8AMIIBCgKCAQEAwg2B
cbSUBbzPmYqqYgjyLmOyHkb5K4WYw4PQziatdo9c51sFICUmMhnCJIq6aaPryhCk
88+1xh72cFiWW4hSaohCM4W4xhZITwFFOT/harkGte8323meUJBXQ1uLwzUNs0H0
G8JKfxg8OS1PvyulcQdzMwDljTae/o9yxXJWCMyGtu+64v2bXMYtlO0tZCR35mdN
YtuULimO3R16yrxo+xUsgFbT3ec6j5gYFEsR2cQBH7l60NmtaREF9g6uX/zNxrPL
Ta6ORRgKqMBAESjczZ96JmdaR4Cb2Uz32l9tE4MakZLRuUT3cmuXR3RxcIDT1nO/
djNccLhvhzc+fo515QIDAQABo4IBXDCCAVgwHwYDVR0jBBgwFoAUDF6c/rpLIWwE
HcJat+OIX1neTBIwHQYDVR0OBBYEFA5rqoOpsk1chc2x0i+H9yDLNkM7MA4GA1Ud
DwEB/wQEAwIFoDAMBgNVHRMBAf8EAjAAMBoGA1UdEQQTMBGCD3d3dy5leGFtcGxl
LmNvbTBiBggrBgEFBQcBAQRWMFQwKAYIKwYBBQUHMAKGHGh0dHA6Ly9jYS5leGFt
cGxlLmNvbS9jYS5jcnQwKAYIKwYBBQUHMAGGHGh0dHA6Ly9vY3NwLmV4YW1wbGUu
Y29tL29jc3AwWQYDVR0gBFIwUDAHBgVngQwBATBFBgorBgEEAb1HDRgBMDcwNQYI
KwYBBQUHAgEWKWh0dHA6Ly93d3cudGVsZXNlYy5kZS9zZXJ2ZXJwYXNzL2Nwcy5o
dG1sMB0GA1UdJQQWMBQGCCsGAQUFBwMBBggrBgEFBQcDAjANBgkqhkiG9w0BAQsF
AAOCAQEADqD0/bxq3AU0ADUcUwu/wB8jWixAwmXSQ/VDBm59B194TVOH5OQv0+1g
vDgMTjFNGP8dcAkd9QaPJyB3zeWvU6dHk14oV5ueerYbWqMBkaGrSUxchbtQ9wdi
/acr955hvz3TXSI7cYN51qrwYPqHJSf/4rbF9RmWagI/xtWAg3CEjKukShduK1NJ
kVikxcWLlI/hchxYA1v7ud0dxxU2SZoiZS+6PnyvNs/ctHvmbzL3PbgD8BYaq+xQ
/oFiaDnQcYo0BNS2UGHg1r7YInWns9m6s541HwTJApFVH1DLygTZczcARPI4s3Bz
c+y0Z6D/diwqhJIPFN3idkfJ9EhEcw==
-----END CERTIFICATE-----
