Certificate:
    Data:
        Version: 3 (0x2)
        Serial Number:
            0a:5c:83:93:90:15:26:7e:db:24:1a:f7:6a
        Signature Algorithm: sha256WithRSAEncryption
        Issuer: CN = Test SubCA 2, OU = Test, O = MTG, C = DE
        Validity
            Not Before: Nov  1 08:03:01 2019 GMT
            Not After : Nov  1 08:03:01 2020 GMT
        Subject: O = MTG, L = Darmstadt, ST = Hessen, C = DE, businessCategory = Private Organization, organizationIdentifier = VATDE-12345678, serialNumber = 12345678, jurisdictionC = DE
        Subject Public Key Info:
            Public Key Algorithm: rsaEncryption
                RSA Public-Key: (2048 bit)
                Modulus:
                    00:c2:0d:81:71:b4:94:05:bc:cf:99:8a:aa:62:08:
                    f2:2e:63:b2:1e:46:f9:2b:85:98:c3:83:d0:ce:26:
                    ad:76:8f:5c:e7:5b:05:20:25:26:32:19:c2:24:8a:
                    ba:69:a3:eb:ca:10:a4:f3:cf:b5:c6:1e:f6:70:58:
                    96:5b:88:52:6a:88:42:33:85:b8:c6:16:48:4f:01:
                    45:39:3f:e1:6a:b9:06:b5:ef:37:db:79:9e:50:90:
                    57:43:5b:8b:c3:35:0d:b3:41:f4:1b:c2:4a:7f:18:
                    3c:39:2d:4f:bf:2b:a5:71:07:73:33:00:e5:8d:36:
                    9e:fe:8f:72:c5:72:56:08:cc:86:b6:ef:ba:e2:fd:
                    9b:5c:c6:2d:94:ed:2d:64:24:77:e6:67:4d:62:db:
                    94:2e:29:8e:dd:1d:7a:ca:bc:68:fb:15:2c:80:56:
                    d3:dd:e7:3a:8f:98:18:14:4b:11:d9:c4:01:1f:b9:
                    7a:d0:d9:ad:69:11:05:f6:0e:ae:5f:fc:cd:c6:b3:
                    cb:4d:ae:8e:45:18:0a:a8:c0:40:11:28:dc:cd:9f:
                    7a:26:67:5a:47:80:9b:d9:4c:f7:da:5f:6d:13:83:
                    1a:91:92:d1:b9:44:f7:72:6b:97:47:74:71:70:80:
                    d3:d6:73:bf:76:33:5c:70:b8:6f:87:37:3e:7e:8e:
                    75:e5
                Exponent: 65537 (0x10001)
        X509v3 extensions:
            X509v3 Authority Key Identifier: 
                keyid:0C:5E:9C:FE:BA:4B:21:6C:04:1D:C2:5A:B7:E3:88:5F:59:DE:4C:12

            X509v3 Subject Key Identifier: 
                0E:6B:AA:83:A9:B2:4D:5C:85:CD:B1:D2:2F:87:F7:20:CB:36:43:3B
            X509v3 Key Usage: critical
                Digital Signature, Key Encipherment
            X509v3 Basic Constraints: critical
                CA:FALSE
            X509v3 Subject Alternative Name: 
                DNS:www.example.com
            Authority Information Access: 
                CA Issuers - URI:http://ca.example.com/ca.crt
                OCSP - URI:http://ocsp.example.com/ocsp

            X509v3 Certificate Policies: 
                Policy: 2.23.140.1.1
                Policy: 1.3.6.1.4.1.7879.13.24.1
                  CPS: http://www.telesec.de/serverpass/cps.html

            X509v3 Extended Key Usage: 
                TLS Web Server Authentication, TLS Web Client Authentication
            2.23.140.3.1: 
                0...VAT..DE..
    Signature Algorithm: sha256WithRSAEncryption
         57:42:01:98:a6:05:7b:3a:56:78:af:bd:35:7c:0e:1f:49:cf:
         b5:02:c6:32:73:42:aa:f5:bf:85:1f:ee:56:ba:29:90:70:17:
         e4:21:2a:68:15:31:12:03:2d:1e:0d:98:2b:ce:a2:71:26:77:
         e2:73:50:da:79:39:5b:b3:94:af:0f:58:c4:c5:cd:16:59:5d:
         00:b4:86:bb:67:d4:dc:eb:11:e9:4e:99:48:b0:7f:84:20:b1:
         36:6f:94:5a:83:d8:67:f9:a5:dd:78:f3:db:f5:ab:af:f6:80:
         b9:5b:6c:3f:8d:d6:e9:75:cb:68:f3:cb:f8:5c:ae:bb:01:5f:
         3a:73:d2:91:d8:e6:fc:32:45:2c:55:ec:07:c0:c3:d5:10:32:
         d7:f5:a2:90:0c:53:14:c6:c4:af:ec:0c:fd:c1:7e:c3:c6:fe:
         97:c3:a4:47:40:a1:e1:da:f5:e3:89:9a:6b:b4:90:5b:a7:cc:
         bb:a5:95:5c:66:73:9c:51:0d:ae:be:05:cc:b7:45:48:d4:45:
         7b:b5:e3:1c:e5:b6:58:2a:5d:48:3a:bd:b1:14:15:1a:55:d0:
         90:9a:6e:af:ab:70:0c:f9:f6:78:21:63:68:4f:52:12:c1:0c:
         c7:ad:97:45:4d:1c:23:05:61:c7:44:c3:83:08:8e:94:b3:a3:
         64:d0:69:5e
-----BEGIN CERTIFICATE-----
MIIE3zCCA8egAwIBAgINClyDk5AVJn7bJBr3ajANBgkqhkiG9w0BAQsFADBBMRUw
EwYDVQQDDAxUZXN0IFN1YkNBIDIxDTALBgNVBAsMBFRlc3QxDDAKBgNVBAoMA01U
RzELMAkGA1UEBhMCREUwHhcNMTkxMTAxMDgwMzAxWhcNMjAxMTAxMDgwMzAxWjCB
oDEMMAoGA1UECgwDTVRHMRIwEAYDVQQHDAlEYXJtc3RhZHQxDzANBgNVBAgMBkhl
c3NlbjELMAkGA1UEBhMCREUxHTAbBgNVBA8MFFByaXZhdGUgT3JnYW5pemF0aW9u
MRcwFQYDVQRhDA5WQVRERS0xMjM0NTY3ODERMA8GA1UEBRMIMTIzNDU2NzgxEzAR
BgsrBgEEAYI3PAIBAwwCREUwggEiMA0GCSqGSIb3DQEBAQUAA4IBDwAwggEKAoIB
AQDCDYFxtJQFvM+ZiqpiCPIuY7IeRvkrhZjDg9DOJq12j1znWwUgJSYyGcIkirpp
o+vKEKTzz7XGHvZwWJZbiFJqiEIzhbjGFkhPAUU5P+FquQa17zfbeZ5QkFdDW4vD
NQ2zQfQbwkp/GDw5LU+/K6VxB3MzAOWNNp7+j3LFclYIzIa277ri/Ztcxi2U7S1k
JHfmZ01i25QuKY7dHXrKvGj7FSyAVtPd5zqPmBgUSxHZxAEfuXrQ2a1pEQX2Dq5f
/M3Gs8tNro5FGAqowEARKNzNn3omZ1pHgJvZTPfaX20TgxqRktG5RPdya5dHdHFw
gNPWc792M1xwuG+HNz5+jnXlAgMBAAGjggF0MIIBcDAfBgNVHSMEGDAWgBQMXpz+
ukshbAQdwlq344hfWd5MEjAdBgNVHQ4EFgQUDmuqg6myTVyFzbHSL4f3IMs2Qzsw
DgYDVR0PAQH/BAQDAgWgMAwGA1UdEwEB/wQCMAAwGgYDVR0RBBMwEYIPd3d3LmV4
YW1wbGUuY29tMGIGCCsGAQUFBwEBBFYwVDAoBggrBgEFBQcwAoYcaHR0cDovL2Nh
LmV4YW1wbGUuY29tL2NhLmNydDAoBggrBgEFBQcwAYYcaHR0cDovL29jc3AuZXhh
bXBsZS5jb20vb2NzcDBZBgNVHSAEUjBQMAcGBWeBDAEBMEUGCisGAQQBvUcNGAEw
NzA1BggrBgEFBQcCARYpaHR0cDovL3d3dy50ZWxlc2VjLmRlL3NlcnZlcnBhc3Mv
Y3BzLmh0bWwwHQYDVR0lBBYwFAYIKwYBBQUHAwEGCCsGAQUFBwMCMBYGBWeBDAMB
BA0wCxMDVkFUEwJERQwAMA0GCSqGSIb3DQEBCwUAA4IBAQBXQgGYpgV7OlZ4r701
fA4fSc+1AsYyc0Kq9b+FH+5WuimQcBfkISpoFTESAy0eDZgrzqJxJnfic1DaeTlb
s5SvD1jExc0WWV0AtIa7Z9Tc6xHpTplIsH+EILE2b5Rag9hn+aXdePPb9auv9oC5
W2w/jdbpdcto88v4XK67AV86c9KR2Ob8MkUsVewHwMPVEDLX9aKQDFMUxsSv7Az9
wX7Dxv6Xw6RHQKHh2vXjiZprtJBbp8y7pZVcZnOcUQ2uvgXMt0VI1EV7teMc5bZY
Kl1IOr2xFBUaVdCQmm6vq3AM+fZ4IWNoT1ISwQzHrZdFTRwjBWHHRMODCI6Us6Nk
0Gle
-----END CERTIFICATE-----
