Certificate:
    Data:
        Version: 3 (0x2)
        Serial Number:
            07:8f:b9:93:fb:1f:12:08:05:56:76:90:09
        Signature Algorithm: sha256WithRSAEncryption
        Issuer: CN = Test SubCA 2, OU = Test, O = MTG, C = DE
        Validity
            Not Before: Nov  1 08:03:01 2019 GMT
            Not After : Nov  1 08:03:01 2020 GMT
        Subject: O = MTG, L = Darmstadt, ST = Hessen, C = DE, businessCategory = Private Organization, organizationIdentifier = "NTRDE+HE-12345678", serialNumber = 12345678, jurisdictionC = DE, jurisdictionST = Hessen
        Subject Public Key Info:
            Public Key Algorithm: rsaEncryption
                RSA Public-Key: (2048 bit)
                Modulus:
                    00:c2:0d:81:71:b4:94:05:bc:cf:99:8a:aa:62:08:
                    f2:2e:63:b2:1e:46:f9:2b:85:98:c3:83:d0:ce:26:
                    ad:76:8f:5c:e7:5b:05:20:25:26:32:19:c2:24:8a:
                    ba:69:a3:eb:ca:10:a4:f3:cf:b5:c6:1e:f6:70:58:
                    96:5b:88:52:6a:88:42:33:85:b8:c6:16:48:4f:01:
                    45:39:3f:e1:6a:b9:06:b5:ef:37:db:79:9e:50:90:
                    57:43:5b:8b:c3:35:0d:b3:41:f4:1b:c2:4a:7f:18:
                    3c:39:2d:4f:bf:2b:a5:71:07:73:33:00:e5:8d:36:
                    9e:fe:8f:72:c5:72:56:08:cc:86:b6:ef:ba:e2:fd:
                    9b:5c:c6:2d:94:ed:2d:64:24:77:e6:67:4d:62:db:
                    94:2e:29:8e:dd:1d:7a:ca:bc:68:fb:15:2c:80:56:
                    d3:dd:e7:3a:8f:98:18:14:4b:11:d9:c4:01:1f:b9:
                    7a:d0:d9:ad:69:11:05:f6:0e:ae:5f:fc:cd:c6:b3:
                    cb:4d:ae:8e:45:18:0a:a8:c0:40:11:28:dc:cd:9f:
                    7a:26:67:5a:47:80:9b:d9:4c:f7:da:5f:6d:13:83:
                    1a:91:92:d1:b9:44:f7:72:6b:97:47:74:71:70:80:
                    d3:d6:73:bf:76:33:5c:70:b8:6f:87:37:3e:7e:8e:
                    75:e5
                Exponent: 65537 (0x10001)
        X509v3 extensions:
            X509v3 Authority Key Identifier: 
                keyid:0C:5E:9C:FE:BA:4B:21:6C:04:1D:C2:5A:B7:E3:88:5F:59:DE:4C:12

            X509v3 Subject Key Identifier: 
                0E:6B:AA:83:A9:B2:4D:5C:85:CD:B1:D2:2F:87:F7:20:CB:36:43:3B
            X509v3 Key Usage: critical
                Digital Signature, Key Encipherment
            X509v3 Basic Constraints: critical
                CA:FALSE
            X509v3 Subject Alternative Name: 
                DNS:www.example.com
            Authority Information Access: 
                CA Issuers - URI:http://ca.example.com/ca.crt
                OCSP - URI:http://ocsp.example.com/ocsp

            X509v3 Certificate Policies: 
                Policy: 2.23.140.1.1
                Policy: 1.3.6.1.4.1.7879.13.24.1
                  CPS: http://www.telesec.de/serverpass/cps.html

            X509v3 Extended Key Usage: 
                TLS Web Server Authentication, TLS Web Client Authentication
            2.23.140.3.1: 
                0...NTR..DE..Hessen..12345678
    Signature Algorithm: sha256WithRSAEncryption
         18:aa:4d:e3:f9:ac:ff:4f:24:6e:45:59:53:17:3b:a6:ed:65:
         93:08:8b:1e:e8:d4:7f:63:c8:b6:cb:12:1d:91:b5:e0:8c:16:
         8c:50:4c:15:54:fd:b1:75:45:30:f3:55:73:55:a5:e9:fe:03:
         ca:30:dc:c3:3e:c5:d5:5a:64:8f:33:2a:fb:56:e5:f8:d0:88:
         8c:ac:a0:00:44:5d:b3:c5:a8:45:45:82:86:90:cc:4d:5e:9b:
         01:40:5b:c9:8c:b8:b1:86:c0:9e:59:ba:c2:7e:d4:55:5e:57:
         a3:d9:b0:61:b9:1b:c4:df:c5:e0:ea:49:52:23:7a:b4:c9:54:
         f0:61:13:eb:bd:db:e4:44:23:b3:4b:3e:2c:c5:40:cb:c1:f2:
         7f:f5:d9:b4:2d:5d:d2:df:65:91:32:51:51:0d:ce:d3:17:2d:
         14:60:81:f1:c6:b4:c9:74:94:f9:cf:01:d3:e8:bf:6b:d8:16:
         17:d9:59:3e:94:c1:34:92:56:15:b2:d5:b7:4b:e1:9a:c3:4a:
         d9:93:cd:5b:6a:bd:1f:bf:dc:c1:30:b2:9d:5d:d2:55:6d:53:
         fe:d2:30:ad:7d:d2:2d:53:ba:29:43:2a:49:4a:09:00:5a:c3:
         15:63:8d:d3:02:0e:eb:67:47:ed:11:8a:90:f4:90:39:9a:3c:
         bc:5a:a2:88
-----BEGIN CERTIFICATE-----
MIIFCzCCA/OgAwIBAgINB4+5k/sfEggFVnaQCTANBgkqhkiG9w0BAQsFADBBMRUw
EwYDVQQDDAxUZXN0IFN1YkNBIDIxDTALBgNVBAsMBFRlc3QxDDAKBgNVBAoMA01U
RzELMAkGA1UEBhMCREUwHhcNMTkxMTAxMDgwMzAxWhcNMjAxMTAxMDgwMzAxWjCB
vDEMMAoGA1UECgwDTVRHMRIwEAYDVQQHDAlEYXJtc3RhZHQxDzANBgNVBAgMBkhl
c3NlbjELMAkGA1UEBhMCREUxHTAbBgNVBA8MFFByaXZhdGUgT3JnYW5pemF0aW9u
MRowGAYDVQRhDBFOVFJERStIRS0xMjM0NTY3ODERMA8GA1UEBRMIMTIzNDU2Nzgx
EzARBgsrBgEEAYI3PAIBAwwCREUxFzAVBgsrBgEEAYI3PAIBAgwGSGVzc2VuMIIB
IjANBgkqhkiG9w0BAQEFAAOCAQ8AMIIBCgKCAQEAwg2BcbSUBbzPmYqqYgjyLmOy
Hkb5K4WYw4PQziatdo9c51sFICUmMhnCJIq6aaPryhCk88+1xh72cFiWW4hSaohC
M4W4xhZITwFFOT/harkGte8323meUJBXQ1uLwzUNs0H0G8JKfxg8OS1PvyulcQdz
MwDljTae/o9yxXJWCMyGtu+64v2bXMYtlO0tZCR35mdNYtuULimO3R16yrxo+xUs
gFbT3ec6j5gYFEsR2cQBH7l60NmtaREF9g6uX/zNxrPLTa6ORRgKqMBAESjczZ96
JmdaR4Cb2Uz32l9tE4MakZLRuUT3cmuXR3RxcIDT1nO/djNccLhvhzc+fo515QID
AQABo4IBhDCCAYAwHwYDVR0jBBgwFoAUDF6c/rpLIWwEHcJat+OIX1neTBIwHQYD
VR0OBBYEFA5rqoOpsk1chc2x0i+H9yDLNkM7MA4GA1UdDwEB/wQEAwIFoDAMBgNV
HRMBAf8EAjAAMBoGA1UdEQQTMBGCD3d3dy5leGFtcGxlLmNvbTBiBggrBgEFBQcB
AQRWMFQwKAYIKwYBBQUHMAKGHGh0dHA6Ly9jYS5leGFtcGxlLmNvbS9jYS5jcnQw
KAYIKwYBBQUHMAGGHGh0dHA6Ly9vY3NwLmV4YW1wbGUuY29tL29jc3AwWQYDVR0g
BFIwUDAHBgVngQwBATBFBgorBgEEAb1HDRgBMDcwNQYIKwYBBQUHAgEWKWh0dHA6
Ly93d3cudGVsZXNlYy5kZS9zZXJ2ZXJwYXNzL2Nwcy5odG1sMB0GA1UdJQQWMBQG
CCsGAQUFBwMBBggrBgEFBQcDAjAmBgVngQwDAQQdMBsMA05UUhMCREWABkhlc3Nl
bgwIMTIzNDU2NzgwDQYJKoZIhvcNAQELBQADggEBABiqTeP5rP9PJG5FWVMXO6bt
ZZMIix7o1H9jyLbLEh2RteCMFoxQTBVU/bF1RTDzVXNVpen+A8ow3MM+xdVaZI8z
KvtW5fjQiIysoABEXbPFqEVFgoaQzE1emwFAW8mMuLGGwJ5ZusJ+1FVeV6PZsGG5
G8TfxeDqSVIjerTJVPBhE+u92+REI7NLPizFQMvB8n/12bQtXdLfZZEyUVENztMX
LRRggfHGtMl0lPnPAdPov2vYFhfZWT6UwTSSVhWy1bdL4ZrDStmTzVtqvR+/3MEw
sp1d0lVtU/7SMK190i1TuilDKklKCQBawxVjjdMCDutnR+0RipD0kDmaPLxaoog=
-----END CERTIFICATE-----
