Certificate:
    Data:
        Version: 3 (0x2)
        Serial Number:
            03:8d:39:65:00:2d:56:57:d8:4e:4a:da:3d
        Signature Algorithm: sha256WithRSAEncryption
        Issuer: CN = Test SubCA 2, OU = Test, O = MTG, C = DE
        Validity
            Not Before: Nov  1 08:03:01 2019 GMT
            Not After : Nov  1 08:03:01 2020 GMT
        Subject: O = MTG, L = Darmstadt, ST = Hessen, C = DE, businessCategory = Private Organization, organizationIdentifier = VATDE-123456789, serialNumber = 123456789, jurisdictionC = DE
        Subject Public Key Info:
            Public Key Algorithm: rsaEncryption
                RSA Public-Key: (2048 bit)
                Modulus:
                    00:c2:0d:81:71:b4:94:05:bc:cf:99:8a:aa:62:08:
                    f2:2e:63:b2:1e:46:f9:2b:85:98:c3:83:d0:ce:26:
                    ad:76:8f:5c:e7:5b:05:20:25:26:32:19:c2:24:8a:
                    ba:69:a3:eb:ca:10:a4:f3:cf:b5:c6:1e:f6:70:58:
                    96:5b:88:52:6a:88:42:33:85:b8:c6:16:48:4f:01:
                    45:39:3f:e1:6a:b9:06:b5:ef:37:db:79:9e:50:90:
                    57:43:5b:8b:c3:35:0d:b3:41:f4:1b:c2:4a:7f:18:
                    3c:39:2d:4f:bf:2b:a5:71:07:73:33:00:e5:8d:36:
                    9e:fe:8f:72:c5:72:56:08:cc:86:b6:ef:ba:e2:fd:
                    9b:5c:c6:2d:94:ed:2d:64:24:77:e6:67:4d:62:db:
                    94:2e:29:8e:dd:1d:7a:ca:bc:68:fb:15:2c:80:56:
                    d3:dd:e7:3a:8f:98:18:14:4b:11:d9:c4:01:1f:b9:
                    7a:d0:d9:ad:69:11:05:f6:0e:ae:5f:fc:cd:c6:b3:
                    cb:4d:ae:8e:45:18:0a:a8:c0:40:11:28:dc:cd:9f:
                    7a:26:67:5a:47:80:9b:d9:4c:f7:da:5f:6d:13:83:
                    1a:91:92:d1:b9:44:f7:72:6b:97:47:74:71:70:80:
                    d3:d6:73:bf:76:33:5c:70:b8:6f:87:37:3e:7e:8e:
                    75:e5
                Exponent: 65537 (0x10001)
        X509v3 extensions:
            X509v3 Authority Key Identifier: 
                keyid:0C:5E:9C:FE:BA:4B:21:6C:04:1D:C2:5A:B7:E3:88:5F:59:DE:4C:12

            X509v3 Subject Key Identifier: 
                0E:6B:AA:83:A9:B2:4D:5C:85:CD:B1:D2:2F:87:F7:20:CB:36:43:3B
            X509v3 Key Usage: critical
                Digital Signature, Key Encipherment
            X509v3 Basic Constraints: critical
                CA:FALSE
            X509v3 Subject Alternative Name: 
                DNS:www.example.com
            Authority Information Access: 
                CA Issuers - URI:http://ca.example.com/ca.crt
                OCSP - URI:http://ocsp.example.com/ocsp

            X509v3 Certificate Policies: 
                Policy: 2.23.140.1.1
                Policy: 1.3.6.1.4.1.7879.13.24.1
                  CPS: http://www.telesec.de/serverpass/cps.html

            X509v3 Extended Key Usage: 
                TLS Web Server Authentication, TLS Web Client Authentication
    Signature Algorithm: sha256WithRSAEncryption
         80:8c:e7:19:a8:79:b1:5c:eb:e8:20:7d:f9:e1:22:15:b8:92:
         d4:0a:88:75:27:ba:9e:48:bf:b3:61:1e:bf:c6:32:06:68:7b:
         a2:2e:82:10:72:36:6d:8c:c3:a0:fb:7a:1b:0e:24:1f:66:7c:
         2a:67:3f:77:c9:d9:05:f2:49:e1:a7:79:06:c9:bb:7d:8f:88:
         38:2a:6e:c2:14:c5:23:fa:57:ee:be:96:3a:7a:a1:63:8f:b8:
         30:8a:be:1d:2d:22:d5:17:01:a2:d7:e4:a0:3c:d9:9e:c6:cd:
         b1:88:09:11:fe:35:98:bc:b9:65:ee:64:6d:df:cf:01:71:03:
         76:de:04:7a:82:b6:0d:55:ce:43:46:7e:60:9f:5b:f7:a8:8c:
         ab:b5:32:37:b5:71:21:2b:32:c1:a4:fe:59:9b:59:a2:2e:bd:
         ef:39:87:aa:79:70:aa:5d:4e:ff:1f:e8:29:1e:ca:49:21:11:
         3c:55:de:e8:12:e4:85:a3:40:2e:8c:bb:5c:23:9a:99:71:94:
         73:09:9b:e0:39:a4:c8:ef:eb:f4:ea:c1:2a:61:04:25:5b:24:
         1f:90:d8:e1:9a:78:db:8a:5e:2f:4f:5d:1a:19:2d:a1:cf:65:
         59:bd:11:d4:8c:b8:a5:63:28:42:3a:4a:17:ac:25:ed:13:d2:
         fe:a6:1b:fb
-----BEGIN CERTIFICATE-----
MIIE2DCCA8CgAwIBAgINA405ZQAtVlfYTkraPTANBgkqhkiG9w0BAQsFADBBMRUw
EwYDVQQDDAxUZXN0IFN1YkNBIDIxDTALBgNVBAsMBFRlc3QxDDAKBgNVBAoMA01U
RzELMAkGA1UEBhMCREUwHhcNMTkxMTAxMDgwMzAxWhcNMjAxMTAxMDgwMzAxWjCB
sTEMMAoGA1UECgwDTVRHMRIwEAYDVQQHDAlEYXJtc3RhZHQxDzANBgNVBAgMBkhl
c3NlbjELMAkGA1UEBhMCREUxHTAbBgNVBA8MFFByaXZhdGUgT3JnYW5pemF0aW9u
MScwJQYDVQRhHh4AVgBBAFQARABFAC0AMQAyADMANAA1ADYANwA4ADkxEjAQBgNV
BAUTCTEyMzQ1Njc4OTETMBEGCysGAQQBgjc8AgEDDAJERTCCASIwDQYJKoZIhvcN
AQEBBQADggEPADCCAQoCggEBAMINgXG0lAW8z5mKqmII8i5jsh5G+SuFmMOD0M4m
rXaPXOdbBSAlJjIZwiSKummj68oQpPPPtcYe9nBYlluIUmqIQjOFuMYWSE8BRTk/
4Wq5BrXvN9t5nlCQV0Nbi8M1DbNB9BvCSn8YPDktT78rpXEHczMA5Y02nv6PcsVy
VgjMhrbvuuL9m1zGLZTtLWQkd+ZnTWLblC4pjt0desq8aPsVLIBW093nOo+YGBRL
EdnEAR+5etDZrWkRBfYOrl/8zcazy02ujkUYCqjAQBEo3M2feiZnWkeAm9lM99pf
bRODGpGS0blE93Jrl0d0cXCA09Zzv3YzXHC4b4c3Pn6OdeUCAwEAAaOCAVwwggFY
MB8GA1UdIwQYMBaAFAxenP66SyFsBB3CWrfjiF9Z3kwSMB0GA1UdDgQWBBQOa6qD
qbJNXIXNsdIvh/cgyzZDOzAOBgNVHQ8BAf8EBAMCBaAwDAYDVR0TAQH/BAIwADAa
BgNVHREEEzARgg93d3cuZXhhbXBsZS5jb20wYgYIKwYBBQUHAQEEVjBUMCgGCCsG
AQUFBzAChhxodHRwOi8vY2EuZXhhbXBsZS5jb20vY2EuY3J0MCgGCCsGAQUFBzAB
hhxodHRwOi8vb2NzcC5leGFtcGxlLmNvbS9vY3NwMFkGA1UdIARSMFAwBwYFZ4EM
AQEwRQYKKwYBBAG9Rw0YATA3MDUGCCsGAQUFBwIBFilodHRwOi8vd3d3LnRlbGVz
ZWMuZGUvc2VydmVycGFzcy9jcHMuaHRtbDAdBgNVHSUEFjAUBggrBgEFBQcDAQYI
KwYBBQUHAwIwDQYJKoZIhvcNAQELBQADggEBAICM5xmoebFc6+ggffnhIhW4ktQK
iHUnup5Iv7NhHr/GMgZoe6IughByNm2Mw6D7ehsOJB9mfCpnP3fJ2QXySeGneQbJ
u32PiDgqbsIUxSP6V+6+ljp6oWOPuDCKvh0tItUXAaLX5KA82Z7GzbGICRH+NZi8
uWXuZG3fzwFxA3beBHqCtg1VzkNGfmCfW/eojKu1Mje1cSErMsGk/lmbWaIuve85
h6p5cKpdTv8f6CkeykkhETxV3ugS5IWjQC6Mu1wjmplxlHMJm+A5pMjv6/TqwSph
BCVbJB+Q2OGaeNuKXi9PXRoZLaHPZVm9EdSMuKVjKEI6ShesJe0T0v6mG/s=
-----END CERTIFICATE-----
