Certificate:
    Data:
        Version: 3 (0x2)
        Serial Number:
            0d:83:79:50:b6:92:f6:1a:98:df:36:af:60
        Signature Algorithm: sha256WithRSAEncryption
        Issuer: CN = Test SubCA 2, OU = Test, O = MTG, C = DE
        Validity
            Not Before: Nov  1 08:03:01 2019 GMT
            Not After : Nov  1 08:03:01 2020 GMT
        Subject: O = MTG, L = Darmstadt, ST = Hessen, C = DE, businessCategory = Private Organization, organizationIdentifier = "NTRDE+HE-12345678", serialNumber = 12345678, jurisdictionC = DE, jurisdictionST = Hessen
        Subject Public Key Info:
            Public Key Algorithm: rsaEncryption
                RSA Public-Key: (2048 bit)
                Modulus:
                    00:c2:0d:81:71:b4:94:05:bc:cf:99:8a:aa:62:08:
                    f2:2e:63:b2:1e:46:f9:2b:85:98:c3:83:d0:ce:26:
                    ad:76:8f:5c:e7:5b:05:20:25:26:32:19:c2:24:8a:
                    ba:69:a3:eb:ca:10:a4:f3:cf:b5:c6:1e:f6:70:58:
                    96:5b:88:52:6a:88:42:33:85:b8:c6:16:48:4f:01:
                    45:39:3f:e1:6a:b9:06:b5:ef:37:db:79:9e:50:90:
                    57:43:5b:8b:c3:35:0d:b3:41:f4:1b:c2:4a:7f:18:
                    3c:39:2d:4f:bf:2b:a5:71:07:73:33:00:e5:8d:36:
                    9e:fe:8f:72:c5:72:56:08:cc:86:b6:ef:ba:e2:fd:
                    9b:5c:c6:2d:94:ed:2d:64:24:77:e6:67:4d:62:db:
                    94:2e:29:8e:dd:1d:7a:ca:bc:68:fb:15:2c:80:56:
                    d3:dd:e7:3a:8f:98:18:14:4b:11:d9:c4:01:1f:b9:
                    7a:d0:d9:ad:69:11:05:f6:0e:ae:5f:fc:cd:c6:b3:
                    cb:4d:ae:8e:45:18:0a:a8:c0:40:11:28:dc:cd:9f:
                    7a:26:67:5a:47:80:9b:d9:4c:f7:da:5f:6d:13:83:
                    1a:91:92:d1:b9:44:f7:72:6b:97:47:74:71:70:80:
                    d3:d6:73:bf:76:33:5c:70:b8:6f:87:37:3e:7e:8e:
                    75:e5
                Exponent: 65537 (0x10001)
        X509v3 extensions:
            X509v3 Authority Key Identifier: 
                keyid:0C:5E:9C:FE:BA:4B:21:6C:04:1D:C2:5A:B7:E3:88:5F:59:DE:4C:12

            X509v3 Subject Key Identifier: 
                0E:6B:AA:83:A9:B2:4D:5C:85:CD:B1:D2:2F:87:F7:20:CB:36:43:3B
            X509v3 Key Usage: critical
                Digital Signature, Key Encipherment
            X509v3 Basic Constraints: critical
                CA:FALSE
            X509v3 Subject Alternative Name: 
                DNS:www.example.com
            Authority Information Access: 
                CA Issuers - URI:http://ca.example.com/ca.crt
                OCSP - URI:http://ocsp.example.com/ocsp

            X509v3 Certificate Policies: 
                Policy: 2.23.140.1.1
                Policy: 1.3.6.1.4.1.7879.13.24.1
                  CPS: http://www.telesec.de/serverpass/cps.html

            X509v3 Extended Key Usage: 
                TLS Web Server Authentication, TLS Web Client Authentication
            2.23.140.3.1: 
                0...NTR..DE..Hessen..12345678
    Signature Algorithm: sha256WithRSAEncryption
         49:7b:b7:a7:46:9e:a6:6f:cf:50:a2:4e:9c:f5:5d:1d:b0:cd:
         22:55:7b:28:4e:08:aa:b1:dc:1f:4a:86:20:aa:53:e2:2d:13:
         2f:8e:f0:ef:b5:52:18:d0:11:01:dc:42:d4:b3:d8:03:52:52:
         e8:36:52:58:73:45:bf:22:e1:08:66:1e:e7:73:bf:9e:09:ee:
         d5:cd:36:22:14:89:dc:dc:8e:96:dc:3e:32:c6:ae:cc:ea:92:
         11:f3:e8:e0:2b:2d:17:ac:b1:7e:a2:e0:9c:c9:74:4a:b8:59:
         1d:ff:9f:6e:48:cc:a9:5a:78:da:65:69:56:76:46:7e:5f:fc:
         42:9f:c8:4a:c0:27:71:31:2b:27:1a:6c:53:74:49:8a:30:56:
         17:d5:ad:e2:66:14:8f:fc:38:a7:f1:58:3e:f6:df:91:18:26:
         2e:9f:5f:a4:41:42:f1:67:a0:67:0f:ea:0a:88:8b:0d:3a:74:
         73:02:74:15:6d:e2:c0:34:e2:09:fe:5c:0c:75:55:0c:95:44:
         08:57:42:0c:a4:2a:d5:f6:93:1f:ef:0e:bc:d6:6f:b3:5c:e7:
         28:8d:da:24:26:43:33:7c:71:ba:dc:7f:1e:72:fb:22:1a:7c:
         0e:20:23:2b:31:c2:6f:f7:79:6e:38:03:4f:d9:35:0d:9d:f5:
         7f:7c:87:29
-----BEGIN CERTIFICATE-----
MIIFCzCCA/OgAwIBAgINDYN5ULaS9hqY3zavYDANBgkqhkiG9w0BAQsFADBBMRUw
EwYDVQQDDAxUZXN0IFN1YkNBIDIxDTALBgNVBAsMBFRlc3QxDDAKBgNVBAoMA01U
RzELMAkGA1UEBhMCREUwHhcNMTkxMTAxMDgwMzAxWhcNMjAxMTAxMDgwMzAxWjCB
vDEMMAoGA1UECgwDTVRHMRIwEAYDVQQHDAlEYXJtc3RhZHQxDzANBgNVBAgMBkhl
c3NlbjELMAkGA1UEBhMCREUxHTAbBgNVBA8MFFByaXZhdGUgT3JnYW5pemF0aW9u
MRowGAYDVQRhDBFOVFJERStIRS0xMjM0NTY3ODERMA8GA1UEBRMIMTIzNDU2Nzgx
EzARBgsrBgEEAYI3PAIBAwwCREUxFzAVBgsrBgEEAYI3PAIBAgwGSGVzc2VuMIIB
IjANBgkqhkiG9w0BAQEFAAOCAQ8AMIIBCgKCAQEAwg2BcbSUBbzPmYqqYgjyLmOy
Hkb5K4WYw4PQziatdo9c51sFICUmMhnCJIq6aaPryhCk88+1xh72cFiWW4hSaohC
M4W4xhZITwFFOT/harkGte8323meUJBXQ1uLwzUNs0H0G8JKfxg8OS1PvyulcQdz
MwDljTae/o9yxXJWCMyGtu+64v2bXMYtlO0tZCR35mdNYtuULimO3R16yrxo+xUs
gFbT3ec6j5gYFEsR2cQBH7l60NmtaREF9g6uX/zNxrPLTa6ORRgKqMBAESjczZ96
JmdaR4Cb2Uz32l9tE4MakZLRuUT3cmuXR3RxcIDT1nO/djNccLhvhzc+fo515QID
AQABo4IBhDCCAYAwHwYDVR0jBBgwFoAUDF6c/rpLIWwEHcJat+OIX1neTBIwHQYD
VR0OBBYEFA5rqoOpsk1chc2x0i+H9yDLNkM7MA4GA1UdDwEB/wQEAwIFoDAMBgNV
HRMBAf8EAjAAMBoGA1UdEQQTMBGCD3d3dy5leGFtcGxlLmNvbTBiBggrBgEFBQcB
AQRWMFQwKAYIKwYBBQUHMAKGHGh0dHA6Ly9jYS5leGFtcGxlLmNvbS9jYS5jcnQw
KAYIKwYBBQUHMAGGHGh0dHA6Ly9vY3NwLmV4YW1wbGUuY29tL29jc3AwWQYDVR0g
BFIwUDAHBgVngQwBATBFBgorBgEEAb1HDRgBMDcwNQYIKwYBBQUHAgEWKWh0dHA6
Ly93d3cudGVsZXNlYy5kZS9zZXJ2ZXJwYXNzL2Nwcy5odG1sMB0GA1UdJQQWMBQG
CCsGAQUFBwMBBggrBgEFBQcDAjAmBgVngQwDAQQdMBsTA05UUhMCREUTBkhlc3Nl
bgwIMTIzNDU2NzgwDQYJKoZIhvcNAQELBQADggEBAEl7t6dGnqZvz1CiTpz1XR2w
zSJVeyhOCKqx3B9KhiCqU+ItEy+O8O+1UhjQEQHcQtSz2ANSUug2UlhzRb8i4Qhm
Hudzv54J7tXNNiIUidzcjpbcPjLGrszqkhHz6OArLRessX6i4JzJdEq4WR3/n25I
zKlaeNplaVZ2Rn5f/EKfyErAJ3ExKycabFN0SYowVhfVreJmFI/8OKfxWD7235EY
Ji6fX6RBQvFnoGcP6gqIiw06dHMCdBVt4sA04gn+XAx1VQyVRAhXQgykKtX2kx/v
DrzWb7Nc5yiN2iQmQzN8cbrcfx5y+yIafA4gIysxwm/3eW44A0/ZNQ2d9X98hyk=
-----END CERTIFICATE-----
