Certificate:
    Data:
        Version: 3 (0x2)
        Serial Number:
            39:d9:e6:c2:c6:79:05:4f:e3:29:ec:25
        Signature Algorithm: sha256WithRSAEncryption
        Issuer: CN = Test SubCA 2, OU = Test, O = MTG, C = DE
        Validity
            Not Before: Jan 24 04:16:05 2020 GMT
            Not After : Jan 24 04:16:05 2021 GMT
        Subject: O = MTG, L = Darmstadt, ST = Hessen, C = DE, businessCategory = Private Organization, organizationIdentifier = LEIXG-1234-1234
        Subject Public Key Info:
            Public Key Algorithm: rsaEncryption
                RSA Public-Key: (2048 bit)
                Modulus:
                    00:a3:92:21:47:e2:8f:2c:46:0f:44:dc:65:c5:6e:
                    08:ef:64:89:ff:f6:cb:a6:46:2a:61:b1:e6:8d:7f:
                    dc:84:cf:30:5b:da:9a:5d:49:03:8f:ef:07:46:c6:
                    b1:9f:00:5c:96:39:d8:68:9e:35:95:a3:5e:56:57:
                    94:f0:a3:77:35:2d:f3:d2:d4:4b:e1:5e:b6:89:b4:
                    25:1b:0d:c5:a5:24:d2:6c:c8:e4:59:45:83:bc:29:
                    06:df:6e:ca:04:63:bc:c5:cd:97:77:38:8a:b5:3a:
                    f2:7a:d8:5c:9f:f6:d5:66:f9:98:75:9c:29:c3:b6:
                    21:6b:77:f5:d7:09:b1:5f:0f:04:8f:5d:74:68:ef:
                    2a:32:e6:fb:94:1c:e5:31:7d:6e:3f:4a:bc:2f:42:
                    b5:95:57:8f:92:36:16:88:58:c6:d4:5c:df:01:37:
                    41:b2:f1:26:f1:ac:7e:26:b6:1f:dd:34:5b:5b:64:
                    d6:67:c9:7e:45:53:cf:53:a8:48:f4:bf:0b:40:dc:
                    24:ca:27:4a:7b:52:50:3d:99:93:58:27:66:30:42:
                    53:dd:a5:c9:0c:05:09:5a:36:c9:95:ba:6a:5a:78:
                    20:ab:19:5b:e1:4b:24:70:d1:39:4e:98:d4:73:12:
                    1f:92:b9:aa:11:08:c3:a7:e2:8a:5b:f1:b9:17:a5:
                    19:13
                Exponent: 65537 (0x10001)
        X509v3 extensions:
            X509v3 Authority Key Identifier: 
                keyid:2D:BA:96:10:6A:75:0E:80:21:5D:49:3E:B1:ED:60:98:EF:A4:78:44

            X509v3 Subject Key Identifier: 
                C5:08:A2:06:A7:80:21:09:19:48:62:5D:8D:50:90:C5:99:96:12:65
            X509v3 Key Usage: critical
                Digital Signature, Key Encipherment
            X509v3 Basic Constraints: critical
                CA:FALSE
            X509v3 Subject Alternative Name: 
                DNS:www.example.com
            Authority Information Access: 
                CA Issuers - URI:http://ca.example.com/ca.crt
                OCSP - URI:http://ocsp.example.com/ocsp

            X509v3 Certificate Policies: 
                Policy: 2.23.140.1.1
                Policy: 1.3.6.1.4.1.7879.13.24.1
                  CPS: http://www.telesec.de/serverpass/cps.html

            X509v3 Extended Key Usage: 
                TLS Web Server Authentication, TLS Web Client Authentication
    Signature Algorithm: sha256WithRSAEncryption
         4d:5a:e3:92:91:bc:b5:c3:10:08:18:4d:52:8b:9a:76:c9:bd:
         93:85:b8:e2:d3:b5:b4:0e:e2:c7:1e:08:24:58:78:1e:ab:da:
         57:60:64:33:e1:d4:38:8c:c5:82:c6:d8:22:8d:0a:d7:d6:a7:
         95:8b:4c:14:e5:af:44:c0:ff:b6:68:b2:c6:87:d2:bb:64:a5:
         bd:47:03:4c:1c:ae:a1:1b:a7:55:28:08:b1:27:45:9b:c3:84:
         4c:0a:a6:89:dd:cf:ff:b4:93:eb:a7:39:16:7e:66:31:53:5e:
         5b:42:b4:ab:cb:34:6e:51:aa:4b:5c:64:32:b3:02:8e:47:f5:
         21:f8:af:0a:9d:64:d7:b3:2e:65:06:c0:0f:55:23:8d:94:03:
         d0:3f:08:9e:12:7f:14:8a:2f:18:93:24:be:51:b1:c7:56:55:
         b1:bc:41:8a:17:47:07:1e:d5:6c:51:0c:7a:11:7d:a2:14:6c:
         86:bb:23:81:42:e8:ce:48:2c:df:ed:44:bb:6c:4e:a6:82:83:
         cd:56:fb:7e:44:8a:ee:17:4c:25:62:00:4f:e1:0e:4e:da:5d:
         dd:da:02:40:e1:0f:fb:9b:53:57:00:27:ec:d6:89:b8:01:9a:
         8c:75:1c:9e:de:1c:a0:34:b3:bc:b6:30:7b:49:3b:7f:70:db:
         a1:71:73:75
-----BEGIN CERTIFICATE-----
MIIEnjCCA4agAwIBAgIMOdnmwsZ5BU/jKewlMA0GCSqGSIb3DQEBCwUAMEExFTAT
BgNVBAMMDFRlc3QgU3ViQ0EgMjENMAsGA1UECwwEVGVzdDEMMAoGA1UECgwDTVRH
MQswCQYDVQQGEwJERTAeFw0yMDAxMjQwNDE2MDVaFw0yMTAxMjQwNDE2MDVaMHkx
DDAKBgNVBAoMA01URzESMBAGA1UEBwwJRGFybXN0YWR0MQ8wDQYDVQQIDAZIZXNz
ZW4xCzAJBgNVBAYTAkRFMR0wGwYDVQQPDBRQcml2YXRlIE9yZ2FuaXphdGlvbjEY
MBYGA1UEYQwPTEVJWEctMTIzNC0xMjM0MIIBIjANBgkqhkiG9w0BAQEFAAOCAQ8A
MIIBCgKCAQEAo5IhR+KPLEYPRNxlxW4I72SJ//bLpkYqYbHmjX/chM8wW9qaXUkD
j+8HRsaxnwBcljnYaJ41laNeVleU8KN3NS3z0tRL4V62ibQlGw3FpSTSbMjkWUWD
vCkG327KBGO8xc2XdziKtTryethcn/bVZvmYdZwpw7Yha3f11wmxXw8Ej110aO8q
Mub7lBzlMX1uP0q8L0K1lVePkjYWiFjG1FzfATdBsvEm8ax+JrYf3TRbW2TWZ8l+
RVPPU6hI9L8LQNwkyidKe1JQPZmTWCdmMEJT3aXJDAUJWjbJlbpqWnggqxlb4Usk
cNE5TpjUcxIfkrmqEQjDp+KKW/G5F6UZEwIDAQABo4IBXDCCAVgwHwYDVR0jBBgw
FoAULbqWEGp1DoAhXUk+se1gmO+keEQwHQYDVR0OBBYEFMUIogangCEJGUhiXY1Q
kMWZlhJlMA4GA1UdDwEB/wQEAwIFoDAMBgNVHRMBAf8EAjAAMBoGA1UdEQQTMBGC
D3d3dy5leGFtcGxlLmNvbTBiBggrBgEFBQcBAQRWMFQwKAYIKwYBBQUHMAKGHGh0
dHA6Ly9jYS5leGFtcGxlLmNvbS9jYS5jcnQwKAYIKwYBBQUHMAGGHGh0dHA6Ly9v
Y3NwLmV4YW1wbGUuY29tL29jc3AwWQYDVR0gBFIwUDAHBgVngQwBATBFBgorBgEE
Ab1HDRgBMDcwNQYIKwYBBQUHAgEWKWh0dHA6Ly93d3cudGVsZXNlYy5kZS9zZXJ2
ZXJwYXNzL2Nwcy5odG1sMB0GA1UdJQQWMBQGCCsGAQUFBwMBBggrBgEFBQcDAjAN
BgkqhkiG9w0BAQsFAAOCAQEATVrjkpG8tcMQCBhNUouadsm9k4W44tO1tA7ixx4I
JFh4HqvaV2BkM+HUOIzFgsbYIo0K19anlYtMFOWvRMD/tmiyxofSu2SlvUcDTByu
oRunVSgIsSdFm8OETAqmid3P/7ST66c5Fn5mMVNeW0K0q8s0blGqS1xkMrMCjkf1
IfivCp1k17MuZQbAD1UjjZQD0D8InhJ/FIovGJMkvlGxx1ZVsbxBihdHBx7VbFEM
ehF9ohRshrsjgULozkgs3+1Eu2xOpoKDzVb7fkSK7hdMJWIAT+EOTtpd3doCQOEP
+5tTVwAn7NaJuAGajHUcnt4coDSzvLYwe0k7f3DboXFzdQ==
-----END CERTIFICATE-----
