Certificate:
    Data:
        Version: 3 (0x2)
        Serial Number:
            0d:1e:5b:c1:96:7b:0a:77:2c:bb:a8:a7:90
        Signature Algorithm: sha256WithRSAEncryption
        Issuer: CN = Test SubCA 2, OU = Test, O = MTG, C = DE
        Validity
            Not Before: Nov  1 08:03:01 2019 GMT
            Not After : Nov  1 08:03:01 2020 GMT
        Subject: OU = Test, O = MTG, L = Darmstadt, ST = Hessen, C = DE, organizationIdentifier = PSDDE-BAFIN-1234567890
        Subject Public Key Info:
            Public Key Algorithm: rsaEncryption
                RSA Public-Key: (2048 bit)
                Modulus:
                    00:c2:0d:81:71:b4:94:05:bc:cf:99:8a:aa:62:08:
                    f2:2e:63:b2:1e:46:f9:2b:85:98:c3:83:d0:ce:26:
                    ad:76:8f:5c:e7:5b:05:20:25:26:32:19:c2:24:8a:
                    ba:69:a3:eb:ca:10:a4:f3:cf:b5:c6:1e:f6:70:58:
                    96:5b:88:52:6a:88:42:33:85:b8:c6:16:48:4f:01:
                    45:39:3f:e1:6a:b9:06:b5:ef:37:db:79:9e:50:90:
                    57:43:5b:8b:c3:35:0d:b3:41:f4:1b:c2:4a:7f:18:
                    3c:39:2d:4f:bf:2b:a5:71:07:73:33:00:e5:8d:36:
                    9e:fe:8f:72:c5:72:56:08:cc:86:b6:ef:ba:e2:fd:
                    9b:5c:c6:2d:94:ed:2d:64:24:77:e6:67:4d:62:db:
                    94:2e:29:8e:dd:1d:7a:ca:bc:68:fb:15:2c:80:56:
                    d3:dd:e7:3a:8f:98:18:14:4b:11:d9:c4:01:1f:b9:
                    7a:d0:d9:ad:69:11:05:f6:0e:ae:5f:fc:cd:c6:b3:
                    cb:4d:ae:8e:45:18:0a:a8:c0:40:11:28:dc:cd:9f:
                    7a:26:67:5a:47:80:9b:d9:4c:f7:da:5f:6d:13:83:
                    1a:91:92:d1:b9:44:f7:72:6b:97:47:74:71:70:80:
                    d3:d6:73:bf:76:33:5c:70:b8:6f:87:37:3e:7e:8e:
                    75:e5
                Exponent: 65537 (0x10001)
        X509v3 extensions:
            X509v3 Authority Key Identifier: 
                keyid:0C:5E:9C:FE:BA:4B:21:6C:04:1D:C2:5A:B7:E3:88:5F:59:DE:4C:12

            X509v3 Subject Key Identifier: 
                0E:6B:AA:83:A9:B2:4D:5C:85:CD:B1:D2:2F:87:F7:20:CB:36:43:3B
            X509v3 Key Usage: critical
                Digital Signature, Key Encipherment
            X509v3 Basic Constraints: critical
                CA:FALSE
            X509v3 Subject Alternative Name: 
                DNS:www.example.com
            Authority Information Access: 
                CA Issuers - URI:http://ca.example.com/ca.crt
                OCSP - URI:http://ocsp.example.com/ocsp

            X509v3 Certificate Policies: 
                Policy: 0.4.0.194112.1.4
                Policy: 0.4.0.19495.3.1

            X509v3 Extended Key Usage: 
                TLS Web Server Authentication, TLS Web Client Authentication
            qcStatements: 
                0o0......F..0......F..0......F...0...+.......0.......I..07......'.0-0.0.......'....PSP_AS.National Bank..XX-BANK
    Signature Algorithm: sha256WithRSAEncryption
         08:5b:f4:2c:f8:e4:90:90:3c:12:54:f0:38:d1:ee:e2:62:b0:
         23:27:ef:d4:37:3e:ef:93:6e:79:91:db:d6:e5:93:2c:7f:c7:
         0d:d9:ba:e9:f0:81:e3:57:af:c8:5b:ef:e7:ca:44:17:d7:3e:
         bb:4f:c3:fd:83:b6:77:42:21:be:76:85:b5:cc:f7:c3:98:a0:
         31:72:8c:8d:e3:1e:19:32:95:c7:b4:7f:21:0c:ad:44:c6:91:
         c8:7a:dc:0b:08:f7:d2:76:f9:63:f0:db:d8:48:fe:d4:43:a3:
         2a:17:f4:1e:a8:60:53:07:c3:21:00:d0:49:fc:5b:3a:21:96:
         19:89:d6:90:51:53:70:15:79:93:81:da:22:30:8f:83:f8:c8:
         c4:b0:e8:6c:ce:fc:98:95:14:aa:a2:14:d4:54:9b:84:dc:ed:
         b8:16:0f:23:89:86:a9:e6:2b:46:c2:e4:54:a1:0f:c3:30:72:
         77:01:8b:c6:17:ae:da:ce:0b:78:62:28:8e:19:33:65:55:cc:
         4b:54:a3:03:1a:e2:8b:cf:0e:f5:be:95:8c:73:59:1c:06:08:
         55:ec:f3:21:7f:60:1c:a1:28:3e:67:ed:87:63:f5:3b:46:bc:
         b0:98:f3:d0:6c:23:79:6f:a9:d6:b5:f4:86:70:0a:7e:f4:c5:
         d9:44:91:40
-----BEGIN CERTIFICATE-----
MIIE2zCCA8OgAwIBAgINDR5bwZZ7Cncsu6inkDANBgkqhkiG9w0BAQsFADBBMRUw
EwYDVQQDDAxUZXN0IFN1YkNBIDIxDTALBgNVBAsMBFRlc3QxDDAKBgNVBAoMA01U
RzELMAkGA1UEBhMCREUwHhcNMTkxMTAxMDgwMzAxWhcNMjAxMTAxMDgwMzAxWjBw
MQ0wCwYDVQQLDARUZXN0MQwwCgYDVQQKDANNVEcxEjAQBgNVBAcMCURhcm1zdGFk
dDEPMA0GA1UECAwGSGVzc2VuMQswCQYDVQQGEwJERTEfMB0GA1UEYQwWUFNEREUt
QkFGSU4tMTIzNDU2Nzg5MDCCASIwDQYJKoZIhvcNAQEBBQADggEPADCCAQoCggEB
AMINgXG0lAW8z5mKqmII8i5jsh5G+SuFmMOD0M4mrXaPXOdbBSAlJjIZwiSKummj
68oQpPPPtcYe9nBYlluIUmqIQjOFuMYWSE8BRTk/4Wq5BrXvN9t5nlCQV0Nbi8M1
DbNB9BvCSn8YPDktT78rpXEHczMA5Y02nv6PcsVyVgjMhrbvuuL9m1zGLZTtLWQk
d+ZnTWLblC4pjt0desq8aPsVLIBW093nOo+YGBRLEdnEAR+5etDZrWkRBfYOrl/8
zcazy02ujkUYCqjAQBEo3M2feiZnWkeAm9lM99pfbRODGpGS0blE93Jrl0d0cXCA
09Zzv3YzXHC4b4c3Pn6OdeUCAwEAAaOCAaEwggGdMB8GA1UdIwQYMBaAFAxenP66
SyFsBB3CWrfjiF9Z3kwSMB0GA1UdDgQWBBQOa6qDqbJNXIXNsdIvh/cgyzZDOzAO
BgNVHQ8BAf8EBAMCBaAwDAYDVR0TAQH/BAIwADAaBgNVHREEEzARgg93d3cuZXhh
bXBsZS5jb20wYgYIKwYBBQUHAQEEVjBUMCgGCCsGAQUFBzAChhxodHRwOi8vY2Eu
ZXhhbXBsZS5jb20vY2EuY3J0MCgGCCsGAQUFBzABhhxodHRwOi8vb2NzcC5leGFt
cGxlLmNvbS9vY3NwMB8GA1UdIAQYMBYwCQYHBACL7EABBDAJBgcEAIGYJwMBMB0G
A1UdJQQWMBQGCCsGAQUFBwMBBggrBgEFBQcDAjB9BggrBgEFBQcBAwRxMG8wCAYG
BACORgEBMBMGBgQAjkYBBjAJBgcEAI5GAQYDMBUGCCsGAQUFBwsCMAkGBwQAi+xJ
AQIwNwYGBACBmCcCMC0wEzARBgcEAIGYJwEBDAZQU1BfQVMMDU5hdGlvbmFsIEJh
bmsMB1hYLUJBTkswDQYJKoZIhvcNAQELBQADggEBAAhb9Cz45JCQPBJU8DjR7uJi
sCMn79Q3Pu+TbnmR29blkyx/xw3ZuunwgeNXr8hb7+fKRBfXPrtPw/2DtndCIb52
hbXM98OYoDFyjI3jHhkylce0fyEMrUTGkch63AsI99J2+WPw29hI/tRDoyoX9B6o
YFMHwyEA0En8WzohlhmJ1pBRU3AVeZOB2iIwj4P4yMSw6GzO/JiVFKqiFNRUm4Tc
7bgWDyOJhqnmK0bC5FShD8MwcncBi8YXrtrOC3hiKI4ZM2VVzEtUowMa4ovPDvW+
lYxzWRwGCFXs8yF/YByhKD5n7Ydj9TtGvLCY89BsI3lvqda19IZwCn70xdlEkUA=
-----END CERTIFICATE-----
