Certificate:
    Data:
        Version: 3 (0x2)
        Serial Number:
            0b:53:41:c2:95:4a:44:e9:3f:92:61:bc:73
        Signature Algorithm: sha256WithRSAEncryption
        Issuer: CN = Test SubCA 2, OU = Test, O = MTG, C = DE
        Validity
            Not Before: Nov  1 08:03:00 2019 GMT
            Not After : Nov  1 08:03:00 2020 GMT
        Subject: O = MTG, OU = Test, L = Darmstadt, ST = Hessen, C = DE, organizationIdentifier = VAT-0876866142
        Subject Public Key Info:
            Public Key Algorithm: rsaEncryption
                RSA Public-Key: (2048 bit)
                Modulus:
                    00:c2:0d:81:71:b4:94:05:bc:cf:99:8a:aa:62:08:
                    f2:2e:63:b2:1e:46:f9:2b:85:98:c3:83:d0:ce:26:
                    ad:76:8f:5c:e7:5b:05:20:25:26:32:19:c2:24:8a:
                    ba:69:a3:eb:ca:10:a4:f3:cf:b5:c6:1e:f6:70:58:
                    96:5b:88:52:6a:88:42:33:85:b8:c6:16:48:4f:01:
                    45:39:3f:e1:6a:b9:06:b5:ef:37:db:79:9e:50:90:
                    57:43:5b:8b:c3:35:0d:b3:41:f4:1b:c2:4a:7f:18:
                    3c:39:2d:4f:bf:2b:a5:71:07:73:33:00:e5:8d:36:
                    9e:fe:8f:72:c5:72:56:08:cc:86:b6:ef:ba:e2:fd:
                    9b:5c:c6:2d:94:ed:2d:64:24:77:e6:67:4d:62:db:
                    94:2e:29:8e:dd:1d:7a:ca:bc:68:fb:15:2c:80:56:
                    d3:dd:e7:3a:8f:98:18:14:4b:11:d9:c4:01:1f:b9:
                    7a:d0:d9:ad:69:11:05:f6:0e:ae:5f:fc:cd:c6:b3:
                    cb:4d:ae:8e:45:18:0a:a8:c0:40:11:28:dc:cd:9f:
                    7a:26:67:5a:47:80:9b:d9:4c:f7:da:5f:6d:13:83:
                    1a:91:92:d1:b9:44:f7:72:6b:97:47:74:71:70:80:
                    d3:d6:73:bf:76:33:5c:70:b8:6f:87:37:3e:7e:8e:
                    75:e5
                Exponent: 65537 (0x10001)
        X509v3 extensions:
            X509v3 Authority Key Identifier: 
                keyid:0C:5E:9C:FE:BA:4B:21:6C:04:1D:C2:5A:B7:E3:88:5F:59:DE:4C:12

            X509v3 Subject Key Identifier: 
                0E:6B:AA:83:A9:B2:4D:5C:85:CD:B1:D2:2F:87:F7:20:CB:36:43:3B
            X509v3 Key Usage: critical
                Digital Signature, Key Encipherment
            X509v3 Basic Constraints: critical
                CA:FALSE
            X509v3 Subject Alternative Name: 
                DNS:www.example.com
            Authority Information Access: 
                CA Issuers - URI:http://ca.example.com/ca.crt
                OCSP - URI:http://ocsp.example.com/ocsp

            X509v3 Certificate Policies: 
                Policy: 0.4.0.194112.1.4
                Policy: 0.4.0.19495.3.1

            X509v3 Extended Key Usage: 
                TLS Web Server Authentication, TLS Web Client Authentication
            qcStatements: 
                0..0......F..0......F..0......F...0...+.......0.......I..0P......'.0F0.0.......'....PSP_IC.'Federal Financial Supervisory Authority..GB-FCA
    Signature Algorithm: sha256WithRSAEncryption
         67:19:05:91:3b:45:f6:2e:b6:8f:7c:6b:bc:eb:42:3f:b7:c3:
         60:21:39:87:d6:e0:01:b2:e0:40:9f:cf:73:cc:c8:b6:cd:78:
         15:65:75:3a:07:43:30:4d:d1:5f:45:d6:bf:52:f5:8f:f8:a9:
         3c:f8:c4:2c:b7:0f:3f:c4:67:9d:b4:f4:f2:92:16:2e:8f:a1:
         f9:f2:2f:5e:4f:4f:2c:87:cf:ea:e1:31:67:dd:9a:35:d7:07:
         dc:14:af:aa:6f:e5:c6:ae:6d:30:d0:d8:32:63:03:51:23:b8:
         46:95:5a:86:03:37:7e:08:0b:83:9a:98:b1:e3:5e:b2:ac:75:
         48:59:01:0a:10:63:ec:98:23:9b:4e:d6:64:d7:43:17:8a:85:
         1b:08:32:67:23:e3:16:95:9e:f8:38:50:7e:db:5a:56:12:18:
         a0:50:f1:bc:e4:f4:2e:4d:64:5a:cc:84:0f:fc:e7:cc:ce:c9:
         39:79:9c:54:4a:41:08:15:ef:93:f4:b3:1d:0b:9c:47:a2:95:
         7a:0b:f8:c1:5b:92:ac:45:16:e0:99:48:f5:ee:4a:d2:3a:5d:
         cd:e8:a8:35:0f:15:37:32:16:b7:a7:4f:e0:5c:fd:7d:f2:ff:
         8b:fe:94:c4:a0:1e:01:1b:1f:d6:0f:73:d2:4f:ea:09:88:57:
         88:04:fc:02
-----BEGIN CERTIFICATE-----
MIIE7zCCA9egAwIBAgINC1NBwpVKROk/kmG8czANBgkqhkiG9w0BAQsFADBBMRUw
EwYDVQQDDAxUZXN0IFN1YkNBIDIxDTALBgNVBAsMBFRlc3QxDDAKBgNVBAoMA01U
RzELMAkGA1UEBhMCREUwHhcNMTkxMTAxMDgwMzAwWhcNMjAxMTAxMDgwMzAwWjBo
MQwwCgYDVQQKDANNVEcxDTALBgNVBAsMBFRlc3QxEjAQBgNVBAcMCURhcm1zdGFk
dDEPMA0GA1UECAwGSGVzc2VuMQswCQYDVQQGEwJERTEXMBUGA1UEYQwOVkFULTA4
NzY4NjYxNDIwggEiMA0GCSqGSIb3DQEBAQUAA4IBDwAwggEKAoIBAQDCDYFxtJQF
vM+ZiqpiCPIuY7IeRvkrhZjDg9DOJq12j1znWwUgJSYyGcIkirppo+vKEKTzz7XG
HvZwWJZbiFJqiEIzhbjGFkhPAUU5P+FquQa17zfbeZ5QkFdDW4vDNQ2zQfQbwkp/
GDw5LU+/K6VxB3MzAOWNNp7+j3LFclYIzIa277ri/Ztcxi2U7S1kJHfmZ01i25Qu
KY7dHXrKvGj7FSyAVtPd5zqPmBgUSxHZxAEfuXrQ2a1pEQX2Dq5f/M3Gs8tNro5F
GAqowEARKNzNn3omZ1pHgJvZTPfaX20TgxqRktG5RPdya5dHdHFwgNPWc792M1xw
uG+HNz5+jnXlAgMBAAGjggG9MIIBuTAfBgNVHSMEGDAWgBQMXpz+ukshbAQdwlq3
44hfWd5MEjAdBgNVHQ4EFgQUDmuqg6myTVyFzbHSL4f3IMs2QzswDgYDVR0PAQH/
BAQDAgWgMAwGA1UdEwEB/wQCMAAwGgYDVR0RBBMwEYIPd3d3LmV4YW1wbGUuY29t
MGIGCCsGAQUFBwEBBFYwVDAoBggrBgEFBQcwAoYcaHR0cDovL2NhLmV4YW1wbGUu
Y29tL2NhLmNydDAoBggrBgEFBQcwAYYcaHR0cDovL29jc3AuZXhhbXBsZS5jb20v
b2NzcDAfBgNVHSAEGDAWMAkGBwQAi+xAAQQwCQYHBACBmCcDATAdBgNVHSUEFjAU
BggrBgEFBQcDAQYIKwYBBQUHAwIwgZgGCCsGAQUFBwEDBIGLMIGIMAgGBgQAjkYB
ATATBgYEAI5GAQYwCQYHBACORgEGAzAVBggrBgEFBQcLAjAJBgcEAIvsSQECMFAG
BgQAgZgnAjBGMBMwEQYHBACBmCcBBAwGUFNQX0lDDCdGZWRlcmFsIEZpbmFuY2lh
bCBTdXBlcnZpc29yeSBBdXRob3JpdHkMBkdCLUZDQTANBgkqhkiG9w0BAQsFAAOC
AQEAZxkFkTtF9i62j3xrvOtCP7fDYCE5h9bgAbLgQJ/Pc8zIts14FWV1OgdDME3R
X0XWv1L1j/ipPPjELLcPP8RnnbT08pIWLo+h+fIvXk9PLIfP6uExZ92aNdcH3BSv
qm/lxq5tMNDYMmMDUSO4RpVahgM3fggLg5qYseNesqx1SFkBChBj7Jgjm07WZNdD
F4qFGwgyZyPjFpWe+DhQfttaVhIYoFDxvOT0Lk1kWsyED/znzM7JOXmcVEpBCBXv
k/SzHQucR6KVegv4wVuSrEUW4JlI9e5K0jpdzeioNQ8VNzIWt6dP4Fz9ffL/i/6U
xKAeARsf1g9z0k/qCYhXiAT8Ag==
-----END CERTIFICATE-----
