Certificate:
    Data:
        Version: 3 (0x2)
        Serial Number:
            c8:06:cc:6d:e4:20:16:00:f8:8f:05:01
        Signature Algorithm: sha256WithRSAEncryption
        Issuer: CN = Test SubCA 2, OU = Test, O = MTG, C = DE
        Validity
            Not Before: Nov  1 08:03:00 2019 GMT
            Not After : Nov  1 08:03:00 2020 GMT
        Subject: O = MTG, OU = Test, L = Darmstadt, ST = Hessen, C = DE, organizationIdentifier = VATBE-0876866142
        Subject Public Key Info:
            Public Key Algorithm: rsaEncryption
                RSA Public-Key: (2048 bit)
                Modulus:
                    00:c2:0d:81:71:b4:94:05:bc:cf:99:8a:aa:62:08:
                    f2:2e:63:b2:1e:46:f9:2b:85:98:c3:83:d0:ce:26:
                    ad:76:8f:5c:e7:5b:05:20:25:26:32:19:c2:24:8a:
                    ba:69:a3:eb:ca:10:a4:f3:cf:b5:c6:1e:f6:70:58:
                    96:5b:88:52:6a:88:42:33:85:b8:c6:16:48:4f:01:
                    45:39:3f:e1:6a:b9:06:b5:ef:37:db:79:9e:50:90:
                    57:43:5b:8b:c3:35:0d:b3:41:f4:1b:c2:4a:7f:18:
                    3c:39:2d:4f:bf:2b:a5:71:07:73:33:00:e5:8d:36:
                    9e:fe:8f:72:c5:72:56:08:cc:86:b6:ef:ba:e2:fd:
                    9b:5c:c6:2d:94:ed:2d:64:24:77:e6:67:4d:62:db:
                    94:2e:29:8e:dd:1d:7a:ca:bc:68:fb:15:2c:80:56:
                    d3:dd:e7:3a:8f:98:18:14:4b:11:d9:c4:01:1f:b9:
                    7a:d0:d9:ad:69:11:05:f6:0e:ae:5f:fc:cd:c6:b3:
                    cb:4d:ae:8e:45:18:0a:a8:c0:40:11:28:dc:cd:9f:
                    7a:26:67:5a:47:80:9b:d9:4c:f7:da:5f:6d:13:83:
                    1a:91:92:d1:b9:44:f7:72:6b:97:47:74:71:70:80:
                    d3:d6:73:bf:76:33:5c:70:b8:6f:87:37:3e:7e:8e:
                    75:e5
                Exponent: 65537 (0x10001)
        X509v3 extensions:
            X509v3 Authority Key Identifier: 
                keyid:0C:5E:9C:FE:BA:4B:21:6C:04:1D:C2:5A:B7:E3:88:5F:59:DE:4C:12

            X509v3 Subject Key Identifier: 
                0E:6B:AA:83:A9:B2:4D:5C:85:CD:B1:D2:2F:87:F7:20:CB:36:43:3B
            X509v3 Key Usage: critical
                Digital Signature, Key Encipherment
            X509v3 Basic Constraints: critical
                CA:FALSE
            X509v3 Subject Alternative Name: 
                DNS:www.example.com
            Authority Information Access: 
                CA Issuers - URI:http://ca.example.com/ca.crt
                OCSP - URI:http://ocsp.example.com/ocsp

            X509v3 Certificate Policies: 
                Policy: 0.4.0.194112.1.4
                Policy: 0.4.0.19495.3.1

            X509v3 Extended Key Usage: 
                TLS Web Server Authentication, TLS Web Client Authentication
            qcStatements: 
                0..0......F..0......F..0......F...0...+.......0.......I..0P......'.0F0.0.......'....PSP_IC.'Federal Financial Supervisory Authority..BE-NBB
    Signature Algorithm: sha256WithRSAEncryption
         46:1c:cb:f7:e7:f9:ed:d4:df:78:ce:96:08:e7:fc:e5:06:6a:
         7c:cd:8e:2c:d0:93:0b:99:26:11:0d:00:9f:a0:c7:75:09:2f:
         bb:9b:72:4a:22:b8:c1:96:5e:53:6a:44:d9:f2:0a:58:e1:4e:
         49:7b:fc:28:4b:fd:3c:2e:9d:1b:47:de:02:ab:f9:db:31:36:
         ac:d0:e8:8e:aa:69:26:57:cf:ca:c3:49:84:59:2f:ea:d8:9a:
         25:5d:46:9a:e1:36:ef:14:1d:0f:23:b5:0e:b2:6e:ed:ca:08:
         df:bc:1f:6d:d3:32:72:fb:2b:43:a9:38:8e:f5:61:06:a2:e1:
         f9:75:b1:83:97:8f:ff:d2:0a:be:25:4b:36:20:55:09:8b:c5:
         27:b5:f3:e7:8c:3f:e6:4a:67:aa:3a:fa:ec:46:53:4b:3a:04:
         e4:85:44:5c:2c:35:79:0a:1d:fb:9a:89:e2:e8:c9:f6:55:21:
         ff:75:74:ad:68:45:08:21:22:ca:fd:d7:0c:38:12:ba:f7:04:
         d4:5d:63:8b:af:c1:d9:e7:11:4f:94:ff:85:ea:00:67:54:75:
         d2:24:6b:d8:c8:4d:3a:30:36:76:4a:a5:8d:95:2f:74:93:07:
         2b:b3:32:0d:b8:f7:7e:ff:e2:af:8a:3f:f1:29:4c:17:d2:d3:
         22:b1:0f:32
-----BEGIN CERTIFICATE-----
MIIE8TCCA9mgAwIBAgINAMgGzG3kIBYA+I8FATANBgkqhkiG9w0BAQsFADBBMRUw
EwYDVQQDDAxUZXN0IFN1YkNBIDIxDTALBgNVBAsMBFRlc3QxDDAKBgNVBAoMA01U
RzELMAkGA1UEBhMCREUwHhcNMTkxMTAxMDgwMzAwWhcNMjAxMTAxMDgwMzAwWjBq
MQwwCgYDVQQKDANNVEcxDTALBgNVBAsMBFRlc3QxEjAQBgNVBAcMCURhcm1zdGFk
dDEPMA0GA1UECAwGSGVzc2VuMQswCQYDVQQGEwJERTEZMBcGA1UEYQwQVkFUQkUt
MDg3Njg2NjE0MjCCASIwDQYJKoZIhvcNAQEBBQADggEPADCCAQoCggEBAMINgXG0
lAW8z5mKqmII8i5jsh5G+SuFmMOD0M4mrXaPXOdbBSAlJjIZwiSKummj68oQpPPP
tcYe9nBYlluIUmqIQjOFuMYWSE8BRTk/4Wq5BrXvN9t5nlCQV0Nbi8M1DbNB9BvC
Sn8YPDktT78rpXEHczMA5Y02nv6PcsVyVgjMhrbvuuL9m1zGLZTtLWQkd+ZnTWLb
lC4pjt0desq8aPsVLIBW093nOo+YGBRLEdnEAR+5etDZrWkRBfYOrl/8zcazy02u
jkUYCqjAQBEo3M2feiZnWkeAm9lM99pfbRODGpGS0blE93Jrl0d0cXCA09Zzv3Yz
XHC4b4c3Pn6OdeUCAwEAAaOCAb0wggG5MB8GA1UdIwQYMBaAFAxenP66SyFsBB3C
WrfjiF9Z3kwSMB0GA1UdDgQWBBQOa6qDqbJNXIXNsdIvh/cgyzZDOzAOBgNVHQ8B
Af8EBAMCBaAwDAYDVR0TAQH/BAIwADAaBgNVHREEEzARgg93d3cuZXhhbXBsZS5j
b20wYgYIKwYBBQUHAQEEVjBUMCgGCCsGAQUFBzAChhxodHRwOi8vY2EuZXhhbXBs
ZS5jb20vY2EuY3J0MCgGCCsGAQUFBzABhhxodHRwOi8vb2NzcC5leGFtcGxlLmNv
bS9vY3NwMB8GA1UdIAQYMBYwCQYHBACL7EABBDAJBgcEAIGYJwMBMB0GA1UdJQQW
MBQGCCsGAQUFBwMBBggrBgEFBQcDAjCBmAYIKwYBBQUHAQMEgYswgYgwCAYGBACO
RgEBMBMGBgQAjkYBBjAJBgcEAI5GAQYDMBUGCCsGAQUFBwsCMAkGBwQAi+xJAQIw
UAYGBACBmCcCMEYwEzARBgcEAIGYJwEEDAZQU1BfSUMMJ0ZlZGVyYWwgRmluYW5j
aWFsIFN1cGVydmlzb3J5IEF1dGhvcml0eQwGQkUtTkJCMA0GCSqGSIb3DQEBCwUA
A4IBAQBGHMv35/nt1N94zpYI5/zlBmp8zY4s0JMLmSYRDQCfoMd1CS+7m3JKIrjB
ll5TakTZ8gpY4U5Je/woS/08Lp0bR94Cq/nbMTas0OiOqmkmV8/Kw0mEWS/q2Jol
XUaa4TbvFB0PI7UOsm7tygjfvB9t0zJy+ytDqTiO9WEGouH5dbGDl4//0gq+JUs2
IFUJi8UntfPnjD/mSmeqOvrsRlNLOgTkhURcLDV5Ch37moni6Mn2VSH/dXStaEUI
ISLK/dcMOBK69wTUXWOLr8HZ5xFPlP+F6gBnVHXSJGvYyE06MDZ2SqWNlS90kwcr
szINuPd+/+Kvij/xKUwX0tMisQ8y
-----END CERTIFICATE-----
