Certificate:
    Data:
        Version: 3 (0x2)
        Serial Number:
            0f:f0:12:c5:20:70:49:6d:41:ef:80:38:c1
        Signature Algorithm: sha256WithRSAEncryption
        Issuer: CN = Test SubCA 2, OU = Test, O = MTG, C = DE
        Validity
            Not Before: Nov  1 08:03:00 2019 GMT
            Not After : Nov  1 08:03:00 2020 GMT
        Subject: O = MTG, OU = Test, L = Darmstadt, ST = Hessen, C = DE, organizationIdentifier = PSDDE-BAFIN1234567890
        Subject Public Key Info:
            Public Key Algorithm: rsaEncryption
                RSA Public-Key: (2048 bit)
                Modulus:
                    00:c2:0d:81:71:b4:94:05:bc:cf:99:8a:aa:62:08:
                    f2:2e:63:b2:1e:46:f9:2b:85:98:c3:83:d0:ce:26:
                    ad:76:8f:5c:e7:5b:05:20:25:26:32:19:c2:24:8a:
                    ba:69:a3:eb:ca:10:a4:f3:cf:b5:c6:1e:f6:70:58:
                    96:5b:88:52:6a:88:42:33:85:b8:c6:16:48:4f:01:
                    45:39:3f:e1:6a:b9:06:b5:ef:37:db:79:9e:50:90:
                    57:43:5b:8b:c3:35:0d:b3:41:f4:1b:c2:4a:7f:18:
                    3c:39:2d:4f:bf:2b:a5:71:07:73:33:00:e5:8d:36:
                    9e:fe:8f:72:c5:72:56:08:cc:86:b6:ef:ba:e2:fd:
                    9b:5c:c6:2d:94:ed:2d:64:24:77:e6:67:4d:62:db:
                    94:2e:29:8e:dd:1d:7a:ca:bc:68:fb:15:2c:80:56:
                    d3:dd:e7:3a:8f:98:18:14:4b:11:d9:c4:01:1f:b9:
                    7a:d0:d9:ad:69:11:05:f6:0e:ae:5f:fc:cd:c6:b3:
                    cb:4d:ae:8e:45:18:0a:a8:c0:40:11:28:dc:cd:9f:
                    7a:26:67:5a:47:80:9b:d9:4c:f7:da:5f:6d:13:83:
                    1a:91:92:d1:b9:44:f7:72:6b:97:47:74:71:70:80:
                    d3:d6:73:bf:76:33:5c:70:b8:6f:87:37:3e:7e:8e:
                    75:e5
                Exponent: 65537 (0x10001)
        X509v3 extensions:
            X509v3 Authority Key Identifier: 
                keyid:0C:5E:9C:FE:BA:4B:21:6C:04:1D:C2:5A:B7:E3:88:5F:59:DE:4C:12

            X509v3 Subject Key Identifier: 
                0E:6B:AA:83:A9:B2:4D:5C:85:CD:B1:D2:2F:87:F7:20:CB:36:43:3B
            X509v3 Key Usage: critical
                Digital Signature, Key Encipherment
            X509v3 Basic Constraints: critical
                CA:FALSE
            X509v3 Subject Alternative Name: 
                DNS:www.example.com
            Authority Information Access: 
                CA Issuers - URI:http://ca.example.com/ca.crt
                OCSP - URI:http://ocsp.example.com/ocsp

            X509v3 Certificate Policies: 
                Policy: 0.4.0.194112.1.4
                Policy: 0.4.0.19495.3.1

            X509v3 Extended Key Usage: 
                TLS Web Server Authentication, TLS Web Client Authentication
            qcStatements: 
                0..0......F..0......F..0......F...0...+.......0.......I..0R......'.0H0.0.......'....PSP_IC.'Federal Financial Supervisory Authority..DE-BAFIN
    Signature Algorithm: sha256WithRSAEncryption
         1b:8c:bd:2f:47:09:33:f7:82:36:59:bd:1a:96:05:2b:57:20:
         d2:50:16:54:cf:14:4f:73:c5:bc:4d:5c:a7:e4:ba:14:de:81:
         be:70:7b:b7:e7:da:85:7b:79:74:3f:14:24:c7:1e:29:fb:1d:
         80:40:fa:3e:7d:4c:38:49:41:69:b3:e5:81:7f:fa:05:12:3a:
         af:3f:4f:90:87:51:bd:00:d6:e2:de:94:04:4f:1a:a0:ca:d7:
         d3:86:c8:6d:95:5e:15:74:fa:1e:d6:83:2a:52:cc:94:e8:ba:
         aa:aa:83:5f:d6:7e:a6:de:c4:65:12:7e:82:47:51:3b:23:81:
         e9:11:13:d7:f8:31:f4:cd:41:c7:07:f5:88:02:ef:75:bb:8e:
         8c:c6:2d:4c:3d:60:a4:34:9f:6d:50:ea:5b:17:99:7b:a4:b0:
         f5:07:b6:b4:cf:f5:b4:ad:27:f9:49:26:d8:61:c4:b7:28:cf:
         53:27:22:29:2e:39:d7:e2:a8:db:e3:8b:02:7d:6c:f3:7b:54:
         53:a1:1d:b6:8e:82:28:0f:dd:07:e4:0a:79:e1:0d:3b:c3:b1:
         a3:31:fd:82:45:df:e2:67:db:f4:68:97:88:cd:2f:3a:9a:95:
         c2:8b:9d:1a:da:d3:55:63:36:77:2f:26:3b:49:7a:bb:1f:35:
         5b:54:c7:87
-----BEGIN CERTIFICATE-----
MIIE+DCCA+CgAwIBAgIND/ASxSBwSW1B74A4wTANBgkqhkiG9w0BAQsFADBBMRUw
EwYDVQQDDAxUZXN0IFN1YkNBIDIxDTALBgNVBAsMBFRlc3QxDDAKBgNVBAoMA01U
RzELMAkGA1UEBhMCREUwHhcNMTkxMTAxMDgwMzAwWhcNMjAxMTAxMDgwMzAwWjBv
MQwwCgYDVQQKDANNVEcxDTALBgNVBAsMBFRlc3QxEjAQBgNVBAcMCURhcm1zdGFk
dDEPMA0GA1UECAwGSGVzc2VuMQswCQYDVQQGEwJERTEeMBwGA1UEYQwVUFNEREUt
QkFGSU4xMjM0NTY3ODkwMIIBIjANBgkqhkiG9w0BAQEFAAOCAQ8AMIIBCgKCAQEA
wg2BcbSUBbzPmYqqYgjyLmOyHkb5K4WYw4PQziatdo9c51sFICUmMhnCJIq6aaPr
yhCk88+1xh72cFiWW4hSaohCM4W4xhZITwFFOT/harkGte8323meUJBXQ1uLwzUN
s0H0G8JKfxg8OS1PvyulcQdzMwDljTae/o9yxXJWCMyGtu+64v2bXMYtlO0tZCR3
5mdNYtuULimO3R16yrxo+xUsgFbT3ec6j5gYFEsR2cQBH7l60NmtaREF9g6uX/zN
xrPLTa6ORRgKqMBAESjczZ96JmdaR4Cb2Uz32l9tE4MakZLRuUT3cmuXR3RxcIDT
1nO/djNccLhvhzc+fo515QIDAQABo4IBvzCCAbswHwYDVR0jBBgwFoAUDF6c/rpL
IWwEHcJat+OIX1neTBIwHQYDVR0OBBYEFA5rqoOpsk1chc2x0i+H9yDLNkM7MA4G
A1UdDwEB/wQEAwIFoDAMBgNVHRMBAf8EAjAAMBoGA1UdEQQTMBGCD3d3dy5leGFt
cGxlLmNvbTBiBggrBgEFBQcBAQRWMFQwKAYIKwYBBQUHMAKGHGh0dHA6Ly9jYS5l
eGFtcGxlLmNvbS9jYS5jcnQwKAYIKwYBBQUHMAGGHGh0dHA6Ly9vY3NwLmV4YW1w
bGUuY29tL29jc3AwHwYDVR0gBBgwFjAJBgcEAIvsQAEEMAkGBwQAgZgnAwEwHQYD
VR0lBBYwFAYIKwYBBQUHAwEGCCsGAQUFBwMCMIGaBggrBgEFBQcBAwSBjTCBijAI
BgYEAI5GAQEwEwYGBACORgEGMAkGBwQAjkYBBgMwFQYIKwYBBQUHCwIwCQYHBACL
7EkBAjBSBgYEAIGYJwIwSDATMBEGBwQAgZgnAQQMBlBTUF9JQwwnRmVkZXJhbCBG
aW5hbmNpYWwgU3VwZXJ2aXNvcnkgQXV0aG9yaXR5DAhERS1CQUZJTjANBgkqhkiG
9w0BAQsFAAOCAQEAG4y9L0cJM/eCNlm9GpYFK1cg0lAWVM8UT3PFvE1cp+S6FN6B
vnB7t+fahXt5dD8UJMceKfsdgED6Pn1MOElBabPlgX/6BRI6rz9PkIdRvQDW4t6U
BE8aoMrX04bIbZVeFXT6HtaDKlLMlOi6qqqDX9Z+pt7EZRJ+gkdROyOB6RET1/gx
9M1Bxwf1iALvdbuOjMYtTD1gpDSfbVDqWxeZe6Sw9Qe2tM/1tK0n+Ukm2GHEtyjP
UyciKS451+Ko2+OLAn1s83tUU6Edto6CKA/dB+QKeeENO8OxozH9gkXf4mfb9GiX
iM0vOpqVwoudGtrTVWM2dy8mO0l6ux81W1THhw==
-----END CERTIFICATE-----
