Certificate:
    Data:
        Version: 3 (0x2)
        Serial Number:
            0c:28:20:0d:dc:92:b3:80:d7:18:7c:91:0e
        Signature Algorithm: sha256WithRSAEncryption
        Issuer: CN = Test SubCA 2, OU = Test, O = MTG, C = DE
        Validity
            Not Before: Nov  1 08:03:01 2019 GMT
            Not After : Nov  1 08:03:01 2020 GMT
        Subject: OU = Test, O = MTG, L = Darmstadt, ST = Hessen, C = DE, organizationIdentifier = PSDDE-BAFIN-1234567890
        Subject Public Key Info:
            Public Key Algorithm: rsaEncryption
                RSA Public-Key: (2048 bit)
                Modulus:
                    00:c2:0d:81:71:b4:94:05:bc:cf:99:8a:aa:62:08:
                    f2:2e:63:b2:1e:46:f9:2b:85:98:c3:83:d0:ce:26:
                    ad:76:8f:5c:e7:5b:05:20:25:26:32:19:c2:24:8a:
                    ba:69:a3:eb:ca:10:a4:f3:cf:b5:c6:1e:f6:70:58:
                    96:5b:88:52:6a:88:42:33:85:b8:c6:16:48:4f:01:
                    45:39:3f:e1:6a:b9:06:b5:ef:37:db:79:9e:50:90:
                    57:43:5b:8b:c3:35:0d:b3:41:f4:1b:c2:4a:7f:18:
                    3c:39:2d:4f:bf:2b:a5:71:07:73:33:00:e5:8d:36:
                    9e:fe:8f:72:c5:72:56:08:cc:86:b6:ef:ba:e2:fd:
                    9b:5c:c6:2d:94:ed:2d:64:24:77:e6:67:4d:62:db:
                    94:2e:29:8e:dd:1d:7a:ca:bc:68:fb:15:2c:80:56:
                    d3:dd:e7:3a:8f:98:18:14:4b:11:d9:c4:01:1f:b9:
                    7a:d0:d9:ad:69:11:05:f6:0e:ae:5f:fc:cd:c6:b3:
                    cb:4d:ae:8e:45:18:0a:a8:c0:40:11:28:dc:cd:9f:
                    7a:26:67:5a:47:80:9b:d9:4c:f7:da:5f:6d:13:83:
                    1a:91:92:d1:b9:44:f7:72:6b:97:47:74:71:70:80:
                    d3:d6:73:bf:76:33:5c:70:b8:6f:87:37:3e:7e:8e:
                    75:e5
                Exponent: 65537 (0x10001)
        X509v3 extensions:
            X509v3 Authority Key Identifier: 
                keyid:0C:5E:9C:FE:BA:4B:21:6C:04:1D:C2:5A:B7:E3:88:5F:59:DE:4C:12

            X509v3 Subject Key Identifier: 
                0E:6B:AA:83:A9:B2:4D:5C:85:CD:B1:D2:2F:87:F7:20:CB:36:43:3B
            X509v3 Key Usage: critical
                Digital Signature, Key Encipherment
            X509v3 Basic Constraints: critical
                CA:FALSE
            X509v3 Subject Alternative Name: 
                DNS:www.example.com
            Authority Information Access: 
                CA Issuers - URI:http://ca.example.com/ca.crt
                OCSP - URI:http://ocsp.example.com/ocsp

            X509v3 Certificate Policies: 
                Policy: 0.4.0.194112.1.4
                Policy: 0.4.0.19495.3.1

            X509v3 Extended Key Usage: 
                TLS Web Server Authentication, TLS Web Client Authentication
            qcStatements: 
                0..0......F..0......F..0......F...0...+.......0.......I..0R......'.0H0.0.......'....PSP_IC.'Federal Financial Supervisory Authority..DE-BAFIN
    Signature Algorithm: sha256WithRSAEncryption
         3e:f1:2b:79:ab:8b:ad:5c:d3:ae:e2:f0:ae:b2:76:d2:74:88:
         1f:ef:35:85:9f:3f:ee:81:25:23:e1:2b:68:9d:67:f9:f8:30:
         92:53:27:32:6a:2e:6c:94:ad:85:23:3f:a4:25:42:6c:31:4b:
         f1:25:f3:5c:bc:56:9b:97:a4:4d:c1:a0:e1:ae:ef:e1:92:4a:
         f7:02:bf:bc:ed:f5:ee:ed:45:89:94:4c:51:ca:d7:ec:99:d7:
         c8:f7:83:b0:33:18:92:29:09:3e:1e:29:3c:86:41:53:c9:9e:
         11:ee:64:15:dd:80:b7:1e:a6:ec:9e:75:0f:e5:83:f0:82:0a:
         05:68:98:a9:af:d3:82:48:51:d2:28:41:65:4a:34:69:de:de:
         b7:1b:8d:ac:b7:83:dd:df:9c:34:37:b1:6b:59:10:5f:23:ea:
         b4:1d:13:10:47:8d:9b:62:a6:41:b9:4f:17:8e:62:98:38:c9:
         b0:bb:d4:c4:cf:c7:74:c0:6b:aa:85:0d:65:09:0a:a6:bb:a2:
         08:23:4b:87:b0:ef:ad:d4:47:8d:eb:be:79:b7:34:fc:32:5a:
         f5:26:9c:70:f8:ec:b8:f3:27:00:46:2a:54:6f:20:9b:6d:8e:
         be:b4:e3:a2:17:e0:bc:42:03:ec:82:a3:52:1d:30:e0:5d:71:
         a3:68:9c:5d
-----BEGIN CERTIFICATE-----
MIIE+TCCA+GgAwIBAgINDCggDdySs4DXGHyRDjANBgkqhkiG9w0BAQsFADBBMRUw
EwYDVQQDDAxUZXN0IFN1YkNBIDIxDTALBgNVBAsMBFRlc3QxDDAKBgNVBAoMA01U
RzELMAkGA1UEBhMCREUwHhcNMTkxMTAxMDgwMzAxWhcNMjAxMTAxMDgwMzAxWjBw
MQ0wCwYDVQQLDARUZXN0MQwwCgYDVQQKDANNVEcxEjAQBgNVBAcMCURhcm1zdGFk
dDEPMA0GA1UECAwGSGVzc2VuMQswCQYDVQQGEwJERTEfMB0GA1UEYQwWUFNEREUt
QkFGSU4tMTIzNDU2Nzg5MDCCASIwDQYJKoZIhvcNAQEBBQADggEPADCCAQoCggEB
AMINgXG0lAW8z5mKqmII8i5jsh5G+SuFmMOD0M4mrXaPXOdbBSAlJjIZwiSKummj
68oQpPPPtcYe9nBYlluIUmqIQjOFuMYWSE8BRTk/4Wq5BrXvN9t5nlCQV0Nbi8M1
DbNB9BvCSn8YPDktT78rpXEHczMA5Y02nv6PcsVyVgjMhrbvuuL9m1zGLZTtLWQk
d+ZnTWLblC4pjt0desq8aPsVLIBW093nOo+YGBRLEdnEAR+5etDZrWkRBfYOrl/8
zcazy02ujkUYCqjAQBEo3M2feiZnWkeAm9lM99pfbRODGpGS0blE93Jrl0d0cXCA
09Zzv3YzXHC4b4c3Pn6OdeUCAwEAAaOCAb8wggG7MB8GA1UdIwQYMBaAFAxenP66
SyFsBB3CWrfjiF9Z3kwSMB0GA1UdDgQWBBQOa6qDqbJNXIXNsdIvh/cgyzZDOzAO
BgNVHQ8BAf8EBAMCBaAwDAYDVR0TAQH/BAIwADAaBgNVHREEEzARgg93d3cuZXhh
bXBsZS5jb20wYgYIKwYBBQUHAQEEVjBUMCgGCCsGAQUFBzAChhxodHRwOi8vY2Eu
ZXhhbXBsZS5jb20vY2EuY3J0MCgGCCsGAQUFBzABhhxodHRwOi8vb2NzcC5leGFt
cGxlLmNvbS9vY3NwMB8GA1UdIAQYMBYwCQYHBACL7EABBDAJBgcEAIGYJwMBMB0G
A1UdJQQWMBQGCCsGAQUFBwMBBggrBgEFBQcDAjCBmgYIKwYBBQUHAQMEgY0wgYow
CAYGBACORgEBMBMGBgQAjkYBBjAJBgcEAI5GAQYDMBUGCCsGAQUFBwsCMAkGBwQA
i+xJAQIwUgYGBACBmCcCMEgwEzARBgcEAIGYJwEEDAZQU1BfSUMTJ0ZlZGVyYWwg
RmluYW5jaWFsIFN1cGVydmlzb3J5IEF1dGhvcml0eQwIREUtQkFGSU4wDQYJKoZI
hvcNAQELBQADggEBAD7xK3mri61c067i8K6ydtJ0iB/vNYWfP+6BJSPhK2idZ/n4
MJJTJzJqLmyUrYUjP6QlQmwxS/El81y8VpuXpE3BoOGu7+GSSvcCv7zt9e7tRYmU
TFHK1+yZ18j3g7AzGJIpCT4eKTyGQVPJnhHuZBXdgLcepuyedQ/lg/CCCgVomKmv
04JIUdIoQWVKNGne3rcbjay3g93fnDQ3sWtZEF8j6rQdExBHjZtipkG5TxeOYpg4
ybC71MTPx3TAa6qFDWUJCqa7oggjS4ew763UR43rvnm3NPwyWvUmnHD47LjzJwBG
KlRvIJttjr6046IX4LxCA+yCo1IdMOBdcaNonF0=
-----END CERTIFICATE-----
