Certificate:
    Data:
        Version: 3 (0x2)
        Serial Number:
            ea:db:f9:e8:37:ff:5c:28:e1:30:f9:2e
        Signature Algorithm: sha256WithRSAEncryption
        Issuer: CN = Test SubCA 2, OU = Test, O = MTG, C = DE
        Validity
            Not Before: Nov  1 08:03:01 2019 GMT
            Not After : Nov  1 08:03:01 2020 GMT
        Subject: OU = Test, O = MTG, L = Darmstadt, ST = Hessen, C = DE, organizationIdentifier = PSDDE-BAFIN-1234567890
        Subject Public Key Info:
            Public Key Algorithm: rsaEncryption
                RSA Public-Key: (2048 bit)
                Modulus:
                    00:c2:0d:81:71:b4:94:05:bc:cf:99:8a:aa:62:08:
                    f2:2e:63:b2:1e:46:f9:2b:85:98:c3:83:d0:ce:26:
                    ad:76:8f:5c:e7:5b:05:20:25:26:32:19:c2:24:8a:
                    ba:69:a3:eb:ca:10:a4:f3:cf:b5:c6:1e:f6:70:58:
                    96:5b:88:52:6a:88:42:33:85:b8:c6:16:48:4f:01:
                    45:39:3f:e1:6a:b9:06:b5:ef:37:db:79:9e:50:90:
                    57:43:5b:8b:c3:35:0d:b3:41:f4:1b:c2:4a:7f:18:
                    3c:39:2d:4f:bf:2b:a5:71:07:73:33:00:e5:8d:36:
                    9e:fe:8f:72:c5:72:56:08:cc:86:b6:ef:ba:e2:fd:
                    9b:5c:c6:2d:94:ed:2d:64:24:77:e6:67:4d:62:db:
                    94:2e:29:8e:dd:1d:7a:ca:bc:68:fb:15:2c:80:56:
                    d3:dd:e7:3a:8f:98:18:14:4b:11:d9:c4:01:1f:b9:
                    7a:d0:d9:ad:69:11:05:f6:0e:ae:5f:fc:cd:c6:b3:
                    cb:4d:ae:8e:45:18:0a:a8:c0:40:11:28:dc:cd:9f:
                    7a:26:67:5a:47:80:9b:d9:4c:f7:da:5f:6d:13:83:
                    1a:91:92:d1:b9:44:f7:72:6b:97:47:74:71:70:80:
                    d3:d6:73:bf:76:33:5c:70:b8:6f:87:37:3e:7e:8e:
                    75:e5
                Exponent: 65537 (0x10001)
        X509v3 extensions:
            X509v3 Authority Key Identifier: 
                keyid:0C:5E:9C:FE:BA:4B:21:6C:04:1D:C2:5A:B7:E3:88:5F:59:DE:4C:12

            X509v3 Subject Key Identifier: 
                0E:6B:AA:83:A9:B2:4D:5C:85:CD:B1:D2:2F:87:F7:20:CB:36:43:3B
            X509v3 Key Usage: critical
                Digital Signature, Key Encipherment
            X509v3 Basic Constraints: critical
                CA:FALSE
            X509v3 Subject Alternative Name: 
                DNS:www.example.com
            Authority Information Access: 
                CA Issuers - URI:http://ca.example.com/ca.crt
                OCSP - URI:http://ocsp.example.com/ocsp

            X509v3 Certificate Policies: 
                Policy: 0.4.0.194112.1.4
                Policy: 0.4.0.19495.3.1

            X509v3 Extended Key Usage: 
                TLS Web Server Authentication, TLS Web Client Authentication
            qcStatements: 
                0..0......F..0......F..0......F...0...+.......0.......I..0S......'.0I0.0.......'....PSP_PI.'Federal Financial Supervisory Authority..DEU-BAFIN
    Signature Algorithm: sha256WithRSAEncryption
         26:d1:52:58:bc:f0:01:4a:c0:54:f2:f7:80:65:29:3d:b0:f0:
         0e:fa:b3:d1:11:28:26:d7:5c:aa:46:dd:10:b1:73:0f:2e:19:
         43:e0:ba:f9:94:6c:c6:c7:ff:d3:09:66:11:9a:d9:dd:27:e8:
         3a:76:89:79:e0:1b:a3:f2:a8:bf:b4:e8:5a:dd:19:c6:bc:2d:
         b6:6c:f7:2f:8f:83:d6:6c:6f:9c:7f:c0:e4:e8:3a:ec:e2:7d:
         de:78:4d:d8:6f:79:85:56:93:d3:18:39:1a:91:9d:85:17:f1:
         04:ca:5d:7f:d4:ef:88:6d:56:4e:c8:d7:81:08:7b:d8:cd:22:
         1f:f4:41:e1:bf:1d:32:ba:8f:12:81:5a:27:ce:8b:dd:2d:42:
         da:bd:8b:52:0d:31:73:8c:f8:e6:88:f0:a4:0a:2a:27:70:97:
         bc:0d:30:e7:90:07:f2:80:f7:d6:6a:f9:cb:6f:83:40:89:82:
         a8:83:94:99:9e:fe:ca:f1:72:11:35:50:da:a1:e3:fa:e4:74:
         4c:48:bd:e2:43:d5:54:1e:fe:50:cf:5c:38:92:11:16:76:84:
         39:30:ef:32:26:49:e7:3c:66:4c:b6:b0:d5:bf:a5:b3:61:f6:
         4c:74:cc:de:9a:39:f8:38:cc:6c:d4:b6:83:01:af:ef:d3:7f:
         9b:74:b2:78
-----BEGIN CERTIFICATE-----
MIIE+jCCA+KgAwIBAgINAOrb+eg3/1wo4TD5LjANBgkqhkiG9w0BAQsFADBBMRUw
EwYDVQQDDAxUZXN0IFN1YkNBIDIxDTALBgNVBAsMBFRlc3QxDDAKBgNVBAoMA01U
RzELMAkGA1UEBhMCREUwHhcNMTkxMTAxMDgwMzAxWhcNMjAxMTAxMDgwMzAxWjBw
MQ0wCwYDVQQLDARUZXN0MQwwCgYDVQQKDANNVEcxEjAQBgNVBAcMCURhcm1zdGFk
dDEPMA0GA1UECAwGSGVzc2VuMQswCQYDVQQGEwJERTEfMB0GA1UEYQwWUFNEREUt
QkFGSU4tMTIzNDU2Nzg5MDCCASIwDQYJKoZIhvcNAQEBBQADggEPADCCAQoCggEB
AMINgXG0lAW8z5mKqmII8i5jsh5G+SuFmMOD0M4mrXaPXOdbBSAlJjIZwiSKummj
68oQpPPPtcYe9nBYlluIUmqIQjOFuMYWSE8BRTk/4Wq5BrXvN9t5nlCQV0Nbi8M1
DbNB9BvCSn8YPDktT78rpXEHczMA5Y02nv6PcsVyVgjMhrbvuuL9m1zGLZTtLWQk
d+ZnTWLblC4pjt0desq8aPsVLIBW093nOo+YGBRLEdnEAR+5etDZrWkRBfYOrl/8
zcazy02ujkUYCqjAQBEo3M2feiZnWkeAm9lM99pfbRODGpGS0blE93Jrl0d0cXCA
09Zzv3YzXHC4b4c3Pn6OdeUCAwEAAaOCAcAwggG8MB8GA1UdIwQYMBaAFAxenP66
SyFsBB3CWrfjiF9Z3kwSMB0GA1UdDgQWBBQOa6qDqbJNXIXNsdIvh/cgyzZDOzAO
BgNVHQ8BAf8EBAMCBaAwDAYDVR0TAQH/BAIwADAaBgNVHREEEzARgg93d3cuZXhh
bXBsZS5jb20wYgYIKwYBBQUHAQEEVjBUMCgGCCsGAQUFBzAChhxodHRwOi8vY2Eu
ZXhhbXBsZS5jb20vY2EuY3J0MCgGCCsGAQUFBzABhhxodHRwOi8vb2NzcC5leGFt
cGxlLmNvbS9vY3NwMB8GA1UdIAQYMBYwCQYHBACL7EABBDAJBgcEAIGYJwMBMB0G
A1UdJQQWMBQGCCsGAQUFBwMBBggrBgEFBQcDAjCBmwYIKwYBBQUHAQMEgY4wgYsw
CAYGBACORgEBMBMGBgQAjkYBBjAJBgcEAI5GAQYDMBUGCCsGAQUFBwsCMAkGBwQA
i+xJAQIwUwYGBACBmCcCMEkwEzARBgcEAIGYJwECDAZQU1BfUEkMJ0ZlZGVyYWwg
RmluYW5jaWFsIFN1cGVydmlzb3J5IEF1dGhvcml0eQwJREVVLUJBRklOMA0GCSqG
SIb3DQEBCwUAA4IBAQAm0VJYvPABSsBU8veAZSk9sPAO+rPRESgm11yqRt0QsXMP
LhlD4Lr5lGzGx//TCWYRmtndJ+g6dol54Buj8qi/tOha3RnGvC22bPcvj4PWbG+c
f8Dk6Drs4n3eeE3Yb3mFVpPTGDkakZ2FF/EEyl1/1O+IbVZOyNeBCHvYzSIf9EHh
vx0yuo8SgVonzovdLULavYtSDTFzjPjmiPCkCioncJe8DTDnkAfygPfWavnLb4NA
iYKog5SZnv7K8XIRNVDaoeP65HRMSL3iQ9VUHv5Qz1w4khEWdoQ5MO8yJknnPGZM
trDVv6WzYfZMdMzemjn4OMxs1LaDAa/v03+bdLJ4
-----END CERTIFICATE-----
