Certificate:
    Data:
        Version: 3 (0x2)
        Serial Number:
            06:2a:58:d1:aa:d8:43:bb:90:9b:03:53:6b
        Signature Algorithm: sha256WithRSAEncryption
        Issuer: CN = Test SubCA 2, OU = Test, O = MTG, C = DE
        Validity
            Not Before: Nov  1 08:03:01 2019 GMT
            Not After : Nov  1 08:03:01 2020 GMT
        Subject: O = MTG, OU = Test, L = Darmstadt, ST = Hessen, C = DE, organizationIdentifier = "NTRDE+BW-1234567890"
        Subject Public Key Info:
            Public Key Algorithm: rsaEncryption
                RSA Public-Key: (2048 bit)
                Modulus:
                    00:c2:0d:81:71:b4:94:05:bc:cf:99:8a:aa:62:08:
                    f2:2e:63:b2:1e:46:f9:2b:85:98:c3:83:d0:ce:26:
                    ad:76:8f:5c:e7:5b:05:20:25:26:32:19:c2:24:8a:
                    ba:69:a3:eb:ca:10:a4:f3:cf:b5:c6:1e:f6:70:58:
                    96:5b:88:52:6a:88:42:33:85:b8:c6:16:48:4f:01:
                    45:39:3f:e1:6a:b9:06:b5:ef:37:db:79:9e:50:90:
                    57:43:5b:8b:c3:35:0d:b3:41:f4:1b:c2:4a:7f:18:
                    3c:39:2d:4f:bf:2b:a5:71:07:73:33:00:e5:8d:36:
                    9e:fe:8f:72:c5:72:56:08:cc:86:b6:ef:ba:e2:fd:
                    9b:5c:c6:2d:94:ed:2d:64:24:77:e6:67:4d:62:db:
                    94:2e:29:8e:dd:1d:7a:ca:bc:68:fb:15:2c:80:56:
                    d3:dd:e7:3a:8f:98:18:14:4b:11:d9:c4:01:1f:b9:
                    7a:d0:d9:ad:69:11:05:f6:0e:ae:5f:fc:cd:c6:b3:
                    cb:4d:ae:8e:45:18:0a:a8:c0:40:11:28:dc:cd:9f:
                    7a:26:67:5a:47:80:9b:d9:4c:f7:da:5f:6d:13:83:
                    1a:91:92:d1:b9:44:f7:72:6b:97:47:74:71:70:80:
                    d3:d6:73:bf:76:33:5c:70:b8:6f:87:37:3e:7e:8e:
                    75:e5
                Exponent: 65537 (0x10001)
        X509v3 extensions:
            X509v3 Authority Key Identifier: 
                keyid:0C:5E:9C:FE:BA:4B:21:6C:04:1D:C2:5A:B7:E3:88:5F:59:DE:4C:12

            X509v3 Subject Key Identifier: 
                0E:6B:AA:83:A9:B2:4D:5C:85:CD:B1:D2:2F:87:F7:20:CB:36:43:3B
            X509v3 Key Usage: critical
                Digital Signature, Key Encipherment
            X509v3 Basic Constraints: critical
                CA:FALSE
            X509v3 Subject Alternative Name: 
                DNS:www.example.com
            Authority Information Access: 
                CA Issuers - URI:http://ca.example.com/ca.crt
                OCSP - URI:http://ocsp.example.com/ocsp

            X509v3 Certificate Policies: 
                Policy: 0.4.0.194112.1.4
                Policy: 0.4.0.19495.3.1

            X509v3 Extended Key Usage: 
                TLS Web Server Authentication, TLS Web Client Authentication
            qcStatements: 
                0..0......F..0......F..0......F...0...+.......0.......I..0R......'.0H0.0.......'....PSP_IC.'Federal Financial Supervisory Authority..DE-BAFIN
    Signature Algorithm: sha256WithRSAEncryption
         09:22:68:69:1a:75:77:37:9c:4a:0a:25:2c:76:5a:aa:8c:ad:
         7a:9d:9e:74:cc:c3:8e:15:93:c4:0e:a8:94:5e:79:2c:59:16:
         78:d6:66:58:2c:60:7b:51:29:c5:84:d3:3a:af:74:a1:d4:41:
         46:0b:5b:3c:81:ef:72:92:8b:d7:0e:16:e0:53:16:78:23:b6:
         f3:4c:18:30:ca:88:4a:12:98:ba:06:84:7f:90:be:df:13:6d:
         89:6c:dc:f2:92:1a:77:4a:83:41:c2:5e:1e:01:7e:9a:a4:a2:
         bc:a0:e9:8c:3a:51:5f:1d:72:e2:f2:f7:b3:a9:5a:c6:de:55:
         14:f2:85:20:d7:5f:5b:fe:80:e0:ae:30:8d:01:b0:17:79:f6:
         d6:13:3a:72:4f:ed:ca:44:d9:09:1d:6a:9c:6e:f9:b1:55:70:
         30:3c:70:1d:2c:5c:d9:b3:a0:58:c8:08:20:5e:27:30:6b:e7:
         73:74:01:d2:7a:ef:c8:8e:1d:4f:55:79:f3:80:8c:f9:1b:79:
         a0:f3:d3:94:9f:cf:50:35:cc:d5:3c:45:7c:af:9e:58:ab:ee:
         53:30:f9:09:42:15:4d:f6:6e:d0:10:de:69:37:3c:82:9a:33:
         3e:3a:b2:74:6b:68:65:e8:b8:de:a1:79:a5:4f:ec:f6:3a:38:
         54:2f:13:8d
-----BEGIN CERTIFICATE-----
MIIE9jCCA96gAwIBAgINBipY0arYQ7uQmwNTazANBgkqhkiG9w0BAQsFADBBMRUw
EwYDVQQDDAxUZXN0IFN1YkNBIDIxDTALBgNVBAsMBFRlc3QxDDAKBgNVBAoMA01U
RzELMAkGA1UEBhMCREUwHhcNMTkxMTAxMDgwMzAxWhcNMjAxMTAxMDgwMzAxWjBt
MQwwCgYDVQQKDANNVEcxDTALBgNVBAsMBFRlc3QxEjAQBgNVBAcMCURhcm1zdGFk
dDEPMA0GA1UECAwGSGVzc2VuMQswCQYDVQQGEwJERTEcMBoGA1UEYQwTTlRSREUr
QlctMTIzNDU2Nzg5MDCCASIwDQYJKoZIhvcNAQEBBQADggEPADCCAQoCggEBAMIN
gXG0lAW8z5mKqmII8i5jsh5G+SuFmMOD0M4mrXaPXOdbBSAlJjIZwiSKummj68oQ
pPPPtcYe9nBYlluIUmqIQjOFuMYWSE8BRTk/4Wq5BrXvN9t5nlCQV0Nbi8M1DbNB
9BvCSn8YPDktT78rpXEHczMA5Y02nv6PcsVyVgjMhrbvuuL9m1zGLZTtLWQkd+Zn
TWLblC4pjt0desq8aPsVLIBW093nOo+YGBRLEdnEAR+5etDZrWkRBfYOrl/8zcaz
y02ujkUYCqjAQBEo3M2feiZnWkeAm9lM99pfbRODGpGS0blE93Jrl0d0cXCA09Zz
v3YzXHC4b4c3Pn6OdeUCAwEAAaOCAb8wggG7MB8GA1UdIwQYMBaAFAxenP66SyFs
BB3CWrfjiF9Z3kwSMB0GA1UdDgQWBBQOa6qDqbJNXIXNsdIvh/cgyzZDOzAOBgNV
HQ8BAf8EBAMCBaAwDAYDVR0TAQH/BAIwADAaBgNVHREEEzARgg93d3cuZXhhbXBs
ZS5jb20wYgYIKwYBBQUHAQEEVjBUMCgGCCsGAQUFBzAChhxodHRwOi8vY2EuZXhh
bXBsZS5jb20vY2EuY3J0MCgGCCsGAQUFBzABhhxodHRwOi8vb2NzcC5leGFtcGxl
LmNvbS9vY3NwMB8GA1UdIAQYMBYwCQYHBACL7EABBDAJBgcEAIGYJwMBMB0GA1Ud
JQQWMBQGCCsGAQUFBwMBBggrBgEFBQcDAjCBmgYIKwYBBQUHAQMEgY0wgYowCAYG
BACORgEBMBMGBgQAjkYBBjAJBgcEAI5GAQYDMBUGCCsGAQUFBwsCMAkGBwQAi+xJ
AQIwUgYGBACBmCcCMEgwEzARBgcEAIGYJwEEDAZQU1BfSUMMJ0ZlZGVyYWwgRmlu
YW5jaWFsIFN1cGVydmlzb3J5IEF1dGhvcml0eQwIREUtQkFGSU4wDQYJKoZIhvcN
AQELBQADggEBAAkiaGkadXc3nEoKJSx2WqqMrXqdnnTMw44Vk8QOqJReeSxZFnjW
ZlgsYHtRKcWE0zqvdKHUQUYLWzyB73KSi9cOFuBTFngjtvNMGDDKiEoSmLoGhH+Q
vt8TbYls3PKSGndKg0HCXh4Bfpqkoryg6Yw6UV8dcuLy97OpWsbeVRTyhSDXX1v+
gOCuMI0BsBd59tYTOnJP7cpE2Qkdapxu+bFVcDA8cB0sXNmzoFjICCBeJzBr53N0
AdJ678iOHU9VefOAjPkbeaDz05Sfz1A1zNU8RXyvnlir7lMw+QlCFU32btAQ3mk3
PIKaMz46snRraGXouN6heaVP7PY6OFQvE40=
-----END CERTIFICATE-----
