Certificate:
    Data:
        Version: 3 (0x2)
        Serial Number:
            07:74:06:4c:96:95:9b:ef:14:4d:e1:d7:b6
        Signature Algorithm: sha256WithRSAEncryption
        Issuer: CN = Test SubCA 2, OU = Test, O = MTG, C = DE
        Validity
            Not Before: Nov  1 08:03:01 2019 GMT
            Not After : Nov  1 08:03:01 2020 GMT
        Subject: OU = Test, O = MTG, L = Darmstadt, ST = Hessen, C = DE, organizationIdentifier = PSDDE-BAFIN-1234567890
        Subject Public Key Info:
            Public Key Algorithm: rsaEncryption
                RSA Public-Key: (2048 bit)
                Modulus:
                    00:c2:0d:81:71:b4:94:05:bc:cf:99:8a:aa:62:08:
                    f2:2e:63:b2:1e:46:f9:2b:85:98:c3:83:d0:ce:26:
                    ad:76:8f:5c:e7:5b:05:20:25:26:32:19:c2:24:8a:
                    ba:69:a3:eb:ca:10:a4:f3:cf:b5:c6:1e:f6:70:58:
                    96:5b:88:52:6a:88:42:33:85:b8:c6:16:48:4f:01:
                    45:39:3f:e1:6a:b9:06:b5:ef:37:db:79:9e:50:90:
                    57:43:5b:8b:c3:35:0d:b3:41:f4:1b:c2:4a:7f:18:
                    3c:39:2d:4f:bf:2b:a5:71:07:73:33:00:e5:8d:36:
                    9e:fe:8f:72:c5:72:56:08:cc:86:b6:ef:ba:e2:fd:
                    9b:5c:c6:2d:94:ed:2d:64:24:77:e6:67:4d:62:db:
                    94:2e:29:8e:dd:1d:7a:ca:bc:68:fb:15:2c:80:56:
                    d3:dd:e7:3a:8f:98:18:14:4b:11:d9:c4:01:1f:b9:
                    7a:d0:d9:ad:69:11:05:f6:0e:ae:5f:fc:cd:c6:b3:
                    cb:4d:ae:8e:45:18:0a:a8:c0:40:11:28:dc:cd:9f:
                    7a:26:67:5a:47:80:9b:d9:4c:f7:da:5f:6d:13:83:
                    1a:91:92:d1:b9:44:f7:72:6b:97:47:74:71:70:80:
                    d3:d6:73:bf:76:33:5c:70:b8:6f:87:37:3e:7e:8e:
                    75:e5
                Exponent: 65537 (0x10001)
        X509v3 extensions:
            X509v3 Authority Key Identifier: 
                keyid:0C:5E:9C:FE:BA:4B:21:6C:04:1D:C2:5A:B7:E3:88:5F:59:DE:4C:12

            X509v3 Subject Key Identifier: 
                0E:6B:AA:83:A9:B2:4D:5C:85:CD:B1:D2:2F:87:F7:20:CB:36:43:3B
            X509v3 Key Usage: critical
                Digital Signature, Key Encipherment
            X509v3 Basic Constraints: critical
                CA:FALSE
            X509v3 Subject Alternative Name: 
                DNS:www.example.com
            Authority Information Access: 
                CA Issuers - URI:http://ca.example.com/ca.crt
                OCSP - URI:http://ocsp.example.com/ocsp

            X509v3 Certificate Policies: 
                Policy: 0.4.0.194112.1.4
                Policy: 0.4.0.19495.3.1

            X509v3 Extended Key Usage: 
                TLS Web Server Authentication, TLS Web Client Authentication
            qcStatements: 
                0..0......F..0......F..0......F...0...+.......0.......I..0R......'.0H0.0.......'....PSP_AI.'Federal Financial Supervisory Authority..DE-BAFIN
    Signature Algorithm: sha256WithRSAEncryption
         53:ad:ba:e5:54:fd:7f:55:ce:83:2a:68:77:9d:ac:d6:04:73:
         84:10:28:1d:36:70:4f:df:28:d0:c1:20:d4:14:49:4a:ee:43:
         02:49:3f:c7:18:b0:14:4f:1a:ed:99:cc:b9:c2:26:ba:8a:41:
         95:64:56:aa:a1:a0:d6:cc:6c:85:b1:b8:6c:aa:24:54:81:2a:
         bc:2f:4e:22:dc:6e:bd:87:98:80:bd:97:f4:e7:fd:c7:d9:6c:
         28:ca:51:1b:7a:7d:7e:94:c0:c8:21:6a:7c:dc:a5:e3:16:66:
         a6:06:d8:a8:29:21:e5:52:7e:fa:61:3b:5a:85:af:28:df:3d:
         3b:b1:2d:4c:bf:32:9c:0d:57:5c:f9:ba:7f:23:8b:33:8b:7a:
         a3:f4:1c:80:a8:73:a8:b5:ee:f3:ed:40:6c:61:d7:ed:43:c8:
         4f:8b:11:4f:9f:e3:8a:11:79:58:d7:90:ad:a9:fe:5d:e9:e3:
         77:1a:3d:5d:8b:df:bd:49:66:59:b7:1b:17:a5:53:a8:7a:a6:
         32:85:44:4a:70:0b:b1:cf:42:22:d4:ca:e1:f1:1f:01:33:44:
         ed:41:9b:ec:85:f0:37:05:17:e9:6b:eb:ca:cd:b1:7e:85:bd:
         89:8b:0e:f8:2c:92:03:27:33:63:9c:16:11:e7:e2:1f:f0:d4:
         21:88:ef:c2
-----BEGIN CERTIFICATE-----
MIIE+TCCA+GgAwIBAgINB3QGTJaVm+8UTeHXtjANBgkqhkiG9w0BAQsFADBBMRUw
EwYDVQQDDAxUZXN0IFN1YkNBIDIxDTALBgNVBAsMBFRlc3QxDDAKBgNVBAoMA01U
RzELMAkGA1UEBhMCREUwHhcNMTkxMTAxMDgwMzAxWhcNMjAxMTAxMDgwMzAxWjBw
MQ0wCwYDVQQLDARUZXN0MQwwCgYDVQQKDANNVEcxEjAQBgNVBAcMCURhcm1zdGFk
dDEPMA0GA1UECAwGSGVzc2VuMQswCQYDVQQGEwJERTEfMB0GA1UEYQwWUFNEREUt
QkFGSU4tMTIzNDU2Nzg5MDCCASIwDQYJKoZIhvcNAQEBBQADggEPADCCAQoCggEB
AMINgXG0lAW8z5mKqmII8i5jsh5G+SuFmMOD0M4mrXaPXOdbBSAlJjIZwiSKummj
68oQpPPPtcYe9nBYlluIUmqIQjOFuMYWSE8BRTk/4Wq5BrXvN9t5nlCQV0Nbi8M1
DbNB9BvCSn8YPDktT78rpXEHczMA5Y02nv6PcsVyVgjMhrbvuuL9m1zGLZTtLWQk
d+ZnTWLblC4pjt0desq8aPsVLIBW093nOo+YGBRLEdnEAR+5etDZrWkRBfYOrl/8
zcazy02ujkUYCqjAQBEo3M2feiZnWkeAm9lM99pfbRODGpGS0blE93Jrl0d0cXCA
09Zzv3YzXHC4b4c3Pn6OdeUCAwEAAaOCAb8wggG7MB8GA1UdIwQYMBaAFAxenP66
SyFsBB3CWrfjiF9Z3kwSMB0GA1UdDgQWBBQOa6qDqbJNXIXNsdIvh/cgyzZDOzAO
BgNVHQ8BAf8EBAMCBaAwDAYDVR0TAQH/BAIwADAaBgNVHREEEzARgg93d3cuZXhh
bXBsZS5jb20wYgYIKwYBBQUHAQEEVjBUMCgGCCsGAQUFBzAChhxodHRwOi8vY2Eu
ZXhhbXBsZS5jb20vY2EuY3J0MCgGCCsGAQUFBzABhhxodHRwOi8vb2NzcC5leGFt
cGxlLmNvbS9vY3NwMB8GA1UdIAQYMBYwCQYHBACL7EABBDAJBgcEAIGYJwMBMB0G
A1UdJQQWMBQGCCsGAQUFBwMBBggrBgEFBQcDAjCBmgYIKwYBBQUHAQMEgY0wgYow
CAYGBACORgEBMBMGBgQAjkYBBjAJBgcEAI5GAQYDMBUGCCsGAQUFBwsCMAkGBwQA
i+xJAQIwUgYGBACBmCcCMEgwEzARBgcEAIGYJwEDEwZQU1BfQUkMJ0ZlZGVyYWwg
RmluYW5jaWFsIFN1cGVydmlzb3J5IEF1dGhvcml0eQwIREUtQkFGSU4wDQYJKoZI
hvcNAQELBQADggEBAFOtuuVU/X9VzoMqaHedrNYEc4QQKB02cE/fKNDBINQUSUru
QwJJP8cYsBRPGu2ZzLnCJrqKQZVkVqqhoNbMbIWxuGyqJFSBKrwvTiLcbr2HmIC9
l/Tn/cfZbCjKURt6fX6UwMghanzcpeMWZqYG2KgpIeVSfvphO1qFryjfPTuxLUy/
MpwNV1z5un8jizOLeqP0HICoc6i17vPtQGxh1+1DyE+LEU+f44oReVjXkK2p/l3p
43caPV2L371JZlm3GxelU6h6pjKFREpwC7HPQiLUyuHxHwEzRO1Bm+yF8DcFF+lr
68rNsX6FvYmLDvgskgMnM2OcFhHn4h/w1CGI78I=
-----END CERTIFICATE-----
