Certificate:
    Data:
        Version: 3 (0x2)
        Serial Number:
            0a:d8:06:42:18:62:21:69:a8:51:db:ed:cc
        Signature Algorithm: sha256WithRSAEncryption
        Issuer: CN = Test SubCA 2, OU = Test, O = MTG, C = DE
        Validity
            Not Before: Nov  1 08:03:01 2019 GMT
            Not After : Nov  1 08:03:01 2020 GMT
        Subject: OU = Test, O = MTG, L = Darmstadt, ST = Hessen, C = DE, organizationIdentifier = PSDDE-BAFIN-1234567890
        Subject Public Key Info:
            Public Key Algorithm: rsaEncryption
                RSA Public-Key: (2048 bit)
                Modulus:
                    00:c2:0d:81:71:b4:94:05:bc:cf:99:8a:aa:62:08:
                    f2:2e:63:b2:1e:46:f9:2b:85:98:c3:83:d0:ce:26:
                    ad:76:8f:5c:e7:5b:05:20:25:26:32:19:c2:24:8a:
                    ba:69:a3:eb:ca:10:a4:f3:cf:b5:c6:1e:f6:70:58:
                    96:5b:88:52:6a:88:42:33:85:b8:c6:16:48:4f:01:
                    45:39:3f:e1:6a:b9:06:b5:ef:37:db:79:9e:50:90:
                    57:43:5b:8b:c3:35:0d:b3:41:f4:1b:c2:4a:7f:18:
                    3c:39:2d:4f:bf:2b:a5:71:07:73:33:00:e5:8d:36:
                    9e:fe:8f:72:c5:72:56:08:cc:86:b6:ef:ba:e2:fd:
                    9b:5c:c6:2d:94:ed:2d:64:24:77:e6:67:4d:62:db:
                    94:2e:29:8e:dd:1d:7a:ca:bc:68:fb:15:2c:80:56:
                    d3:dd:e7:3a:8f:98:18:14:4b:11:d9:c4:01:1f:b9:
                    7a:d0:d9:ad:69:11:05:f6:0e:ae:5f:fc:cd:c6:b3:
                    cb:4d:ae:8e:45:18:0a:a8:c0:40:11:28:dc:cd:9f:
                    7a:26:67:5a:47:80:9b:d9:4c:f7:da:5f:6d:13:83:
                    1a:91:92:d1:b9:44:f7:72:6b:97:47:74:71:70:80:
                    d3:d6:73:bf:76:33:5c:70:b8:6f:87:37:3e:7e:8e:
                    75:e5
                Exponent: 65537 (0x10001)
        X509v3 extensions:
            X509v3 Authority Key Identifier: 
                keyid:0C:5E:9C:FE:BA:4B:21:6C:04:1D:C2:5A:B7:E3:88:5F:59:DE:4C:12

            X509v3 Subject Key Identifier: 
                0E:6B:AA:83:A9:B2:4D:5C:85:CD:B1:D2:2F:87:F7:20:CB:36:43:3B
            X509v3 Key Usage: critical
                Digital Signature, Key Encipherment
            X509v3 Basic Constraints: critical
                CA:FALSE
            X509v3 Subject Alternative Name: 
                DNS:www.example.com
            Authority Information Access: 
                CA Issuers - URI:http://ca.example.com/ca.crt
                OCSP - URI:http://ocsp.example.com/ocsp

            X509v3 Certificate Policies: 
                Policy: 0.4.0.194112.1.4
                Policy: 0.4.0.19495.3.1

            X509v3 Extended Key Usage: 
                TLS Web Server Authentication, TLS Web Client Authentication
            qcStatements: 
                0..0......F..0......F..0......F...0...+.......0.......I..0I......'.0?0
0...PSP_PI.'Federal Financial Supervisory Authority..DE-BAFIN
    Signature Algorithm: sha256WithRSAEncryption
         0c:45:ce:93:30:82:bf:9a:53:18:41:ce:ba:6c:be:96:43:7d:
         a0:11:1d:cc:db:68:f7:09:9a:2d:a1:ea:b4:e1:6d:41:63:61:
         ba:df:b2:c6:66:89:90:ea:7b:98:3f:e3:26:91:3e:52:87:64:
         55:3c:ca:87:dc:02:ce:e1:88:54:0d:9c:a0:a0:2b:85:a5:67:
         d8:17:7b:4c:b2:95:79:2c:e8:79:f6:33:69:43:31:62:24:dc:
         79:85:67:0b:13:8f:2a:0d:6d:b8:56:db:1e:f4:13:06:9a:d8:
         d2:16:71:ff:b8:cc:ad:ea:18:17:f8:c1:7a:a6:96:1a:d6:b0:
         0e:c4:13:3b:30:14:45:06:db:9a:a8:81:ad:9f:35:77:c9:90:
         12:96:38:de:d2:e0:ad:c1:c1:d7:6e:96:5f:20:d9:29:7e:80:
         9a:46:97:05:e5:4a:ed:61:01:5e:ad:06:ac:c7:dc:99:e2:57:
         d0:18:3f:74:97:03:24:50:4b:44:da:94:c2:7a:c2:41:33:fa:
         a0:71:6a:8f:7e:33:81:3a:e1:0e:e3:81:52:5b:18:ab:e8:0a:
         02:a2:4c:a0:9b:bd:dd:b8:01:00:d9:3e:01:89:b2:9c:fe:dc:
         d4:11:d0:32:0d:0f:0f:4c:cb:9a:29:8c:d3:32:07:ec:78:2b:
         e1:f1:b6:5d
-----BEGIN CERTIFICATE-----
MIIE8DCCA9igAwIBAgINCtgGQhhiIWmoUdvtzDANBgkqhkiG9w0BAQsFADBBMRUw
EwYDVQQDDAxUZXN0IFN1YkNBIDIxDTALBgNVBAsMBFRlc3QxDDAKBgNVBAoMA01U
RzELMAkGA1UEBhMCREUwHhcNMTkxMTAxMDgwMzAxWhcNMjAxMTAxMDgwMzAxWjBw
MQ0wCwYDVQQLDARUZXN0MQwwCgYDVQQKDANNVEcxEjAQBgNVBAcMCURhcm1zdGFk
dDEPMA0GA1UECAwGSGVzc2VuMQswCQYDVQQGEwJERTEfMB0GA1UEYQwWUFNEREUt
QkFGSU4tMTIzNDU2Nzg5MDCCASIwDQYJKoZIhvcNAQEBBQADggEPADCCAQoCggEB
AMINgXG0lAW8z5mKqmII8i5jsh5G+SuFmMOD0M4mrXaPXOdbBSAlJjIZwiSKummj
68oQpPPPtcYe9nBYlluIUmqIQjOFuMYWSE8BRTk/4Wq5BrXvN9t5nlCQV0Nbi8M1
DbNB9BvCSn8YPDktT78rpXEHczMA5Y02nv6PcsVyVgjMhrbvuuL9m1zGLZTtLWQk
d+ZnTWLblC4pjt0desq8aPsVLIBW093nOo+YGBRLEdnEAR+5etDZrWkRBfYOrl/8
zcazy02ujkUYCqjAQBEo3M2feiZnWkeAm9lM99pfbRODGpGS0blE93Jrl0d0cXCA
09Zzv3YzXHC4b4c3Pn6OdeUCAwEAAaOCAbYwggGyMB8GA1UdIwQYMBaAFAxenP66
SyFsBB3CWrfjiF9Z3kwSMB0GA1UdDgQWBBQOa6qDqbJNXIXNsdIvh/cgyzZDOzAO
BgNVHQ8BAf8EBAMCBaAwDAYDVR0TAQH/BAIwADAaBgNVHREEEzARgg93d3cuZXhh
bXBsZS5jb20wYgYIKwYBBQUHAQEEVjBUMCgGCCsGAQUFBzAChhxodHRwOi8vY2Eu
ZXhhbXBsZS5jb20vY2EuY3J0MCgGCCsGAQUFBzABhhxodHRwOi8vb2NzcC5leGFt
cGxlLmNvbS9vY3NwMB8GA1UdIAQYMBYwCQYHBACL7EABBDAJBgcEAIGYJwMBMB0G
A1UdJQQWMBQGCCsGAQUFBwMBBggrBgEFBQcDAjCBkQYIKwYBBQUHAQMEgYQwgYEw
CAYGBACORgEBMBMGBgQAjkYBBjAJBgcEAI5GAQYDMBUGCCsGAQUFBwsCMAkGBwQA
i+xJAQIwSQYGBACBmCcCMD8wCjAIDAZQU1BfUEkMJ0ZlZGVyYWwgRmluYW5jaWFs
IFN1cGVydmlzb3J5IEF1dGhvcml0eQwIREUtQkFGSU4wDQYJKoZIhvcNAQELBQAD
ggEBAAxFzpMwgr+aUxhBzrpsvpZDfaARHczbaPcJmi2h6rThbUFjYbrfssZmiZDq
e5g/4yaRPlKHZFU8yofcAs7hiFQNnKCgK4WlZ9gXe0yylXks6Hn2M2lDMWIk3HmF
ZwsTjyoNbbhW2x70Ewaa2NIWcf+4zK3qGBf4wXqmlhrWsA7EEzswFEUG25qoga2f
NXfJkBKWON7S4K3Bwddull8g2Sl+gJpGlwXlSu1hAV6tBqzH3JniV9AYP3SXAyRQ
S0TalMJ6wkEz+qBxao9+M4E64Q7jgVJbGKvoCgKiTKCbvd24AQDZPgGJspz+3NQR
0DINDw9My5opjNMyB+x4K+Hxtl0=
-----END CERTIFICATE-----
