Certificate:
    Data:
        Version: 3 (0x2)
        Serial Number:
            01:81:55:ad:8c:60:82:d7:4c:5a:a1:ed:d4
        Signature Algorithm: sha256WithRSAEncryption
        Issuer: CN = Test SubCA 2, OU = Test, O = MTG, C = DE
        Validity
            Not Before: Nov  4 05:52:58 2019 GMT
            Not After : Nov  4 05:52:58 2020 GMT
        Subject: OU = Test, O = MTG, L = Darmstadt, ST = Hessen, C = DE
        Subject Public Key Info:
            Public Key Algorithm: rsaEncryption
                RSA Public-Key: (2048 bit)
                Modulus:
                    00:9d:52:43:fa:16:05:6a:f6:f0:48:8e:08:8d:66:
                    31:2f:28:ff:61:bf:61:d8:af:be:90:f9:03:ed:3f:
                    85:bc:68:ec:49:e1:96:a1:a4:14:14:e3:ff:a7:00:
                    a3:9c:36:3b:ed:e3:5a:15:4f:f9:85:7e:f5:fe:8e:
                    d6:f5:af:90:04:c6:dc:c3:22:89:26:2c:ce:67:e2:
                    d6:56:71:6b:60:19:33:5f:47:d9:9b:6d:40:7b:ee:
                    ae:5c:42:d7:8c:4b:1a:ed:4b:e9:31:ce:84:a8:f8:
                    27:91:59:09:a9:8a:7d:db:8c:f0:52:76:9f:57:24:
                    91:41:18:8e:e4:3d:51:ed:e8:67:c2:dc:92:39:fc:
                    87:64:03:f8:11:95:2b:ff:96:8c:4a:db:49:c2:5e:
                    bd:e8:16:2b:07:79:e2:64:b0:bc:e3:27:4d:db:f5:
                    59:ee:75:ff:60:9c:0b:f2:51:e7:54:c3:a2:06:14:
                    2a:ce:d8:a3:d2:fb:b0:6d:c3:00:74:b8:a1:c4:1d:
                    0d:83:d3:19:d6:8c:bd:e9:7b:65:2d:e3:59:c1:83:
                    f6:0e:b0:35:74:20:ec:59:67:71:7c:37:93:31:37:
                    64:47:75:a1:ab:0a:85:e2:23:94:37:22:69:44:91:
                    ea:86:6a:06:8f:56:89:8f:0b:80:ae:af:8c:9b:5a:
                    89:49
                Exponent: 65537 (0x10001)
        X509v3 extensions:
            X509v3 Authority Key Identifier: 
                keyid:17:B9:3C:44:F5:76:4B:60:42:6D:2C:09:9E:E2:5C:B3:CE:BC:C5:62

            X509v3 Subject Key Identifier: 
                CE:2A:D6:50:67:86:3B:EB:6D:70:81:F9:6B:C6:40:7E:4D:62:75:7D
            X509v3 Key Usage: critical
                Digital Signature, Key Encipherment
            X509v3 Basic Constraints: critical
                CA:FALSE
            X509v3 Subject Alternative Name: 
                DNS:www.example.com
            Authority Information Access: 
                CA Issuers - URI:http://ca.example.com/ca.crt
                OCSP - URI:http://ocsp.example.com/ocsp

            X509v3 Certificate Policies: 
                Policy: 0.4.0.194112.1.3

            X509v3 Extended Key Usage: 
                TLS Web Server Authentication, TLS Web Client Authentication
            qcStatements: 
                0.0......F..0......F..0......F...
    Signature Algorithm: sha256WithRSAEncryption
         5a:86:79:a5:91:19:4b:10:e5:5e:ab:d5:d9:2a:ac:a3:db:b6:
         d8:57:cf:a0:e7:e8:83:61:16:e3:eb:47:eb:7e:73:2c:4e:ad:
         e6:5e:7e:cb:7c:4d:ca:c2:c6:9d:02:7d:67:ed:d5:5a:7c:e6:
         42:36:e9:90:1e:49:dc:b5:53:5f:9b:92:7d:47:63:f8:b1:8d:
         9c:16:90:a7:94:1f:3e:5b:41:5b:ed:91:3e:3e:25:57:84:2d:
         34:b9:37:29:85:84:f2:30:23:84:4a:df:f7:e8:88:09:46:a0:
         64:49:9b:f0:cd:3f:47:33:06:f1:e5:bc:d7:cc:14:02:aa:33:
         0f:a6:9f:a0:c3:6b:dc:4c:68:7e:17:45:bb:18:71:0a:0c:32:
         d7:41:e9:13:94:59:7b:52:5c:8c:a7:a1:20:21:dc:73:97:55:
         df:b2:ec:f3:b7:32:e9:67:87:48:68:f8:02:f5:a1:0a:6a:83:
         c6:c1:88:10:55:e3:14:24:9c:cf:3c:2a:0f:e4:a2:4a:9b:d4:
         ec:6f:60:b4:e8:38:e5:e8:f4:72:dc:77:4a:67:82:ca:ea:a0:
         60:97:c6:45:ba:67:44:3a:b6:8c:3f:e0:c9:b4:df:41:fb:7b:
         28:ef:b0:e6:b4:00:0e:0e:53:c4:24:1d:f6:a4:88:5e:c6:76:
         e5:23:1b:b1
-----BEGIN CERTIFICATE-----
MIIEXzCCA0egAwIBAgINAYFVrYxggtdMWqHt1DANBgkqhkiG9w0BAQsFADBBMRUw
EwYDVQQDDAxUZXN0IFN1YkNBIDIxDTALBgNVBAsMBFRlc3QxDDAKBgNVBAoMA01U
RzELMAkGA1UEBhMCREUwHhcNMTkxMTA0MDU1MjU4WhcNMjAxMTA0MDU1MjU4WjBP
MQ0wCwYDVQQLDARUZXN0MQwwCgYDVQQKDANNVEcxEjAQBgNVBAcMCURhcm1zdGFk
dDEPMA0GA1UECAwGSGVzc2VuMQswCQYDVQQGEwJERTCCASIwDQYJKoZIhvcNAQEB
BQADggEPADCCAQoCggEBAJ1SQ/oWBWr28EiOCI1mMS8o/2G/YdivvpD5A+0/hbxo
7EnhlqGkFBTj/6cAo5w2O+3jWhVP+YV+9f6O1vWvkATG3MMiiSYszmfi1lZxa2AZ
M19H2ZttQHvurlxC14xLGu1L6THOhKj4J5FZCamKfduM8FJ2n1ckkUEYjuQ9Ue3o
Z8Lckjn8h2QD+BGVK/+WjErbScJevegWKwd54mSwvOMnTdv1We51/2CcC/JR51TD
ogYUKs7Yo9L7sG3DAHS4ocQdDYPTGdaMvel7ZS3jWcGD9g6wNXQg7FlncXw3kzE3
ZEd1oasKheIjlDciaUSR6oZqBo9WiY8LgK6vjJtaiUkCAwEAAaOCAUYwggFCMB8G
A1UdIwQYMBaAFBe5PET1dktgQm0sCZ7iXLPOvMViMB0GA1UdDgQWBBTOKtZQZ4Y7
621wgflrxkB+TWJ1fTAOBgNVHQ8BAf8EBAMCBaAwDAYDVR0TAQH/BAIwADAaBgNV
HREEEzARgg93d3cuZXhhbXBsZS5jb20wYgYIKwYBBQUHAQEEVjBUMCgGCCsGAQUF
BzAChhxodHRwOi8vY2EuZXhhbXBsZS5jb20vY2EuY3J0MCgGCCsGAQUFBzABhhxo
dHRwOi8vb2NzcC5leGFtcGxlLmNvbS9vY3NwMBQGA1UdIAQNMAswCQYHBACL7EAB
AzAdBgNVHSUEFjAUBggrBgEFBQcDAQYIKwYBBQUHAwIwLQYIKwYBBQUHAQMEITAf
MAgGBgQAjkYBATATBgYEAI5GAQYwCQYHBACORgEGATANBgkqhkiG9w0BAQsFAAOC
AQEAWoZ5pZEZSxDlXqvV2Sqso9u22FfPoOfog2EW4+tH635zLE6t5l5+y3xNysLG
nQJ9Z+3VWnzmQjbpkB5J3LVTX5uSfUdj+LGNnBaQp5QfPltBW+2RPj4lV4QtNLk3
KYWE8jAjhErf9+iICUagZEmb8M0/RzMG8eW818wUAqozD6afoMNr3ExofhdFuxhx
Cgwy10HpE5RZe1JcjKehICHcc5dV37Ls87cy6WeHSGj4AvWhCmqDxsGIEFXjFCSc
zzwqD+SiSpvU7G9gtOg45ej0ctx3SmeCyuqgYJfGRbpnRDq2jD/gybTfQft7KO+w
5rQADg5TxCQd9qSIXsZ25SMbsQ==
-----END CERTIFICATE-----
