Certificate:
    Data:
        Version: 3 (0x2)
        Serial Number:
            03:20:5a:a9:35:03:52:55:63:85:f4:13:20
        Signature Algorithm: sha256WithRSAEncryption
        Issuer: CN = Test SubCA 2, OU = Test, O = MTG, C = DE
        Validity
            Not Before: Nov  4 05:52:58 2019 GMT
            Not After : Nov  4 05:52:58 2020 GMT
        Subject: OU = Test, O = MTG, L = Darmstadt, ST = Hessen, C = DE
        Subject Public Key Info:
            Public Key Algorithm: rsaEncryption
                RSA Public-Key: (2048 bit)
                Modulus:
                    00:9d:52:43:fa:16:05:6a:f6:f0:48:8e:08:8d:66:
                    31:2f:28:ff:61:bf:61:d8:af:be:90:f9:03:ed:3f:
                    85:bc:68:ec:49:e1:96:a1:a4:14:14:e3:ff:a7:00:
                    a3:9c:36:3b:ed:e3:5a:15:4f:f9:85:7e:f5:fe:8e:
                    d6:f5:af:90:04:c6:dc:c3:22:89:26:2c:ce:67:e2:
                    d6:56:71:6b:60:19:33:5f:47:d9:9b:6d:40:7b:ee:
                    ae:5c:42:d7:8c:4b:1a:ed:4b:e9:31:ce:84:a8:f8:
                    27:91:59:09:a9:8a:7d:db:8c:f0:52:76:9f:57:24:
                    91:41:18:8e:e4:3d:51:ed:e8:67:c2:dc:92:39:fc:
                    87:64:03:f8:11:95:2b:ff:96:8c:4a:db:49:c2:5e:
                    bd:e8:16:2b:07:79:e2:64:b0:bc:e3:27:4d:db:f5:
                    59:ee:75:ff:60:9c:0b:f2:51:e7:54:c3:a2:06:14:
                    2a:ce:d8:a3:d2:fb:b0:6d:c3:00:74:b8:a1:c4:1d:
                    0d:83:d3:19:d6:8c:bd:e9:7b:65:2d:e3:59:c1:83:
                    f6:0e:b0:35:74:20:ec:59:67:71:7c:37:93:31:37:
                    64:47:75:a1:ab:0a:85:e2:23:94:37:22:69:44:91:
                    ea:86:6a:06:8f:56:89:8f:0b:80:ae:af:8c:9b:5a:
                    89:49
                Exponent: 65537 (0x10001)
        X509v3 extensions:
            X509v3 Authority Key Identifier: 
                keyid:17:B9:3C:44:F5:76:4B:60:42:6D:2C:09:9E:E2:5C:B3:CE:BC:C5:62

            X509v3 Subject Key Identifier: 
                CE:2A:D6:50:67:86:3B:EB:6D:70:81:F9:6B:C6:40:7E:4D:62:75:7D
            X509v3 Key Usage: critical
                Digital Signature, Key Encipherment
            X509v3 Basic Constraints: critical
                CA:FALSE
            X509v3 Subject Alternative Name: 
                DNS:www.example.com
            Authority Information Access: 
                CA Issuers - URI:http://ca.example.com/ca.crt
                OCSP - URI:http://ocsp.example.com/ocsp

            X509v3 Certificate Policies: 
                Policy: 0.4.0.194112.1.3

            X509v3 Extended Key Usage: 
                TLS Web Server Authentication, TLS Web Client Authentication
            qcStatements: 
                0.0......F..0......F..0......F...
    Signature Algorithm: sha256WithRSAEncryption
         6b:30:14:a4:ac:ff:25:73:44:cb:52:20:ff:70:9b:da:ca:7a:
         df:c8:e2:eb:c2:60:dd:f4:59:f2:d4:bf:a1:ab:8f:1f:39:ff:
         d0:42:4c:77:2f:f7:b1:f1:0e:be:12:a2:dd:db:23:55:7a:d0:
         a0:9e:d2:de:86:1c:99:65:cd:b0:f5:fa:4c:85:32:03:73:5b:
         ad:34:24:3e:9a:c5:22:ae:8b:0c:0b:d5:f3:4d:83:1a:81:62:
         f3:92:57:a3:9b:24:53:14:ef:68:dd:71:38:1d:57:08:cc:2a:
         06:6c:ab:9d:59:25:4f:f8:be:a6:d1:ec:9e:c3:0e:f5:67:77:
         1a:8d:69:53:70:c8:0a:96:cc:14:49:af:37:2e:bd:78:bd:db:
         92:7f:6e:da:2c:67:65:ea:a0:58:73:15:89:58:c8:f4:94:c4:
         b5:58:bb:4a:16:28:04:98:d3:5b:95:3c:aa:46:35:38:51:9a:
         c3:4a:f3:a2:9e:97:cb:26:48:38:16:d2:d4:84:5b:51:a7:e3:
         b4:4d:8c:36:08:50:aa:2c:6b:b6:b1:6a:06:45:3f:3a:ae:a3:
         b1:78:e4:46:eb:c6:aa:eb:6c:35:5f:e9:ff:c8:bf:7d:5a:9b:
         ee:66:5f:b6:17:f9:d7:37:65:3a:24:e5:40:54:61:dd:f2:59:
         9e:a7:ee:f1
-----BEGIN CERTIFICATE-----
MIIEXzCCA0egAwIBAgINAyBaqTUDUlVjhfQTIDANBgkqhkiG9w0BAQsFADBBMRUw
EwYDVQQDDAxUZXN0IFN1YkNBIDIxDTALBgNVBAsMBFRlc3QxDDAKBgNVBAoMA01U
RzELMAkGA1UEBhMCREUwHhcNMTkxMTA0MDU1MjU4WhcNMjAxMTA0MDU1MjU4WjBP
MQ0wCwYDVQQLDARUZXN0MQwwCgYDVQQKDANNVEcxEjAQBgNVBAcMCURhcm1zdGFk
dDEPMA0GA1UECAwGSGVzc2VuMQswCQYDVQQGEwJERTCCASIwDQYJKoZIhvcNAQEB
BQADggEPADCCAQoCggEBAJ1SQ/oWBWr28EiOCI1mMS8o/2G/YdivvpD5A+0/hbxo
7EnhlqGkFBTj/6cAo5w2O+3jWhVP+YV+9f6O1vWvkATG3MMiiSYszmfi1lZxa2AZ
M19H2ZttQHvurlxC14xLGu1L6THOhKj4J5FZCamKfduM8FJ2n1ckkUEYjuQ9Ue3o
Z8Lckjn8h2QD+BGVK/+WjErbScJevegWKwd54mSwvOMnTdv1We51/2CcC/JR51TD
ogYUKs7Yo9L7sG3DAHS4ocQdDYPTGdaMvel7ZS3jWcGD9g6wNXQg7FlncXw3kzE3
ZEd1oasKheIjlDciaUSR6oZqBo9WiY8LgK6vjJtaiUkCAwEAAaOCAUYwggFCMB8G
A1UdIwQYMBaAFBe5PET1dktgQm0sCZ7iXLPOvMViMB0GA1UdDgQWBBTOKtZQZ4Y7
621wgflrxkB+TWJ1fTAOBgNVHQ8BAf8EBAMCBaAwDAYDVR0TAQH/BAIwADAaBgNV
HREEEzARgg93d3cuZXhhbXBsZS5jb20wYgYIKwYBBQUHAQEEVjBUMCgGCCsGAQUF
BzAChhxodHRwOi8vY2EuZXhhbXBsZS5jb20vY2EuY3J0MCgGCCsGAQUFBzABhhxo
dHRwOi8vb2NzcC5leGFtcGxlLmNvbS9vY3NwMBQGA1UdIAQNMAswCQYHBACL7EAB
AzAdBgNVHSUEFjAUBggrBgEFBQcDAQYIKwYBBQUHAwIwLQYIKwYBBQUHAQMEITAf
MAgGBgQAjkYBATATBgYEAI5GAQYwCQYHBACORgEGAzANBgkqhkiG9w0BAQsFAAOC
AQEAazAUpKz/JXNEy1Ig/3Cb2sp638ji68Jg3fRZ8tS/oauPHzn/0EJMdy/3sfEO
vhKi3dsjVXrQoJ7S3oYcmWXNsPX6TIUyA3NbrTQkPprFIq6LDAvV802DGoFi85JX
o5skUxTvaN1xOB1XCMwqBmyrnVklT/i+ptHsnsMO9Wd3Go1pU3DICpbMFEmvNy69
eL3bkn9u2ixnZeqgWHMViVjI9JTEtVi7ShYoBJjTW5U8qkY1OFGaw0rzop6XyyZI
OBbS1IRbUafjtE2MNghQqixrtrFqBkU/Oq6jsXjkRuvGqutsNV/p/8i/fVqb7mZf
thf51zdlOiTlQFRh3fJZnqfu8Q==
-----END CERTIFICATE-----
