Certificate:
    Data:
        Version: 3 (0x2)
        Serial Number:
            0b:3a:e4:37:ea:e4:1c:8c:b6:98:78:e4:2c
        Signature Algorithm: sha256WithRSAEncryption
        Issuer: CN = Test SubCA 2, OU = Test, O = MTG, C = DE
        Validity
            Not Before: Nov  4 05:52:58 2019 GMT
            Not After : Nov  4 05:52:58 2020 GMT
        Subject: OU = Test, O = MTG, L = Darmstadt, ST = Hessen, C = DE
        Subject Public Key Info:
            Public Key Algorithm: rsaEncryption
                RSA Public-Key: (2048 bit)
                Modulus:
                    00:9d:52:43:fa:16:05:6a:f6:f0:48:8e:08:8d:66:
                    31:2f:28:ff:61:bf:61:d8:af:be:90:f9:03:ed:3f:
                    85:bc:68:ec:49:e1:96:a1:a4:14:14:e3:ff:a7:00:
                    a3:9c:36:3b:ed:e3:5a:15:4f:f9:85:7e:f5:fe:8e:
                    d6:f5:af:90:04:c6:dc:c3:22:89:26:2c:ce:67:e2:
                    d6:56:71:6b:60:19:33:5f:47:d9:9b:6d:40:7b:ee:
                    ae:5c:42:d7:8c:4b:1a:ed:4b:e9:31:ce:84:a8:f8:
                    27:91:59:09:a9:8a:7d:db:8c:f0:52:76:9f:57:24:
                    91:41:18:8e:e4:3d:51:ed:e8:67:c2:dc:92:39:fc:
                    87:64:03:f8:11:95:2b:ff:96:8c:4a:db:49:c2:5e:
                    bd:e8:16:2b:07:79:e2:64:b0:bc:e3:27:4d:db:f5:
                    59:ee:75:ff:60:9c:0b:f2:51:e7:54:c3:a2:06:14:
                    2a:ce:d8:a3:d2:fb:b0:6d:c3:00:74:b8:a1:c4:1d:
                    0d:83:d3:19:d6:8c:bd:e9:7b:65:2d:e3:59:c1:83:
                    f6:0e:b0:35:74:20:ec:59:67:71:7c:37:93:31:37:
                    64:47:75:a1:ab:0a:85:e2:23:94:37:22:69:44:91:
                    ea:86:6a:06:8f:56:89:8f:0b:80:ae:af:8c:9b:5a:
                    89:49
                Exponent: 65537 (0x10001)
        X509v3 extensions:
            X509v3 Authority Key Identifier: 
                keyid:17:B9:3C:44:F5:76:4B:60:42:6D:2C:09:9E:E2:5C:B3:CE:BC:C5:62

            X509v3 Subject Key Identifier: 
                CE:2A:D6:50:67:86:3B:EB:6D:70:81:F9:6B:C6:40:7E:4D:62:75:7D
            X509v3 Key Usage: critical
                Digital Signature, Key Encipherment
            X509v3 Basic Constraints: critical
                CA:FALSE
            X509v3 Subject Alternative Name: 
                DNS:www.example.com
            Authority Information Access: 
                CA Issuers - URI:http://ca.example.com/ca.crt
                OCSP - URI:http://ocsp.example.com/ocsp

            X509v3 Certificate Policies: 
                Policy: 0.4.0.194112.1.4
                Policy: 0.4.0.19495.3.1

            X509v3 Extended Key Usage: 
                TLS Web Server Authentication, TLS Web Client Authentication
            qcStatements: 
                0.0......F..0......F..0......F...
    Signature Algorithm: sha256WithRSAEncryption
         56:ad:a6:a3:52:ae:14:db:34:2b:9b:91:23:9e:4e:0a:01:a6:
         bf:59:fe:83:00:f0:69:e7:a5:b1:53:42:44:27:b6:32:a2:4f:
         f6:e5:cd:1e:bd:c1:23:c5:8f:0a:36:39:01:2a:02:86:bc:81:
         e6:5a:75:9a:e4:8f:6d:ac:e2:35:54:6f:88:88:3a:42:4e:ab:
         40:37:a9:b5:50:44:1d:1f:0b:db:72:9f:7f:00:f3:ea:05:f2:
         d8:44:9c:90:5d:e2:b6:fb:11:a6:85:4f:61:51:94:d5:9d:ff:
         1b:2d:67:f3:69:20:b6:b0:16:bf:c2:84:1e:42:07:20:63:93:
         11:ff:0d:ff:75:74:11:9e:e3:4f:0a:28:67:dc:71:ce:14:5d:
         1d:ce:63:77:a1:96:24:4f:04:5e:c2:5f:97:9c:e5:05:b3:82:
         8f:2d:45:ff:35:ff:db:7b:5b:d1:50:d8:ed:28:96:e1:dd:2c:
         3c:91:c0:3a:48:be:49:b0:e3:6b:c5:19:35:6b:8c:58:16:68:
         c2:a9:1e:b2:5d:43:91:03:23:fb:e0:cc:3c:c8:bc:eb:4b:14:
         c5:4c:09:0a:5e:1e:39:b1:7b:99:ff:ba:78:cd:ff:f0:9c:49:
         84:e1:c6:fb:31:ca:df:cc:fe:6f:f2:78:7d:56:91:6b:9a:a6:
         56:00:34:12
-----BEGIN CERTIFICATE-----
MIIEajCCA1KgAwIBAgINCzrkN+rkHIy2mHjkLDANBgkqhkiG9w0BAQsFADBBMRUw
EwYDVQQDDAxUZXN0IFN1YkNBIDIxDTALBgNVBAsMBFRlc3QxDDAKBgNVBAoMA01U
RzELMAkGA1UEBhMCREUwHhcNMTkxMTA0MDU1MjU4WhcNMjAxMTA0MDU1MjU4WjBP
MQ0wCwYDVQQLDARUZXN0MQwwCgYDVQQKDANNVEcxEjAQBgNVBAcMCURhcm1zdGFk
dDEPMA0GA1UECAwGSGVzc2VuMQswCQYDVQQGEwJERTCCASIwDQYJKoZIhvcNAQEB
BQADggEPADCCAQoCggEBAJ1SQ/oWBWr28EiOCI1mMS8o/2G/YdivvpD5A+0/hbxo
7EnhlqGkFBTj/6cAo5w2O+3jWhVP+YV+9f6O1vWvkATG3MMiiSYszmfi1lZxa2AZ
M19H2ZttQHvurlxC14xLGu1L6THOhKj4J5FZCamKfduM8FJ2n1ckkUEYjuQ9Ue3o
Z8Lckjn8h2QD+BGVK/+WjErbScJevegWKwd54mSwvOMnTdv1We51/2CcC/JR51TD
ogYUKs7Yo9L7sG3DAHS4ocQdDYPTGdaMvel7ZS3jWcGD9g6wNXQg7FlncXw3kzE3
ZEd1oasKheIjlDciaUSR6oZqBo9WiY8LgK6vjJtaiUkCAwEAAaOCAVEwggFNMB8G
A1UdIwQYMBaAFBe5PET1dktgQm0sCZ7iXLPOvMViMB0GA1UdDgQWBBTOKtZQZ4Y7
621wgflrxkB+TWJ1fTAOBgNVHQ8BAf8EBAMCBaAwDAYDVR0TAQH/BAIwADAaBgNV
HREEEzARgg93d3cuZXhhbXBsZS5jb20wYgYIKwYBBQUHAQEEVjBUMCgGCCsGAQUF
BzAChhxodHRwOi8vY2EuZXhhbXBsZS5jb20vY2EuY3J0MCgGCCsGAQUFBzABhhxo
dHRwOi8vb2NzcC5leGFtcGxlLmNvbS9vY3NwMB8GA1UdIAQYMBYwCQYHBACL7EAB
BDAJBgcEAIGYJwMBMB0GA1UdJQQWMBQGCCsGAQUFBwMBBggrBgEFBQcDAjAtBggr
BgEFBQcBAwQhMB8wCAYGBACORgEBMBMGBgQAjkYBBjAJBgcEAI5GAQYBMA0GCSqG
SIb3DQEBCwUAA4IBAQBWraajUq4U2zQrm5Ejnk4KAaa/Wf6DAPBp56WxU0JEJ7Yy
ok/25c0evcEjxY8KNjkBKgKGvIHmWnWa5I9trOI1VG+IiDpCTqtAN6m1UEQdHwvb
cp9/APPqBfLYRJyQXeK2+xGmhU9hUZTVnf8bLWfzaSC2sBa/woQeQgcgY5MR/w3/
dXQRnuNPCihn3HHOFF0dzmN3oZYkTwRewl+XnOUFs4KPLUX/Nf/be1vRUNjtKJbh
3Sw8kcA6SL5JsONrxRk1a4xYFmjCqR6yXUORAyP74Mw8yLzrSxTFTAkKXh45sXuZ
/7p4zf/wnEmE4cb7McrfzP5v8nh9VpFrmqZWADQS
-----END CERTIFICATE-----
