Certificate:
    Data:
        Version: 3 (0x2)
        Serial Number:
            07:97:cb:97:de:a2:df:f3:78:31:e6:11:0f
        Signature Algorithm: sha256WithRSAEncryption
        Issuer: CN = Test SubCA 2, OU = Test, O = MTG, C = DE
        Validity
            Not Before: Nov  1 08:03:00 2019 GMT
            Not After : Nov  1 08:03:00 2020 GMT
        Subject: O = MTG, OU = Test, L = Darmstadt, ST = Hessen, C = DE, organizationIdentifier = LEIRO-1234567890
        Subject Public Key Info:
            Public Key Algorithm: rsaEncryption
                RSA Public-Key: (2048 bit)
                Modulus:
                    00:c2:0d:81:71:b4:94:05:bc:cf:99:8a:aa:62:08:
                    f2:2e:63:b2:1e:46:f9:2b:85:98:c3:83:d0:ce:26:
                    ad:76:8f:5c:e7:5b:05:20:25:26:32:19:c2:24:8a:
                    ba:69:a3:eb:ca:10:a4:f3:cf:b5:c6:1e:f6:70:58:
                    96:5b:88:52:6a:88:42:33:85:b8:c6:16:48:4f:01:
                    45:39:3f:e1:6a:b9:06:b5:ef:37:db:79:9e:50:90:
                    57:43:5b:8b:c3:35:0d:b3:41:f4:1b:c2:4a:7f:18:
                    3c:39:2d:4f:bf:2b:a5:71:07:73:33:00:e5:8d:36:
                    9e:fe:8f:72:c5:72:56:08:cc:86:b6:ef:ba:e2:fd:
                    9b:5c:c6:2d:94:ed:2d:64:24:77:e6:67:4d:62:db:
                    94:2e:29:8e:dd:1d:7a:ca:bc:68:fb:15:2c:80:56:
                    d3:dd:e7:3a:8f:98:18:14:4b:11:d9:c4:01:1f:b9:
                    7a:d0:d9:ad:69:11:05:f6:0e:ae:5f:fc:cd:c6:b3:
                    cb:4d:ae:8e:45:18:0a:a8:c0:40:11:28:dc:cd:9f:
                    7a:26:67:5a:47:80:9b:d9:4c:f7:da:5f:6d:13:83:
                    1a:91:92:d1:b9:44:f7:72:6b:97:47:74:71:70:80:
                    d3:d6:73:bf:76:33:5c:70:b8:6f:87:37:3e:7e:8e:
                    75:e5
                Exponent: 65537 (0x10001)
        X509v3 extensions:
            X509v3 Authority Key Identifier: 
                keyid:0C:5E:9C:FE:BA:4B:21:6C:04:1D:C2:5A:B7:E3:88:5F:59:DE:4C:12

            X509v3 Subject Key Identifier: 
                0E:6B:AA:83:A9:B2:4D:5C:85:CD:B1:D2:2F:87:F7:20:CB:36:43:3B
            X509v3 Key Usage: critical
                Digital Signature, Key Encipherment
            X509v3 Basic Constraints: critical
                CA:FALSE
            X509v3 Subject Alternative Name: 
                DNS:www.example.com
            Authority Information Access: 
                CA Issuers - URI:http://ca.example.com/ca.crt
                OCSP - URI:http://ocsp.example.com/ocsp

            X509v3 Certificate Policies: 
                Policy: 0.4.0.194112.1.4
                Policy: 0.4.0.19495.3.1

            X509v3 Extended Key Usage: 
                TLS Web Server Authentication, TLS Web Client Authentication
            qcStatements: 
                0..0......F..0......F..0......F...0...+.......0.......I..0P......'.0F0.0.......'....PSP_IC.'Federal Financial Supervisory Authority..RO-NBR
    Signature Algorithm: sha256WithRSAEncryption
         05:b4:54:40:05:3f:ce:47:fa:31:60:60:3e:6b:32:be:90:96:
         89:0e:2b:8c:79:f1:8b:32:c4:6d:7a:6a:28:21:3a:0a:10:3a:
         9c:f7:af:ce:46:2f:75:a6:4a:a7:08:0f:04:80:1c:50:20:eb:
         3a:b2:37:0a:af:1b:7f:16:27:40:84:49:27:f2:af:d3:7a:be:
         04:01:68:4f:e6:58:28:fa:70:fd:93:37:a2:fd:4a:16:48:88:
         84:f7:0a:ea:d1:9a:cc:22:5b:92:87:7d:34:8d:a5:ec:11:97:
         16:7e:40:b7:da:33:33:4b:e6:2b:e1:81:11:e0:15:38:59:aa:
         fb:8c:0a:7d:89:9e:51:df:e4:cc:64:c4:ee:f4:6a:15:25:46:
         3c:e8:f1:1c:7c:7a:77:f0:a3:5e:39:14:a2:88:07:7a:26:04:
         cf:a6:70:4a:68:6e:9b:e0:02:39:9d:51:62:36:14:7e:d6:52:
         76:45:38:48:05:5c:2e:72:a6:ef:84:43:30:0d:99:95:7e:76:
         61:ad:ba:9c:90:4d:f0:22:f4:82:61:64:af:dc:a7:26:5c:e5:
         ab:14:82:b9:9e:76:9d:3e:13:ae:f9:58:51:60:ea:ba:65:56:
         89:63:d3:75:87:90:5e:e1:24:b4:18:43:eb:ee:42:1b:5d:95:
         55:f0:d9:30
-----BEGIN CERTIFICATE-----
MIIE8TCCA9mgAwIBAgINB5fLl96i3/N4MeYRDzANBgkqhkiG9w0BAQsFADBBMRUw
EwYDVQQDDAxUZXN0IFN1YkNBIDIxDTALBgNVBAsMBFRlc3QxDDAKBgNVBAoMA01U
RzELMAkGA1UEBhMCREUwHhcNMTkxMTAxMDgwMzAwWhcNMjAxMTAxMDgwMzAwWjBq
MQwwCgYDVQQKDANNVEcxDTALBgNVBAsMBFRlc3QxEjAQBgNVBAcMCURhcm1zdGFk
dDEPMA0GA1UECAwGSGVzc2VuMQswCQYDVQQGEwJERTEZMBcGA1UEYQwQTEVJUk8t
MTIzNDU2Nzg5MDCCASIwDQYJKoZIhvcNAQEBBQADggEPADCCAQoCggEBAMINgXG0
lAW8z5mKqmII8i5jsh5G+SuFmMOD0M4mrXaPXOdbBSAlJjIZwiSKummj68oQpPPP
tcYe9nBYlluIUmqIQjOFuMYWSE8BRTk/4Wq5BrXvN9t5nlCQV0Nbi8M1DbNB9BvC
Sn8YPDktT78rpXEHczMA5Y02nv6PcsVyVgjMhrbvuuL9m1zGLZTtLWQkd+ZnTWLb
lC4pjt0desq8aPsVLIBW093nOo+YGBRLEdnEAR+5etDZrWkRBfYOrl/8zcazy02u
jkUYCqjAQBEo3M2feiZnWkeAm9lM99pfbRODGpGS0blE93Jrl0d0cXCA09Zzv3Yz
XHC4b4c3Pn6OdeUCAwEAAaOCAb0wggG5MB8GA1UdIwQYMBaAFAxenP66SyFsBB3C
WrfjiF9Z3kwSMB0GA1UdDgQWBBQOa6qDqbJNXIXNsdIvh/cgyzZDOzAOBgNVHQ8B
Af8EBAMCBaAwDAYDVR0TAQH/BAIwADAaBgNVHREEEzARgg93d3cuZXhhbXBsZS5j
b20wYgYIKwYBBQUHAQEEVjBUMCgGCCsGAQUFBzAChhxodHRwOi8vY2EuZXhhbXBs
ZS5jb20vY2EuY3J0MCgGCCsGAQUFBzABhhxodHRwOi8vb2NzcC5leGFtcGxlLmNv
bS9vY3NwMB8GA1UdIAQYMBYwCQYHBACL7EABBDAJBgcEAIGYJwMBMB0GA1UdJQQW
MBQGCCsGAQUFBwMBBggrBgEFBQcDAjCBmAYIKwYBBQUHAQMEgYswgYgwCAYGBACO
RgEBMBMGBgQAjkYBBjAJBgcEAI5GAQYDMBUGCCsGAQUFBwsCMAkGBwQAi+xJAQIw
UAYGBACBmCcCMEYwEzARBgcEAIGYJwEEDAZQU1BfSUMMJ0ZlZGVyYWwgRmluYW5j
aWFsIFN1cGVydmlzb3J5IEF1dGhvcml0eQwGUk8tTkJSMA0GCSqGSIb3DQEBCwUA
A4IBAQAFtFRABT/OR/oxYGA+azK+kJaJDiuMefGLMsRtemooIToKEDqc96/ORi91
pkqnCA8EgBxQIOs6sjcKrxt/FidAhEkn8q/Ter4EAWhP5lgo+nD9kzei/UoWSIiE
9wrq0ZrMIluSh300jaXsEZcWfkC32jMzS+Yr4YER4BU4War7jAp9iZ5R3+TMZMTu
9GoVJUY86PEcfHp38KNeORSiiAd6JgTPpnBKaG6b4AI5nVFiNhR+1lJ2RThIBVwu
cqbvhEMwDZmVfnZhrbqckE3wIvSCYWSv3KcmXOWrFIK5nnadPhOu+VhRYOq6ZVaJ
Y9N1h5Be4SS0GEPr7kIbXZVV8Nkw
-----END CERTIFICATE-----
