Certificate:
    Data:
        Version: 3 (0x2)
        Serial Number:
            01:42:37:b2:80:96:2e:f9:91:4d:2b:a6:0a
        Signature Algorithm: sha256WithRSAEncryption
        Issuer: CN = Test SubCA 2, OU = Test, O = MTG, C = DE
        Validity
            Not Before: Nov  1 08:03:01 2019 GMT
            Not After : Nov  1 08:03:01 2020 GMT
        Subject: O = MTG, OU = Test, L = Darmstadt, ST = Hessen, C = DE, organizationIdentifier = NTRDE-A 1234556
        Subject Public Key Info:
            Public Key Algorithm: rsaEncryption
                RSA Public-Key: (2048 bit)
                Modulus:
                    00:c2:0d:81:71:b4:94:05:bc:cf:99:8a:aa:62:08:
                    f2:2e:63:b2:1e:46:f9:2b:85:98:c3:83:d0:ce:26:
                    ad:76:8f:5c:e7:5b:05:20:25:26:32:19:c2:24:8a:
                    ba:69:a3:eb:ca:10:a4:f3:cf:b5:c6:1e:f6:70:58:
                    96:5b:88:52:6a:88:42:33:85:b8:c6:16:48:4f:01:
                    45:39:3f:e1:6a:b9:06:b5:ef:37:db:79:9e:50:90:
                    57:43:5b:8b:c3:35:0d:b3:41:f4:1b:c2:4a:7f:18:
                    3c:39:2d:4f:bf:2b:a5:71:07:73:33:00:e5:8d:36:
                    9e:fe:8f:72:c5:72:56:08:cc:86:b6:ef:ba:e2:fd:
                    9b:5c:c6:2d:94:ed:2d:64:24:77:e6:67:4d:62:db:
                    94:2e:29:8e:dd:1d:7a:ca:bc:68:fb:15:2c:80:56:
                    d3:dd:e7:3a:8f:98:18:14:4b:11:d9:c4:01:1f:b9:
                    7a:d0:d9:ad:69:11:05:f6:0e:ae:5f:fc:cd:c6:b3:
                    cb:4d:ae:8e:45:18:0a:a8:c0:40:11:28:dc:cd:9f:
                    7a:26:67:5a:47:80:9b:d9:4c:f7:da:5f:6d:13:83:
                    1a:91:92:d1:b9:44:f7:72:6b:97:47:74:71:70:80:
                    d3:d6:73:bf:76:33:5c:70:b8:6f:87:37:3e:7e:8e:
                    75:e5
                Exponent: 65537 (0x10001)
        X509v3 extensions:
            X509v3 Authority Key Identifier: 
                keyid:0C:5E:9C:FE:BA:4B:21:6C:04:1D:C2:5A:B7:E3:88:5F:59:DE:4C:12

            X509v3 Subject Key Identifier: 
                0E:6B:AA:83:A9:B2:4D:5C:85:CD:B1:D2:2F:87:F7:20:CB:36:43:3B
            X509v3 Key Usage: critical
                Digital Signature, Key Encipherment
            X509v3 Basic Constraints: critical
                CA:FALSE
            X509v3 Subject Alternative Name: 
                DNS:www.example.com
            Authority Information Access: 
                CA Issuers - URI:http://ca.example.com/ca.crt
                OCSP - URI:http://ocsp.example.com/ocsp

            X509v3 Certificate Policies: 
                Policy: 0.4.0.194112.1.4
                Policy: 0.4.0.19495.3.1

            X509v3 Extended Key Usage: 
                TLS Web Server Authentication, TLS Web Client Authentication
            qcStatements: 
                0..0......F..0......F..0......F...0...+.......0.......I..0R......'.0H0.0.......'....PSP_IC.'Federal Financial Supervisory Authority..DE-BAFIN
    Signature Algorithm: sha256WithRSAEncryption
         64:16:eb:6c:ce:a7:15:cc:b9:41:67:ca:21:4c:c6:cb:99:8d:
         15:65:ca:44:97:cb:df:5f:3e:21:8d:ea:20:c7:4d:3d:ff:34:
         3b:3a:02:a5:74:72:cb:e6:ae:03:fb:7f:73:11:5f:67:2f:b0:
         92:07:1f:d9:a2:05:89:63:aa:24:2e:5d:4e:61:ef:a6:5f:8e:
         2c:59:e7:aa:81:88:4e:8e:0f:e3:68:7a:87:40:da:54:5f:2f:
         d9:c9:19:b9:78:52:e4:de:ff:69:26:7d:45:cd:a4:5d:a4:45:
         8d:20:f8:2a:a5:ad:34:f9:3b:60:c2:a3:dc:ac:df:83:6e:e2:
         d1:5f:3e:67:5b:93:ea:d7:c9:5d:71:a0:65:8d:7c:1b:4d:17:
         e1:07:80:1e:a8:30:25:25:94:ee:32:41:17:12:3a:17:ff:40:
         60:e8:40:89:4e:36:b2:a1:2c:c9:46:a6:12:bd:fe:17:f5:5b:
         a3:92:a6:cc:17:e8:74:10:e0:3f:d1:dd:1e:44:15:db:73:e1:
         c2:df:21:ed:15:eb:f6:23:25:21:3d:d5:06:70:34:24:e6:ee:
         20:98:ab:b6:4e:e7:65:ec:f1:56:53:21:3f:47:36:94:4d:38:
         48:77:ac:4e:7f:2c:ef:45:1d:42:b1:f3:8e:d2:c2:48:3a:1a:
         7a:aa:eb:12
-----BEGIN CERTIFICATE-----
MIIE8jCCA9qgAwIBAgINAUI3soCWLvmRTSumCjANBgkqhkiG9w0BAQsFADBBMRUw
EwYDVQQDDAxUZXN0IFN1YkNBIDIxDTALBgNVBAsMBFRlc3QxDDAKBgNVBAoMA01U
RzELMAkGA1UEBhMCREUwHhcNMTkxMTAxMDgwMzAxWhcNMjAxMTAxMDgwMzAxWjBp
MQwwCgYDVQQKDANNVEcxDTALBgNVBAsMBFRlc3QxEjAQBgNVBAcMCURhcm1zdGFk
dDEPMA0GA1UECAwGSGVzc2VuMQswCQYDVQQGEwJERTEYMBYGA1UEYQwPTlRSREUt
QSAxMjM0NTU2MIIBIjANBgkqhkiG9w0BAQEFAAOCAQ8AMIIBCgKCAQEAwg2BcbSU
BbzPmYqqYgjyLmOyHkb5K4WYw4PQziatdo9c51sFICUmMhnCJIq6aaPryhCk88+1
xh72cFiWW4hSaohCM4W4xhZITwFFOT/harkGte8323meUJBXQ1uLwzUNs0H0G8JK
fxg8OS1PvyulcQdzMwDljTae/o9yxXJWCMyGtu+64v2bXMYtlO0tZCR35mdNYtuU
LimO3R16yrxo+xUsgFbT3ec6j5gYFEsR2cQBH7l60NmtaREF9g6uX/zNxrPLTa6O
RRgKqMBAESjczZ96JmdaR4Cb2Uz32l9tE4MakZLRuUT3cmuXR3RxcIDT1nO/djNc
cLhvhzc+fo515QIDAQABo4IBvzCCAbswHwYDVR0jBBgwFoAUDF6c/rpLIWwEHcJa
t+OIX1neTBIwHQYDVR0OBBYEFA5rqoOpsk1chc2x0i+H9yDLNkM7MA4GA1UdDwEB
/wQEAwIFoDAMBgNVHRMBAf8EAjAAMBoGA1UdEQQTMBGCD3d3dy5leGFtcGxlLmNv
bTBiBggrBgEFBQcBAQRWMFQwKAYIKwYBBQUHMAKGHGh0dHA6Ly9jYS5leGFtcGxl
LmNvbS9jYS5jcnQwKAYIKwYBBQUHMAGGHGh0dHA6Ly9vY3NwLmV4YW1wbGUuY29t
L29jc3AwHwYDVR0gBBgwFjAJBgcEAIvsQAEEMAkGBwQAgZgnAwEwHQYDVR0lBBYw
FAYIKwYBBQUHAwEGCCsGAQUFBwMCMIGaBggrBgEFBQcBAwSBjTCBijAIBgYEAI5G
AQEwEwYGBACORgEGMAkGBwQAjkYBBgMwFQYIKwYBBQUHCwIwCQYHBACL7EkBAjBS
BgYEAIGYJwIwSDATMBEGBwQAgZgnAQQMBlBTUF9JQwwnRmVkZXJhbCBGaW5hbmNp
YWwgU3VwZXJ2aXNvcnkgQXV0aG9yaXR5DAhERS1CQUZJTjANBgkqhkiG9w0BAQsF
AAOCAQEAZBbrbM6nFcy5QWfKIUzGy5mNFWXKRJfL318+IY3qIMdNPf80OzoCpXRy
y+auA/t/cxFfZy+wkgcf2aIFiWOqJC5dTmHvpl+OLFnnqoGITo4P42h6h0DaVF8v
2ckZuXhS5N7/aSZ9Rc2kXaRFjSD4KqWtNPk7YMKj3Kzfg27i0V8+Z1uT6tfJXXGg
ZY18G00X4QeAHqgwJSWU7jJBFxI6F/9AYOhAiU42sqEsyUamEr3+F/Vbo5KmzBfo
dBDgP9HdHkQV23Phwt8h7RXr9iMlIT3VBnA0JObuIJirtk7nZezxVlMhP0c2lE04
SHesTn8s70UdQrHzjtLCSDoaeqrrEg==
-----END CERTIFICATE-----
