Certificate:
    Data:
        Version: 3 (0x2)
        Serial Number:
            03:bd:b4:3d:0d:f3:b3:da:4e:ea:ac:8e:c3
        Signature Algorithm: sha256WithRSAEncryption
        Issuer: CN = Test SubCA 2, OU = Test, O = MTG, C = DE
        Validity
            Not Before: Nov  1 08:03:00 2019 GMT
            Not After : Nov  1 08:03:00 2020 GMT
        Subject: O = MTG, OU = Test, L = Darmstadt, ST = Hessen, C = DE, organizationIdentifier = PSDDE-BAFIN_1234567890
        Subject Public Key Info:
            Public Key Algorithm: rsaEncryption
                RSA Public-Key: (2048 bit)
                Modulus:
                    00:c2:0d:81:71:b4:94:05:bc:cf:99:8a:aa:62:08:
                    f2:2e:63:b2:1e:46:f9:2b:85:98:c3:83:d0:ce:26:
                    ad:76:8f:5c:e7:5b:05:20:25:26:32:19:c2:24:8a:
                    ba:69:a3:eb:ca:10:a4:f3:cf:b5:c6:1e:f6:70:58:
                    96:5b:88:52:6a:88:42:33:85:b8:c6:16:48:4f:01:
                    45:39:3f:e1:6a:b9:06:b5:ef:37:db:79:9e:50:90:
                    57:43:5b:8b:c3:35:0d:b3:41:f4:1b:c2:4a:7f:18:
                    3c:39:2d:4f:bf:2b:a5:71:07:73:33:00:e5:8d:36:
                    9e:fe:8f:72:c5:72:56:08:cc:86:b6:ef:ba:e2:fd:
                    9b:5c:c6:2d:94:ed:2d:64:24:77:e6:67:4d:62:db:
                    94:2e:29:8e:dd:1d:7a:ca:bc:68:fb:15:2c:80:56:
                    d3:dd:e7:3a:8f:98:18:14:4b:11:d9:c4:01:1f:b9:
                    7a:d0:d9:ad:69:11:05:f6:0e:ae:5f:fc:cd:c6:b3:
                    cb:4d:ae:8e:45:18:0a:a8:c0:40:11:28:dc:cd:9f:
                    7a:26:67:5a:47:80:9b:d9:4c:f7:da:5f:6d:13:83:
                    1a:91:92:d1:b9:44:f7:72:6b:97:47:74:71:70:80:
                    d3:d6:73:bf:76:33:5c:70:b8:6f:87:37:3e:7e:8e:
                    75:e5
                Exponent: 65537 (0x10001)
        X509v3 extensions:
            X509v3 Authority Key Identifier: 
                keyid:0C:5E:9C:FE:BA:4B:21:6C:04:1D:C2:5A:B7:E3:88:5F:59:DE:4C:12

            X509v3 Subject Key Identifier: 
                0E:6B:AA:83:A9:B2:4D:5C:85:CD:B1:D2:2F:87:F7:20:CB:36:43:3B
            X509v3 Key Usage: critical
                Digital Signature, Key Encipherment
            X509v3 Basic Constraints: critical
                CA:FALSE
            X509v3 Subject Alternative Name: 
                DNS:www.example.com
            Authority Information Access: 
                CA Issuers - URI:http://ca.example.com/ca.crt
                OCSP - URI:http://ocsp.example.com/ocsp

            X509v3 Certificate Policies: 
                Policy: 0.4.0.194112.1.4
                Policy: 0.4.0.19495.3.1

            X509v3 Extended Key Usage: 
                TLS Web Server Authentication, TLS Web Client Authentication
            qcStatements: 
                0..0......F..0......F..0......F...0...+.......0.......I..0R......'.0H0.0.......'....PSP_IC.'Federal Financial Supervisory Authority..DE-BAFIN
    Signature Algorithm: sha256WithRSAEncryption
         04:8d:18:83:d5:6c:8e:d6:a7:d4:7e:c3:fa:a6:e9:c3:17:0e:
         fd:9c:6e:c0:13:5e:be:fd:d2:a3:c6:1e:f5:8b:36:20:b9:e2:
         17:7e:c8:68:8e:94:a0:bd:d8:bd:42:a6:a4:1d:b2:26:da:56:
         89:ce:d8:94:25:d3:30:cd:3f:66:fc:58:02:e6:39:57:0c:e6:
         f8:07:e6:ad:84:e5:c6:95:e5:54:2e:f9:fc:11:5f:8b:8c:0b:
         ef:16:f3:8a:a9:e6:89:e7:e3:c5:c9:f3:ba:1e:67:7c:73:62:
         28:8f:5b:2c:df:54:b6:ed:bb:d4:1d:b9:21:a3:a4:2a:a5:6f:
         1e:22:a5:57:a8:de:59:60:65:5f:cd:54:34:6f:46:65:a1:fa:
         b7:61:1f:5c:33:6d:a5:e0:bf:1a:f3:a5:ea:84:de:72:7e:06:
         f4:07:f4:03:0e:bb:27:50:a3:97:42:1e:4c:30:ee:f0:6f:12:
         4a:4e:04:a2:a3:57:ff:1c:24:63:8e:4d:0d:50:33:1e:12:fa:
         de:27:0a:15:60:92:0d:ba:3c:e4:ef:70:c7:6b:24:af:9f:ce:
         c6:49:32:0b:e0:7b:a0:76:f5:f1:ee:72:72:fa:0b:bd:5b:52:
         81:fc:21:cf:97:75:f4:78:5c:ae:7b:4b:d1:cb:26:f5:02:e0:
         22:dd:19:2a
-----BEGIN CERTIFICATE-----
MIIE+TCCA+GgAwIBAgINA720PQ3zs9pO6qyOwzANBgkqhkiG9w0BAQsFADBBMRUw
EwYDVQQDDAxUZXN0IFN1YkNBIDIxDTALBgNVBAsMBFRlc3QxDDAKBgNVBAoMA01U
RzELMAkGA1UEBhMCREUwHhcNMTkxMTAxMDgwMzAwWhcNMjAxMTAxMDgwMzAwWjBw
MQwwCgYDVQQKDANNVEcxDTALBgNVBAsMBFRlc3QxEjAQBgNVBAcMCURhcm1zdGFk
dDEPMA0GA1UECAwGSGVzc2VuMQswCQYDVQQGEwJERTEfMB0GA1UEYQwWUFNEREUt
QkFGSU5fMTIzNDU2Nzg5MDCCASIwDQYJKoZIhvcNAQEBBQADggEPADCCAQoCggEB
AMINgXG0lAW8z5mKqmII8i5jsh5G+SuFmMOD0M4mrXaPXOdbBSAlJjIZwiSKummj
68oQpPPPtcYe9nBYlluIUmqIQjOFuMYWSE8BRTk/4Wq5BrXvN9t5nlCQV0Nbi8M1
DbNB9BvCSn8YPDktT78rpXEHczMA5Y02nv6PcsVyVgjMhrbvuuL9m1zGLZTtLWQk
d+ZnTWLblC4pjt0desq8aPsVLIBW093nOo+YGBRLEdnEAR+5etDZrWkRBfYOrl/8
zcazy02ujkUYCqjAQBEo3M2feiZnWkeAm9lM99pfbRODGpGS0blE93Jrl0d0cXCA
09Zzv3YzXHC4b4c3Pn6OdeUCAwEAAaOCAb8wggG7MB8GA1UdIwQYMBaAFAxenP66
SyFsBB3CWrfjiF9Z3kwSMB0GA1UdDgQWBBQOa6qDqbJNXIXNsdIvh/cgyzZDOzAO
BgNVHQ8BAf8EBAMCBaAwDAYDVR0TAQH/BAIwADAaBgNVHREEEzARgg93d3cuZXhh
bXBsZS5jb20wYgYIKwYBBQUHAQEEVjBUMCgGCCsGAQUFBzAChhxodHRwOi8vY2Eu
ZXhhbXBsZS5jb20vY2EuY3J0MCgGCCsGAQUFBzABhhxodHRwOi8vb2NzcC5leGFt
cGxlLmNvbS9vY3NwMB8GA1UdIAQYMBYwCQYHBACL7EABBDAJBgcEAIGYJwMBMB0G
A1UdJQQWMBQGCCsGAQUFBwMBBggrBgEFBQcDAjCBmgYIKwYBBQUHAQMEgY0wgYow
CAYGBACORgEBMBMGBgQAjkYBBjAJBgcEAI5GAQYDMBUGCCsGAQUFBwsCMAkGBwQA
i+xJAQIwUgYGBACBmCcCMEgwEzARBgcEAIGYJwEEDAZQU1BfSUMMJ0ZlZGVyYWwg
RmluYW5jaWFsIFN1cGVydmlzb3J5IEF1dGhvcml0eQwIREUtQkFGSU4wDQYJKoZI
hvcNAQELBQADggEBAASNGIPVbI7Wp9R+w/qm6cMXDv2cbsATXr790qPGHvWLNiC5
4hd+yGiOlKC92L1CpqQdsibaVonO2JQl0zDNP2b8WALmOVcM5vgH5q2E5caV5VQu
+fwRX4uMC+8W84qp5onn48XJ87oeZ3xzYiiPWyzfVLbtu9QduSGjpCqlbx4ipVeo
3llgZV/NVDRvRmWh+rdhH1wzbaXgvxrzpeqE3nJ+BvQH9AMOuydQo5dCHkww7vBv
EkpOBKKjV/8cJGOOTQ1QMx4S+t4nChVgkg26POTvcMdrJK+fzsZJMgvge6B29fHu
cnL6C71bUoH8Ic+XdfR4XK57S9HLJvUC4CLdGSo=
-----END CERTIFICATE-----
