Certificate:
    Data:
        Version: 3 (0x2)
        Serial Number:
            0f:72:9d:f5:7b:ad:a6:89:cf:d8:b9:c6:4f
        Signature Algorithm: sha256WithRSAEncryption
        Issuer: CN = Test SubCA 2, OU = Test, O = MTG, C = DE
        Validity
            Not Before: Nov  1 08:03:01 2019 GMT
            Not After : Nov  1 08:03:01 2020 GMT
        Subject: OU = Test, O = MTG, L = Darmstadt, ST = Hessen, C = DE, organizationIdentifier = PSDDE-BAFIN-1234567890
        Subject Public Key Info:
            Public Key Algorithm: rsaEncryption
                RSA Public-Key: (2048 bit)
                Modulus:
                    00:c2:0d:81:71:b4:94:05:bc:cf:99:8a:aa:62:08:
                    f2:2e:63:b2:1e:46:f9:2b:85:98:c3:83:d0:ce:26:
                    ad:76:8f:5c:e7:5b:05:20:25:26:32:19:c2:24:8a:
                    ba:69:a3:eb:ca:10:a4:f3:cf:b5:c6:1e:f6:70:58:
                    96:5b:88:52:6a:88:42:33:85:b8:c6:16:48:4f:01:
                    45:39:3f:e1:6a:b9:06:b5:ef:37:db:79:9e:50:90:
                    57:43:5b:8b:c3:35:0d:b3:41:f4:1b:c2:4a:7f:18:
                    3c:39:2d:4f:bf:2b:a5:71:07:73:33:00:e5:8d:36:
                    9e:fe:8f:72:c5:72:56:08:cc:86:b6:ef:ba:e2:fd:
                    9b:5c:c6:2d:94:ed:2d:64:24:77:e6:67:4d:62:db:
                    94:2e:29:8e:dd:1d:7a:ca:bc:68:fb:15:2c:80:56:
                    d3:dd:e7:3a:8f:98:18:14:4b:11:d9:c4:01:1f:b9:
                    7a:d0:d9:ad:69:11:05:f6:0e:ae:5f:fc:cd:c6:b3:
                    cb:4d:ae:8e:45:18:0a:a8:c0:40:11:28:dc:cd:9f:
                    7a:26:67:5a:47:80:9b:d9:4c:f7:da:5f:6d:13:83:
                    1a:91:92:d1:b9:44:f7:72:6b:97:47:74:71:70:80:
                    d3:d6:73:bf:76:33:5c:70:b8:6f:87:37:3e:7e:8e:
                    75:e5
                Exponent: 65537 (0x10001)
        X509v3 extensions:
            X509v3 Authority Key Identifier: 
                keyid:0C:5E:9C:FE:BA:4B:21:6C:04:1D:C2:5A:B7:E3:88:5F:59:DE:4C:12

            X509v3 Subject Key Identifier: 
                0E:6B:AA:83:A9:B2:4D:5C:85:CD:B1:D2:2F:87:F7:20:CB:36:43:3B
            X509v3 Key Usage: critical
                Digital Signature, Key Encipherment
            X509v3 Basic Constraints: critical
                CA:FALSE
            X509v3 Subject Alternative Name: 
                DNS:www.example.com
            Authority Information Access: 
                CA Issuers - URI:http://ca.example.com/ca.crt
                OCSP - URI:http://ocsp.example.com/ocsp

            X509v3 Certificate Policies: 
                Policy: 0.4.0.194112.1.4
                Policy: 0.4.0.19495.3.1

            X509v3 Extended Key Usage: 
                TLS Web Server Authentication, TLS Web Client Authentication
            qcStatements: 
                0..0......F..0......F..0......F...0...+.......0.......I..0R......'.0H0.0.......'....PSP_PI.'Federal Financial Supervisory Authority..de-BAFIN
    Signature Algorithm: sha256WithRSAEncryption
         2e:b9:8c:ec:85:e6:d4:8d:fa:41:a7:8f:9e:1e:4f:9f:e5:2e:
         32:5c:65:ce:ca:ec:0b:d9:29:44:55:e5:85:40:32:c9:6c:4c:
         7e:95:c6:01:e7:39:d3:64:4f:f5:1f:10:d9:71:63:9f:c0:49:
         ba:40:10:21:16:af:71:9b:a8:b7:f8:3f:83:13:20:75:c8:32:
         6b:ce:db:63:74:39:d8:6e:40:6f:ce:3b:3f:e4:7b:0f:fa:4e:
         46:d7:b3:2c:fc:5e:cf:33:62:53:b1:9e:ef:ce:97:0e:29:1b:
         fc:9f:d8:99:6e:93:09:40:a8:fa:9a:83:72:5c:82:d2:08:e9:
         c3:1c:60:e8:25:50:c1:3d:41:d1:c0:e7:59:54:91:18:04:9a:
         91:76:24:3e:ae:a9:c7:e2:b9:ae:de:4d:0d:af:56:31:87:34:
         7f:cf:cf:f5:11:ca:9a:4a:b5:c5:0a:fc:51:d9:5f:16:5e:65:
         3e:27:76:3f:f5:27:8f:5c:12:43:3f:aa:14:45:5c:fb:32:a5:
         07:da:f9:f1:0f:e7:28:58:77:67:7c:d2:38:ff:7d:d3:eb:0c:
         77:90:46:2a:fb:7a:74:5c:dc:6a:b5:66:91:7c:e8:29:62:65:
         e1:8b:90:28:e5:4d:32:fd:0c:5b:1f:b8:d3:e6:3b:91:63:33:
         f0:e8:50:6d
-----BEGIN CERTIFICATE-----
MIIE+TCCA+GgAwIBAgIND3Kd9XutponP2LnGTzANBgkqhkiG9w0BAQsFADBBMRUw
EwYDVQQDDAxUZXN0IFN1YkNBIDIxDTALBgNVBAsMBFRlc3QxDDAKBgNVBAoMA01U
RzELMAkGA1UEBhMCREUwHhcNMTkxMTAxMDgwMzAxWhcNMjAxMTAxMDgwMzAxWjBw
MQ0wCwYDVQQLDARUZXN0MQwwCgYDVQQKDANNVEcxEjAQBgNVBAcMCURhcm1zdGFk
dDEPMA0GA1UECAwGSGVzc2VuMQswCQYDVQQGEwJERTEfMB0GA1UEYQwWUFNEREUt
QkFGSU4tMTIzNDU2Nzg5MDCCASIwDQYJKoZIhvcNAQEBBQADggEPADCCAQoCggEB
AMINgXG0lAW8z5mKqmII8i5jsh5G+SuFmMOD0M4mrXaPXOdbBSAlJjIZwiSKummj
68oQpPPPtcYe9nBYlluIUmqIQjOFuMYWSE8BRTk/4Wq5BrXvN9t5nlCQV0Nbi8M1
DbNB9BvCSn8YPDktT78rpXEHczMA5Y02nv6PcsVyVgjMhrbvuuL9m1zGLZTtLWQk
d+ZnTWLblC4pjt0desq8aPsVLIBW093nOo+YGBRLEdnEAR+5etDZrWkRBfYOrl/8
zcazy02ujkUYCqjAQBEo3M2feiZnWkeAm9lM99pfbRODGpGS0blE93Jrl0d0cXCA
09Zzv3YzXHC4b4c3Pn6OdeUCAwEAAaOCAb8wggG7MB8GA1UdIwQYMBaAFAxenP66
SyFsBB3CWrfjiF9Z3kwSMB0GA1UdDgQWBBQOa6qDqbJNXIXNsdIvh/cgyzZDOzAO
BgNVHQ8BAf8EBAMCBaAwDAYDVR0TAQH/BAIwADAaBgNVHREEEzARgg93d3cuZXhh
bXBsZS5jb20wYgYIKwYBBQUHAQEEVjBUMCgGCCsGAQUFBzAChhxodHRwOi8vY2Eu
ZXhhbXBsZS5jb20vY2EuY3J0MCgGCCsGAQUFBzABhhxodHRwOi8vb2NzcC5leGFt
cGxlLmNvbS9vY3NwMB8GA1UdIAQYMBYwCQYHBACL7EABBDAJBgcEAIGYJwMBMB0G
A1UdJQQWMBQGCCsGAQUFBwMBBggrBgEFBQcDAjCBmgYIKwYBBQUHAQMEgY0wgYow
CAYGBACORgEBMBMGBgQAjkYBBjAJBgcEAI5GAQYDMBUGCCsGAQUFBwsCMAkGBwQA
i+xJAQIwUgYGBACBmCcCMEgwEzARBgcEAIGYJwECDAZQU1BfUEkMJ0ZlZGVyYWwg
RmluYW5jaWFsIFN1cGVydmlzb3J5IEF1dGhvcml0eQwIZGUtQkFGSU4wDQYJKoZI
hvcNAQELBQADggEBAC65jOyF5tSN+kGnj54eT5/lLjJcZc7K7AvZKURV5YVAMsls
TH6VxgHnOdNkT/UfENlxY5/ASbpAECEWr3GbqLf4P4MTIHXIMmvO22N0OdhuQG/O
Oz/kew/6TkbXsyz8Xs8zYlOxnu/Olw4pG/yf2JlukwlAqPqag3JcgtII6cMcYOgl
UME9QdHA51lUkRgEmpF2JD6uqcfiua7eTQ2vVjGHNH/Pz/URyppKtcUK/FHZXxZe
ZT4ndj/1J49cEkM/qhRFXPsypQfa+fEP5yhYd2d80jj/fdPrDHeQRir7enRc3Gq1
ZpF86CliZeGLkCjlTTL9DFsfuNPmO5FjM/DoUG0=
-----END CERTIFICATE-----
