Certificate:
    Data:
        Version: 3 (0x2)
        Serial Number:
            08:13:f1:da:35:b1:20:41:58:0e:34:73:95
        Signature Algorithm: sha256WithRSAEncryption
        Issuer: CN = Test SubCA 2, OU = Test, O = MTG, C = DE
        Validity
            Not Before: Nov  4 05:52:58 2019 GMT
            Not After : Nov  4 05:52:58 2020 GMT
        Subject: OU = Test, O = MTG, L = Darmstadt, ST = Hessen, C = DE
        Subject Public Key Info:
            Public Key Algorithm: rsaEncryption
                RSA Public-Key: (2048 bit)
                Modulus:
                    00:9d:52:43:fa:16:05:6a:f6:f0:48:8e:08:8d:66:
                    31:2f:28:ff:61:bf:61:d8:af:be:90:f9:03:ed:3f:
                    85:bc:68:ec:49:e1:96:a1:a4:14:14:e3:ff:a7:00:
                    a3:9c:36:3b:ed:e3:5a:15:4f:f9:85:7e:f5:fe:8e:
                    d6:f5:af:90:04:c6:dc:c3:22:89:26:2c:ce:67:e2:
                    d6:56:71:6b:60:19:33:5f:47:d9:9b:6d:40:7b:ee:
                    ae:5c:42:d7:8c:4b:1a:ed:4b:e9:31:ce:84:a8:f8:
                    27:91:59:09:a9:8a:7d:db:8c:f0:52:76:9f:57:24:
                    91:41:18:8e:e4:3d:51:ed:e8:67:c2:dc:92:39:fc:
                    87:64:03:f8:11:95:2b:ff:96:8c:4a:db:49:c2:5e:
                    bd:e8:16:2b:07:79:e2:64:b0:bc:e3:27:4d:db:f5:
                    59:ee:75:ff:60:9c:0b:f2:51:e7:54:c3:a2:06:14:
                    2a:ce:d8:a3:d2:fb:b0:6d:c3:00:74:b8:a1:c4:1d:
                    0d:83:d3:19:d6:8c:bd:e9:7b:65:2d:e3:59:c1:83:
                    f6:0e:b0:35:74:20:ec:59:67:71:7c:37:93:31:37:
                    64:47:75:a1:ab:0a:85:e2:23:94:37:22:69:44:91:
                    ea:86:6a:06:8f:56:89:8f:0b:80:ae:af:8c:9b:5a:
                    89:49
                Exponent: 65537 (0x10001)
        X509v3 extensions:
            X509v3 Authority Key Identifier: 
                keyid:17:B9:3C:44:F5:76:4B:60:42:6D:2C:09:9E:E2:5C:B3:CE:BC:C5:62

            X509v3 Subject Key Identifier: 
                CE:2A:D6:50:67:86:3B:EB:6D:70:81:F9:6B:C6:40:7E:4D:62:75:7D
            X509v3 Key Usage: critical
                Digital Signature, Key Encipherment
            X509v3 Basic Constraints: critical
                CA:FALSE
            X509v3 Subject Alternative Name: 
                DNS:www.example.com
            Authority Information Access: 
                CA Issuers - URI:http://ca.example.com/ca.crt
                OCSP - URI:http://ocsp.example.com/ocsp

            X509v3 Certificate Policies: 
                Policy: 0.4.0.194112.1.4
                Policy: 0.4.0.19495.3.1

            X509v3 Extended Key Usage: 
                TLS Web Server Authentication, TLS Web Client Authentication
            qcStatements: 
                0
0......F..
    Signature Algorithm: sha256WithRSAEncryption
         02:86:df:32:1b:8b:40:33:0f:20:83:bb:60:64:82:18:55:fb:
         34:d7:83:71:11:b6:cf:9e:7c:b7:66:75:98:0e:d1:b4:83:b1:
         d4:94:08:5b:f4:73:3e:c0:38:a0:c4:ad:57:e9:50:ba:bc:a8:
         c5:ee:10:60:69:d3:ce:64:10:21:f0:bb:2d:9f:1f:8a:57:9f:
         5b:ad:56:c0:90:2f:a4:53:37:ff:58:b2:cf:23:c5:c2:e4:36:
         ce:ee:c8:bd:5b:ed:25:03:a8:c5:93:24:b1:51:3b:e2:48:1c:
         c6:ba:6c:73:2d:d8:0d:97:52:f0:51:80:29:58:a5:b7:fd:e6:
         2f:e4:1e:fe:d2:22:d2:79:27:4c:cb:62:bb:a5:c1:22:3b:b5:
         d7:4c:b1:8f:eb:18:d9:64:4d:c8:aa:fe:92:23:6c:49:1c:17:
         fd:eb:41:46:d7:fc:93:ee:54:27:a7:a3:95:3c:8f:ac:96:ee:
         30:78:ab:6a:87:60:da:16:b2:d0:c7:8a:a8:76:1c:22:7b:92:
         16:7c:a4:2b:a7:cc:c2:a1:9c:c4:d2:9b:19:4b:89:88:d1:61:
         42:81:ee:f2:0a:8e:2e:b9:6c:ae:48:95:94:de:0b:52:03:a0:
         23:87:88:85:63:f5:65:60:c0:64:b1:c1:10:fc:ac:d9:12:2f:
         4a:9f:26:c0
-----BEGIN CERTIFICATE-----
MIIEVTCCAz2gAwIBAgINCBPx2jWxIEFYDjRzlTANBgkqhkiG9w0BAQsFADBBMRUw
EwYDVQQDDAxUZXN0IFN1YkNBIDIxDTALBgNVBAsMBFRlc3QxDDAKBgNVBAoMA01U
RzELMAkGA1UEBhMCREUwHhcNMTkxMTA0MDU1MjU4WhcNMjAxMTA0MDU1MjU4WjBP
MQ0wCwYDVQQLDARUZXN0MQwwCgYDVQQKDANNVEcxEjAQBgNVBAcMCURhcm1zdGFk
dDEPMA0GA1UECAwGSGVzc2VuMQswCQYDVQQGEwJERTCCASIwDQYJKoZIhvcNAQEB
BQADggEPADCCAQoCggEBAJ1SQ/oWBWr28EiOCI1mMS8o/2G/YdivvpD5A+0/hbxo
7EnhlqGkFBTj/6cAo5w2O+3jWhVP+YV+9f6O1vWvkATG3MMiiSYszmfi1lZxa2AZ
M19H2ZttQHvurlxC14xLGu1L6THOhKj4J5FZCamKfduM8FJ2n1ckkUEYjuQ9Ue3o
Z8Lckjn8h2QD+BGVK/+WjErbScJevegWKwd54mSwvOMnTdv1We51/2CcC/JR51TD
ogYUKs7Yo9L7sG3DAHS4ocQdDYPTGdaMvel7ZS3jWcGD9g6wNXQg7FlncXw3kzE3
ZEd1oasKheIjlDciaUSR6oZqBo9WiY8LgK6vjJtaiUkCAwEAAaOCATwwggE4MB8G
A1UdIwQYMBaAFBe5PET1dktgQm0sCZ7iXLPOvMViMB0GA1UdDgQWBBTOKtZQZ4Y7
621wgflrxkB+TWJ1fTAOBgNVHQ8BAf8EBAMCBaAwDAYDVR0TAQH/BAIwADAaBgNV
HREEEzARgg93d3cuZXhhbXBsZS5jb20wYgYIKwYBBQUHAQEEVjBUMCgGCCsGAQUF
BzAChhxodHRwOi8vY2EuZXhhbXBsZS5jb20vY2EuY3J0MCgGCCsGAQUFBzABhhxo
dHRwOi8vb2NzcC5leGFtcGxlLmNvbS9vY3NwMB8GA1UdIAQYMBYwCQYHBACL7EAB
BDAJBgcEAIGYJwMBMB0GA1UdJQQWMBQGCCsGAQUFBwMBBggrBgEFBQcDAjAYBggr
BgEFBQcBAwQMMAowCAYGBACORgEBMA0GCSqGSIb3DQEBCwUAA4IBAQACht8yG4tA
Mw8gg7tgZIIYVfs014NxEbbPnny3ZnWYDtG0g7HUlAhb9HM+wDigxK1X6VC6vKjF
7hBgadPOZBAh8Lstnx+KV59brVbAkC+kUzf/WLLPI8XC5DbO7si9W+0lA6jFkySx
UTviSBzGumxzLdgNl1LwUYApWKW3/eYv5B7+0iLSeSdMy2K7pcEiO7XXTLGP6xjZ
ZE3Iqv6SI2xJHBf960FG1/yT7lQnp6OVPI+slu4weKtqh2DaFrLQx4qodhwie5IW
fKQrp8zCoZzE0psZS4mI0WFCge7yCo4uuWyuSJWU3gtSA6Ajh4iFY/VlYMBkscEQ
/KzZEi9KnybA
-----END CERTIFICATE-----
