Certificate:
    Data:
        Version: 3 (0x2)
        Serial Number:
            05:73:70:38:82:44:f6:8b:b6:3f:d2:5a:37
        Signature Algorithm: sha256WithRSAEncryption
        Issuer: CN = Test SubCA 2, OU = Test, O = MTG, C = DE
        Validity
            Not Before: Nov  1 08:03:01 2019 GMT
            Not After : Nov  1 08:03:01 2020 GMT
        Subject: OU = Test, O = MTG, L = Darmstadt, ST = Hessen, C = DE, organizationIdentifier = PSDDE-BAFIN-1234567890
        Subject Public Key Info:
            Public Key Algorithm: rsaEncryption
                RSA Public-Key: (2048 bit)
                Modulus:
                    00:c2:0d:81:71:b4:94:05:bc:cf:99:8a:aa:62:08:
                    f2:2e:63:b2:1e:46:f9:2b:85:98:c3:83:d0:ce:26:
                    ad:76:8f:5c:e7:5b:05:20:25:26:32:19:c2:24:8a:
                    ba:69:a3:eb:ca:10:a4:f3:cf:b5:c6:1e:f6:70:58:
                    96:5b:88:52:6a:88:42:33:85:b8:c6:16:48:4f:01:
                    45:39:3f:e1:6a:b9:06:b5:ef:37:db:79:9e:50:90:
                    57:43:5b:8b:c3:35:0d:b3:41:f4:1b:c2:4a:7f:18:
                    3c:39:2d:4f:bf:2b:a5:71:07:73:33:00:e5:8d:36:
                    9e:fe:8f:72:c5:72:56:08:cc:86:b6:ef:ba:e2:fd:
                    9b:5c:c6:2d:94:ed:2d:64:24:77:e6:67:4d:62:db:
                    94:2e:29:8e:dd:1d:7a:ca:bc:68:fb:15:2c:80:56:
                    d3:dd:e7:3a:8f:98:18:14:4b:11:d9:c4:01:1f:b9:
                    7a:d0:d9:ad:69:11:05:f6:0e:ae:5f:fc:cd:c6:b3:
                    cb:4d:ae:8e:45:18:0a:a8:c0:40:11:28:dc:cd:9f:
                    7a:26:67:5a:47:80:9b:d9:4c:f7:da:5f:6d:13:83:
                    1a:91:92:d1:b9:44:f7:72:6b:97:47:74:71:70:80:
                    d3:d6:73:bf:76:33:5c:70:b8:6f:87:37:3e:7e:8e:
                    75:e5
                Exponent: 65537 (0x10001)
        X509v3 extensions:
            X509v3 Authority Key Identifier: 
                keyid:0C:5E:9C:FE:BA:4B:21:6C:04:1D:C2:5A:B7:E3:88:5F:59:DE:4C:12

            X509v3 Subject Key Identifier: 
                0E:6B:AA:83:A9:B2:4D:5C:85:CD:B1:D2:2F:87:F7:20:CB:36:43:3B
            X509v3 Key Usage: critical
                Digital Signature, Key Encipherment
            X509v3 Basic Constraints: critical
                CA:FALSE
            X509v3 Subject Alternative Name: 
                DNS:www.example.com
            Authority Information Access: 
                CA Issuers - URI:http://ca.example.com/ca.crt
                OCSP - URI:http://ocsp.example.com/ocsp

            X509v3 Certificate Policies: 
                Policy: 0.4.0.194112.1.4
                Policy: 0.4.0.19495.3.1

            X509v3 Extended Key Usage: 
                TLS Web Server Authentication, TLS Web Client Authentication
            qcStatements: 
                0|0......F..0......F..0......F...0...+.......0.......I..0D......'.0:0.0.......'....PSP_PI..Financial Conduct Authority..GB-FCA
    Signature Algorithm: sha256WithRSAEncryption
         70:62:e1:aa:65:bd:33:51:c0:d2:42:67:86:82:1c:65:d7:4f:
         81:34:a6:2a:0a:08:85:4c:0f:ac:d2:75:47:b4:49:50:c9:11:
         6c:92:ce:19:90:0e:20:cc:fc:da:35:18:da:90:2f:22:fb:6b:
         c5:26:7d:2a:3d:16:79:7b:4d:9d:0f:f7:f5:33:14:a2:0c:bc:
         af:10:f7:08:e2:42:0f:f9:fb:26:be:2f:35:86:32:11:e1:37:
         58:b1:4c:89:2f:54:34:92:3b:1c:f5:5f:92:7a:76:d9:ff:13:
         45:82:98:76:6e:e3:36:a6:6e:f0:88:c5:98:ca:7c:ac:16:50:
         81:ab:64:10:e7:34:d7:f3:36:66:53:a6:6d:9a:78:90:c7:11:
         f9:01:72:8f:57:a6:60:f8:dd:89:3f:d2:6e:7d:8a:58:51:a7:
         6e:c0:bd:cd:f4:98:32:bf:aa:ae:2d:0d:f5:08:92:db:b3:49:
         e1:46:a3:d7:7a:a3:f5:cb:e4:2c:76:31:b8:10:69:d1:24:03:
         60:d8:94:e5:bd:74:06:1a:27:38:7b:87:9d:fd:e0:f4:89:ec:
         22:e0:3a:95:98:9b:30:d2:2b:9b:e9:9b:25:ad:18:a6:b6:41:
         34:57:ac:c7:b8:12:96:b9:f4:98:0f:6f:88:3d:00:27:81:77:
         61:e3:57:e0
-----BEGIN CERTIFICATE-----
MIIE6TCCA9GgAwIBAgINBXNwOIJE9ou2P9JaNzANBgkqhkiG9w0BAQsFADBBMRUw
EwYDVQQDDAxUZXN0IFN1YkNBIDIxDTALBgNVBAsMBFRlc3QxDDAKBgNVBAoMA01U
RzELMAkGA1UEBhMCREUwHhcNMTkxMTAxMDgwMzAxWhcNMjAxMTAxMDgwMzAxWjBw
MQ0wCwYDVQQLDARUZXN0MQwwCgYDVQQKDANNVEcxEjAQBgNVBAcMCURhcm1zdGFk
dDEPMA0GA1UECAwGSGVzc2VuMQswCQYDVQQGEwJERTEfMB0GA1UEYQwWUFNEREUt
QkFGSU4tMTIzNDU2Nzg5MDCCASIwDQYJKoZIhvcNAQEBBQADggEPADCCAQoCggEB
AMINgXG0lAW8z5mKqmII8i5jsh5G+SuFmMOD0M4mrXaPXOdbBSAlJjIZwiSKummj
68oQpPPPtcYe9nBYlluIUmqIQjOFuMYWSE8BRTk/4Wq5BrXvN9t5nlCQV0Nbi8M1
DbNB9BvCSn8YPDktT78rpXEHczMA5Y02nv6PcsVyVgjMhrbvuuL9m1zGLZTtLWQk
d+ZnTWLblC4pjt0desq8aPsVLIBW093nOo+YGBRLEdnEAR+5etDZrWkRBfYOrl/8
zcazy02ujkUYCqjAQBEo3M2feiZnWkeAm9lM99pfbRODGpGS0blE93Jrl0d0cXCA
09Zzv3YzXHC4b4c3Pn6OdeUCAwEAAaOCAa8wggGrMB8GA1UdIwQYMBaAFAxenP66
SyFsBB3CWrfjiF9Z3kwSMB0GA1UdDgQWBBQOa6qDqbJNXIXNsdIvh/cgyzZDOzAO
BgNVHQ8BAf8EBAMCBaAwDAYDVR0TAQH/BAIwADAaBgNVHREEEzARgg93d3cuZXhh
bXBsZS5jb20wYgYIKwYBBQUHAQEEVjBUMCgGCCsGAQUFBzAChhxodHRwOi8vY2Eu
ZXhhbXBsZS5jb20vY2EuY3J0MCgGCCsGAQUFBzABhhxodHRwOi8vb2NzcC5leGFt
cGxlLmNvbS9vY3NwMB8GA1UdIAQYMBYwCQYHBACL7EABBDAJBgcEAIGYJwMBMB0G
A1UdJQQWMBQGCCsGAQUFBwMBBggrBgEFBQcDAjCBigYIKwYBBQUHAQMEfjB8MAgG
BgQAjkYBATATBgYEAI5GAQYwCQYHBACORgEGAzAVBggrBgEFBQcLAjAJBgcEAIvs
SQECMEQGBgQAgZgnAjA6MBMwEQYHBACBmCcBAgwGUFNQX1BJDBtGaW5hbmNpYWwg
Q29uZHVjdCBBdXRob3JpdHkMBkdCLUZDQTANBgkqhkiG9w0BAQsFAAOCAQEAcGLh
qmW9M1HA0kJnhoIcZddPgTSmKgoIhUwPrNJ1R7RJUMkRbJLOGZAOIMz82jUY2pAv
IvtrxSZ9Kj0WeXtNnQ/39TMUogy8rxD3COJCD/n7Jr4vNYYyEeE3WLFMiS9UNJI7
HPVfknp22f8TRYKYdm7jNqZu8IjFmMp8rBZQgatkEOc01/M2ZlOmbZp4kMcR+QFy
j1emYPjdiT/Sbn2KWFGnbsC9zfSYMr+qri0N9QiS27NJ4Uaj13qj9cvkLHYxuBBp
0SQDYNiU5b10BhonOHuHnf3g9InsIuA6lZibMNIrm+mbJa0YprZBNFesx7gSlrn0
mA9viD0AJ4F3YeNX4A==
-----END CERTIFICATE-----
