Certificate:
    Data:
        Version: 3 (0x2)
        Serial Number:
            0e:08:c1:4d:88:46:3a:29:88:d5:a2:bc:e5
        Signature Algorithm: sha256WithRSAEncryption
        Issuer: CN = Test SubCA 2, OU = Test, O = MTG, C = DE
        Validity
            Not Before: Nov  4 05:52:58 2019 GMT
            Not After : Nov  4 05:52:58 2020 GMT
        Subject: OU = Test, O = MTG, L = Darmstadt, ST = Hessen, C = DE
        Subject Public Key Info:
            Public Key Algorithm: rsaEncryption
                RSA Public-Key: (2048 bit)
                Modulus:
                    00:9d:52:43:fa:16:05:6a:f6:f0:48:8e:08:8d:66:
                    31:2f:28:ff:61:bf:61:d8:af:be:90:f9:03:ed:3f:
                    85:bc:68:ec:49:e1:96:a1:a4:14:14:e3:ff:a7:00:
                    a3:9c:36:3b:ed:e3:5a:15:4f:f9:85:7e:f5:fe:8e:
                    d6:f5:af:90:04:c6:dc:c3:22:89:26:2c:ce:67:e2:
                    d6:56:71:6b:60:19:33:5f:47:d9:9b:6d:40:7b:ee:
                    ae:5c:42:d7:8c:4b:1a:ed:4b:e9:31:ce:84:a8:f8:
                    27:91:59:09:a9:8a:7d:db:8c:f0:52:76:9f:57:24:
                    91:41:18:8e:e4:3d:51:ed:e8:67:c2:dc:92:39:fc:
                    87:64:03:f8:11:95:2b:ff:96:8c:4a:db:49:c2:5e:
                    bd:e8:16:2b:07:79:e2:64:b0:bc:e3:27:4d:db:f5:
                    59:ee:75:ff:60:9c:0b:f2:51:e7:54:c3:a2:06:14:
                    2a:ce:d8:a3:d2:fb:b0:6d:c3:00:74:b8:a1:c4:1d:
                    0d:83:d3:19:d6:8c:bd:e9:7b:65:2d:e3:59:c1:83:
                    f6:0e:b0:35:74:20:ec:59:67:71:7c:37:93:31:37:
                    64:47:75:a1:ab:0a:85:e2:23:94:37:22:69:44:91:
                    ea:86:6a:06:8f:56:89:8f:0b:80:ae:af:8c:9b:5a:
                    89:49
                Exponent: 65537 (0x10001)
        X509v3 extensions:
            X509v3 Authority Key Identifier: 
                keyid:17:B9:3C:44:F5:76:4B:60:42:6D:2C:09:9E:E2:5C:B3:CE:BC:C5:62

            X509v3 Subject Key Identifier: 
                CE:2A:D6:50:67:86:3B:EB:6D:70:81:F9:6B:C6:40:7E:4D:62:75:7D
            X509v3 Key Usage: critical
                Digital Signature, Key Encipherment
            X509v3 Basic Constraints: critical
                CA:FALSE
            X509v3 Subject Alternative Name: 
                DNS:www.example.com
            Authority Information Access: 
                CA Issuers - URI:http://ca.example.com/ca.crt
                OCSP - URI:http://ocsp.example.com/ocsp

            X509v3 Certificate Policies: 
                Policy: 0.4.0.194112.1.0

            X509v3 Extended Key Usage: 
                TLS Web Server Authentication, TLS Web Client Authentication
            qcStatements: 
                0.0......F..0......F..0......F...
    Signature Algorithm: sha256WithRSAEncryption
         66:69:a3:29:55:69:b0:71:90:c1:6c:47:5b:98:54:5c:3a:ad:
         38:63:9c:f1:30:91:0c:90:dc:b5:ee:27:27:43:5e:f8:8f:a2:
         21:16:e1:bf:37:fb:22:73:79:53:f3:1e:51:0e:ee:9e:48:c5:
         19:7b:e2:a0:02:9a:99:18:75:93:67:36:14:49:c4:56:8c:dd:
         19:29:fe:e2:e9:a1:84:15:54:3e:0e:7d:e1:54:78:a8:2d:5a:
         a6:d5:49:4c:24:a6:58:87:fa:f3:80:7a:aa:df:56:92:26:db:
         41:cd:b2:41:96:90:70:4b:1e:a6:09:61:8f:f2:f4:52:17:a7:
         59:47:69:f2:13:2c:d5:27:9e:a7:bb:68:43:a2:1b:bc:06:cc:
         63:1a:1b:87:92:e5:b0:1d:af:62:36:be:ef:61:e0:af:a0:47:
         73:0f:fd:1c:68:d0:3f:5a:1a:e8:19:1a:5b:72:b5:87:35:d1:
         15:8b:42:e6:4d:59:76:3f:00:19:7e:15:af:a0:93:e6:89:cb:
         69:f5:93:5d:0e:69:54:f3:b5:39:20:43:34:76:95:88:64:af:
         f7:06:8b:cc:b6:3b:53:97:d1:bc:17:43:6f:1a:60:19:da:fd:
         b7:d4:de:3f:4e:73:61:f8:7b:25:39:df:a7:66:71:43:e9:2f:
         63:6c:ea:24
-----BEGIN CERTIFICATE-----
MIIEXzCCA0egAwIBAgINDgjBTYhGOimI1aK85TANBgkqhkiG9w0BAQsFADBBMRUw
EwYDVQQDDAxUZXN0IFN1YkNBIDIxDTALBgNVBAsMBFRlc3QxDDAKBgNVBAoMA01U
RzELMAkGA1UEBhMCREUwHhcNMTkxMTA0MDU1MjU4WhcNMjAxMTA0MDU1MjU4WjBP
MQ0wCwYDVQQLDARUZXN0MQwwCgYDVQQKDANNVEcxEjAQBgNVBAcMCURhcm1zdGFk
dDEPMA0GA1UECAwGSGVzc2VuMQswCQYDVQQGEwJERTCCASIwDQYJKoZIhvcNAQEB
BQADggEPADCCAQoCggEBAJ1SQ/oWBWr28EiOCI1mMS8o/2G/YdivvpD5A+0/hbxo
7EnhlqGkFBTj/6cAo5w2O+3jWhVP+YV+9f6O1vWvkATG3MMiiSYszmfi1lZxa2AZ
M19H2ZttQHvurlxC14xLGu1L6THOhKj4J5FZCamKfduM8FJ2n1ckkUEYjuQ9Ue3o
Z8Lckjn8h2QD+BGVK/+WjErbScJevegWKwd54mSwvOMnTdv1We51/2CcC/JR51TD
ogYUKs7Yo9L7sG3DAHS4ocQdDYPTGdaMvel7ZS3jWcGD9g6wNXQg7FlncXw3kzE3
ZEd1oasKheIjlDciaUSR6oZqBo9WiY8LgK6vjJtaiUkCAwEAAaOCAUYwggFCMB8G
A1UdIwQYMBaAFBe5PET1dktgQm0sCZ7iXLPOvMViMB0GA1UdDgQWBBTOKtZQZ4Y7
621wgflrxkB+TWJ1fTAOBgNVHQ8BAf8EBAMCBaAwDAYDVR0TAQH/BAIwADAaBgNV
HREEEzARgg93d3cuZXhhbXBsZS5jb20wYgYIKwYBBQUHAQEEVjBUMCgGCCsGAQUF
BzAChhxodHRwOi8vY2EuZXhhbXBsZS5jb20vY2EuY3J0MCgGCCsGAQUFBzABhhxo
dHRwOi8vb2NzcC5leGFtcGxlLmNvbS9vY3NwMBQGA1UdIAQNMAswCQYHBACL7EAB
ADAdBgNVHSUEFjAUBggrBgEFBQcDAQYIKwYBBQUHAwIwLQYIKwYBBQUHAQMEITAf
MAgGBgQAjkYBATATBgYEAI5GAQYwCQYHBACORgEGAjANBgkqhkiG9w0BAQsFAAOC
AQEAZmmjKVVpsHGQwWxHW5hUXDqtOGOc8TCRDJDcte4nJ0Ne+I+iIRbhvzf7InN5
U/MeUQ7unkjFGXvioAKamRh1k2c2FEnEVozdGSn+4umhhBVUPg594VR4qC1aptVJ
TCSmWIf684B6qt9WkibbQc2yQZaQcEsepglhj/L0UhenWUdp8hMs1Seep7toQ6Ib
vAbMYxobh5LlsB2vYja+72Hgr6BHcw/9HGjQP1oa6BkaW3K1hzXRFYtC5k1Zdj8A
GX4Vr6CT5onLafWTXQ5pVPO1OSBDNHaViGSv9waLzLY7U5fRvBdDbxpgGdr9t9Te
P05zYfh7JTnfp2ZxQ+kvY2zqJA==
-----END CERTIFICATE-----
