Certificate:
    Data:
        Version: 3 (0x2)
        Serial Number:
            0b:91:55:27:44:05:12:ba:7a:70:c9:b3:62
        Signature Algorithm: sha256WithRSAEncryption
        Issuer: CN = Test SubCA 2, OU = Test, O = MTG, C = DE
        Validity
            Not Before: Nov  1 08:03:01 2019 GMT
            Not After : Nov  1 08:03:01 2020 GMT
        Subject: OU = Test, O = MTG, L = Darmstadt, ST = Hessen, C = DE, organizationIdentifier = PSDDE-BAFIN-1234567890
        Subject Public Key Info:
            Public Key Algorithm: rsaEncryption
                RSA Public-Key: (2048 bit)
                Modulus:
                    00:c2:0d:81:71:b4:94:05:bc:cf:99:8a:aa:62:08:
                    f2:2e:63:b2:1e:46:f9:2b:85:98:c3:83:d0:ce:26:
                    ad:76:8f:5c:e7:5b:05:20:25:26:32:19:c2:24:8a:
                    ba:69:a3:eb:ca:10:a4:f3:cf:b5:c6:1e:f6:70:58:
                    96:5b:88:52:6a:88:42:33:85:b8:c6:16:48:4f:01:
                    45:39:3f:e1:6a:b9:06:b5:ef:37:db:79:9e:50:90:
                    57:43:5b:8b:c3:35:0d:b3:41:f4:1b:c2:4a:7f:18:
                    3c:39:2d:4f:bf:2b:a5:71:07:73:33:00:e5:8d:36:
                    9e:fe:8f:72:c5:72:56:08:cc:86:b6:ef:ba:e2:fd:
                    9b:5c:c6:2d:94:ed:2d:64:24:77:e6:67:4d:62:db:
                    94:2e:29:8e:dd:1d:7a:ca:bc:68:fb:15:2c:80:56:
                    d3:dd:e7:3a:8f:98:18:14:4b:11:d9:c4:01:1f:b9:
                    7a:d0:d9:ad:69:11:05:f6:0e:ae:5f:fc:cd:c6:b3:
                    cb:4d:ae:8e:45:18:0a:a8:c0:40:11:28:dc:cd:9f:
                    7a:26:67:5a:47:80:9b:d9:4c:f7:da:5f:6d:13:83:
                    1a:91:92:d1:b9:44:f7:72:6b:97:47:74:71:70:80:
                    d3:d6:73:bf:76:33:5c:70:b8:6f:87:37:3e:7e:8e:
                    75:e5
                Exponent: 65537 (0x10001)
        X509v3 extensions:
            X509v3 Authority Key Identifier: 
                keyid:0C:5E:9C:FE:BA:4B:21:6C:04:1D:C2:5A:B7:E3:88:5F:59:DE:4C:12

            X509v3 Subject Key Identifier: 
                0E:6B:AA:83:A9:B2:4D:5C:85:CD:B1:D2:2F:87:F7:20:CB:36:43:3B
            X509v3 Key Usage: critical
                Digital Signature, Key Encipherment
            X509v3 Basic Constraints: critical
                CA:FALSE
            X509v3 Subject Alternative Name: 
                DNS:www.example.com
            Authority Information Access: 
                CA Issuers - URI:http://ca.example.com/ca.crt
                OCSP - URI:http://ocsp.example.com/ocsp

            X509v3 Certificate Policies: 
                Policy: 0.4.0.194112.1.4
                Policy: 0.4.0.19495.3.1

            X509v3 Extended Key Usage: 
                TLS Web Server Authentication, TLS Web Client Authentication
            qcStatements: 
                0..0......F..0......F..0......F...0...+.......0.......I..0e......'.0[0&0.......'....PSP_AS0.......'....PSP_AS.'Federal Financial Supervisory Authority..DE-BAFIN
    Signature Algorithm: sha256WithRSAEncryption
         10:a2:47:8e:6e:47:bc:7a:dc:d5:50:a7:82:51:fb:50:95:60:
         03:35:f4:2d:24:84:35:86:3c:ee:34:ae:ca:53:48:4c:35:dc:
         a9:2b:0f:c7:f0:d1:02:fb:10:ef:e2:70:32:1c:d5:8e:a7:0e:
         48:30:5a:82:f2:52:07:ad:17:db:e9:75:48:8d:78:30:d8:71:
         7b:14:05:ae:31:87:d4:5c:5c:e4:5d:a2:85:f6:64:81:3b:2f:
         55:f4:c2:24:de:a5:25:b4:27:e9:c0:ac:3a:4b:05:07:3a:41:
         8c:8a:f2:4f:b1:c4:e8:cf:a1:51:c6:71:8a:5e:6d:9f:d4:52:
         05:1c:2c:24:fa:ef:78:76:8d:37:c0:e8:0b:ec:0e:a4:44:ae:
         2b:7b:51:cb:23:87:26:1d:25:a7:4e:91:d5:cc:26:ca:31:a4:
         d5:33:df:a3:c1:62:b5:a7:a7:30:a2:34:a6:92:4d:1d:a2:5a:
         ad:70:23:fc:67:1b:8c:fc:ff:a5:d7:41:68:7c:95:92:89:68:
         d8:d7:12:f1:3a:e1:ec:d4:46:21:d3:a6:0d:4c:a6:e4:0f:af:
         ff:f2:83:54:30:62:70:a9:59:60:c2:58:39:c0:72:34:05:12:
         de:a0:85:c1:56:e9:06:67:ef:fa:bb:f7:e0:f6:e1:fc:8f:02:
         4f:98:05:6e
-----BEGIN CERTIFICATE-----
MIIFDDCCA/SgAwIBAgINC5FVJ0QFErp6cMmzYjANBgkqhkiG9w0BAQsFADBBMRUw
EwYDVQQDDAxUZXN0IFN1YkNBIDIxDTALBgNVBAsMBFRlc3QxDDAKBgNVBAoMA01U
RzELMAkGA1UEBhMCREUwHhcNMTkxMTAxMDgwMzAxWhcNMjAxMTAxMDgwMzAxWjBw
MQ0wCwYDVQQLDARUZXN0MQwwCgYDVQQKDANNVEcxEjAQBgNVBAcMCURhcm1zdGFk
dDEPMA0GA1UECAwGSGVzc2VuMQswCQYDVQQGEwJERTEfMB0GA1UEYQwWUFNEREUt
QkFGSU4tMTIzNDU2Nzg5MDCCASIwDQYJKoZIhvcNAQEBBQADggEPADCCAQoCggEB
AMINgXG0lAW8z5mKqmII8i5jsh5G+SuFmMOD0M4mrXaPXOdbBSAlJjIZwiSKummj
68oQpPPPtcYe9nBYlluIUmqIQjOFuMYWSE8BRTk/4Wq5BrXvN9t5nlCQV0Nbi8M1
DbNB9BvCSn8YPDktT78rpXEHczMA5Y02nv6PcsVyVgjMhrbvuuL9m1zGLZTtLWQk
d+ZnTWLblC4pjt0desq8aPsVLIBW093nOo+YGBRLEdnEAR+5etDZrWkRBfYOrl/8
zcazy02ujkUYCqjAQBEo3M2feiZnWkeAm9lM99pfbRODGpGS0blE93Jrl0d0cXCA
09Zzv3YzXHC4b4c3Pn6OdeUCAwEAAaOCAdIwggHOMB8GA1UdIwQYMBaAFAxenP66
SyFsBB3CWrfjiF9Z3kwSMB0GA1UdDgQWBBQOa6qDqbJNXIXNsdIvh/cgyzZDOzAO
BgNVHQ8BAf8EBAMCBaAwDAYDVR0TAQH/BAIwADAaBgNVHREEEzARgg93d3cuZXhh
bXBsZS5jb20wYgYIKwYBBQUHAQEEVjBUMCgGCCsGAQUFBzAChhxodHRwOi8vY2Eu
ZXhhbXBsZS5jb20vY2EuY3J0MCgGCCsGAQUFBzABhhxodHRwOi8vb2NzcC5leGFt
cGxlLmNvbS9vY3NwMB8GA1UdIAQYMBYwCQYHBACL7EABBDAJBgcEAIGYJwMBMB0G
A1UdJQQWMBQGCCsGAQUFBwMBBggrBgEFBQcDAjCBrQYIKwYBBQUHAQMEgaAwgZ0w
CAYGBACORgEBMBMGBgQAjkYBBjAJBgcEAI5GAQYDMBUGCCsGAQUFBwsCMAkGBwQA
i+xJAQIwZQYGBACBmCcCMFswJjARBgcEAIGYJwEBDAZQU1BfQVMwEQYHBACBmCcB
AQwGUFNQX0FTDCdGZWRlcmFsIEZpbmFuY2lhbCBTdXBlcnZpc29yeSBBdXRob3Jp
dHkMCERFLUJBRklOMA0GCSqGSIb3DQEBCwUAA4IBAQAQokeObke8etzVUKeCUftQ
lWADNfQtJIQ1hjzuNK7KU0hMNdypKw/H8NEC+xDv4nAyHNWOpw5IMFqC8lIHrRfb
6XVIjXgw2HF7FAWuMYfUXFzkXaKF9mSBOy9V9MIk3qUltCfpwKw6SwUHOkGMivJP
scToz6FRxnGKXm2f1FIFHCwk+u94do03wOgL7A6kRK4re1HLI4cmHSWnTpHVzCbK
MaTVM9+jwWK1p6cwojSmkk0dolqtcCP8ZxuM/P+l10FofJWSiWjY1xLxOuHs1EYh
06YNTKbkD6//8oNUMGJwqVlgwlg5wHI0BRLeoIXBVukGZ+/6u/fg9uH8jwJPmAVu
-----END CERTIFICATE-----
