Certificate:
    Data:
        Version: 3 (0x2)
        Serial Number:
            0d:3e:14:bf:e6:4b:c7:7e:ac:5f:99:6d:e8
        Signature Algorithm: sha256WithRSAEncryption
        Issuer: CN = Test SubCA 2, OU = Test, O = MTG, C = DE
        Validity
            Not Before: Nov  1 08:03:01 2019 GMT
            Not After : Nov  1 08:03:01 2020 GMT
        Subject: OU = Test, O = MTG, L = Darmstadt, ST = Hessen, C = DE, organizationIdentifier = PSDDE-BAFIN-1234567890
        Subject Public Key Info:
            Public Key Algorithm: rsaEncryption
                RSA Public-Key: (2048 bit)
                Modulus:
                    00:c2:0d:81:71:b4:94:05:bc:cf:99:8a:aa:62:08:
                    f2:2e:63:b2:1e:46:f9:2b:85:98:c3:83:d0:ce:26:
                    ad:76:8f:5c:e7:5b:05:20:25:26:32:19:c2:24:8a:
                    ba:69:a3:eb:ca:10:a4:f3:cf:b5:c6:1e:f6:70:58:
                    96:5b:88:52:6a:88:42:33:85:b8:c6:16:48:4f:01:
                    45:39:3f:e1:6a:b9:06:b5:ef:37:db:79:9e:50:90:
                    57:43:5b:8b:c3:35:0d:b3:41:f4:1b:c2:4a:7f:18:
                    3c:39:2d:4f:bf:2b:a5:71:07:73:33:00:e5:8d:36:
                    9e:fe:8f:72:c5:72:56:08:cc:86:b6:ef:ba:e2:fd:
                    9b:5c:c6:2d:94:ed:2d:64:24:77:e6:67:4d:62:db:
                    94:2e:29:8e:dd:1d:7a:ca:bc:68:fb:15:2c:80:56:
                    d3:dd:e7:3a:8f:98:18:14:4b:11:d9:c4:01:1f:b9:
                    7a:d0:d9:ad:69:11:05:f6:0e:ae:5f:fc:cd:c6:b3:
                    cb:4d:ae:8e:45:18:0a:a8:c0:40:11:28:dc:cd:9f:
                    7a:26:67:5a:47:80:9b:d9:4c:f7:da:5f:6d:13:83:
                    1a:91:92:d1:b9:44:f7:72:6b:97:47:74:71:70:80:
                    d3:d6:73:bf:76:33:5c:70:b8:6f:87:37:3e:7e:8e:
                    75:e5
                Exponent: 65537 (0x10001)
        X509v3 extensions:
            X509v3 Authority Key Identifier: 
                keyid:0C:5E:9C:FE:BA:4B:21:6C:04:1D:C2:5A:B7:E3:88:5F:59:DE:4C:12

            X509v3 Subject Key Identifier: 
                0E:6B:AA:83:A9:B2:4D:5C:85:CD:B1:D2:2F:87:F7:20:CB:36:43:3B
            X509v3 Key Usage: critical
                Digital Signature, Key Encipherment
            X509v3 Basic Constraints: critical
                CA:FALSE
            X509v3 Subject Alternative Name: 
                DNS:www.example.com
            Authority Information Access: 
                CA Issuers - URI:http://ca.example.com/ca.crt
                OCSP - URI:http://ocsp.example.com/ocsp

            X509v3 Certificate Policies: 
                Policy: 0.4.0.194112.1.4
                Policy: 0.4.0.19495.3.1

            X509v3 Extended Key Usage: 
                TLS Web Server Authentication, TLS Web Client Authentication
            qcStatements: 
                0..0......F..0......F..0......F...0...+.......0.......I..0K......'.0A0.0
....PSP_AS.'Federal Financial Supervisory Authority..DE-BAFIN
    Signature Algorithm: sha256WithRSAEncryption
         2c:9d:b5:34:c1:56:e7:e4:0d:8e:94:ac:47:d4:b5:ad:6c:0f:
         53:56:07:d4:1b:50:cf:8f:76:7d:6a:58:ec:3c:a8:c3:d2:f2:
         14:6c:e6:75:1e:6e:f6:5b:ee:77:8d:f2:5d:79:1e:2a:23:87:
         35:af:55:e4:af:50:27:01:58:94:ed:05:e2:98:f4:a3:09:26:
         cb:5a:87:9e:c4:2a:30:93:1f:5a:35:c3:05:8e:f0:25:00:61:
         8a:51:ad:29:40:0b:f2:27:5e:a8:90:5c:c1:2f:06:b4:e9:02:
         e6:e3:5c:27:b2:03:5b:47:a5:c5:b0:8e:f5:a1:4f:23:0b:f7:
         e1:d7:8c:eb:8a:3a:41:dc:1c:7a:a2:bd:83:70:b0:fb:56:70:
         74:bd:51:f5:be:43:cb:d0:0e:bb:01:2e:96:3c:0d:f8:c2:a1:
         fe:e4:e2:a8:0f:28:12:94:e0:8f:0c:74:1a:c2:6e:c5:a5:4b:
         2d:cc:0f:9b:0f:2e:8b:04:b4:83:f9:9b:74:3f:1f:a6:14:33:
         61:6e:41:96:bc:38:51:a5:9c:f7:9a:e3:c9:9d:29:dc:c2:f5:
         dc:75:ef:cc:a6:ee:be:93:91:6d:52:2e:fc:8f:37:60:9f:bb:
         51:ee:0e:22:9c:c0:1d:e1:19:09:79:10:9e:27:89:9c:b0:9e:
         57:b6:a6:66
-----BEGIN CERTIFICATE-----
MIIE8jCCA9qgAwIBAgINDT4Uv+ZLx36sX5lt6DANBgkqhkiG9w0BAQsFADBBMRUw
EwYDVQQDDAxUZXN0IFN1YkNBIDIxDTALBgNVBAsMBFRlc3QxDDAKBgNVBAoMA01U
RzELMAkGA1UEBhMCREUwHhcNMTkxMTAxMDgwMzAxWhcNMjAxMTAxMDgwMzAxWjBw
MQ0wCwYDVQQLDARUZXN0MQwwCgYDVQQKDANNVEcxEjAQBgNVBAcMCURhcm1zdGFk
dDEPMA0GA1UECAwGSGVzc2VuMQswCQYDVQQGEwJERTEfMB0GA1UEYQwWUFNEREUt
QkFGSU4tMTIzNDU2Nzg5MDCCASIwDQYJKoZIhvcNAQEBBQADggEPADCCAQoCggEB
AMINgXG0lAW8z5mKqmII8i5jsh5G+SuFmMOD0M4mrXaPXOdbBSAlJjIZwiSKummj
68oQpPPPtcYe9nBYlluIUmqIQjOFuMYWSE8BRTk/4Wq5BrXvN9t5nlCQV0Nbi8M1
DbNB9BvCSn8YPDktT78rpXEHczMA5Y02nv6PcsVyVgjMhrbvuuL9m1zGLZTtLWQk
d+ZnTWLblC4pjt0desq8aPsVLIBW093nOo+YGBRLEdnEAR+5etDZrWkRBfYOrl/8
zcazy02ujkUYCqjAQBEo3M2feiZnWkeAm9lM99pfbRODGpGS0blE93Jrl0d0cXCA
09Zzv3YzXHC4b4c3Pn6OdeUCAwEAAaOCAbgwggG0MB8GA1UdIwQYMBaAFAxenP66
SyFsBB3CWrfjiF9Z3kwSMB0GA1UdDgQWBBQOa6qDqbJNXIXNsdIvh/cgyzZDOzAO
BgNVHQ8BAf8EBAMCBaAwDAYDVR0TAQH/BAIwADAaBgNVHREEEzARgg93d3cuZXhh
bXBsZS5jb20wYgYIKwYBBQUHAQEEVjBUMCgGCCsGAQUFBzAChhxodHRwOi8vY2Eu
ZXhhbXBsZS5jb20vY2EuY3J0MCgGCCsGAQUFBzABhhxodHRwOi8vb2NzcC5leGFt
cGxlLmNvbS9vY3NwMB8GA1UdIAQYMBYwCQYHBACL7EABBDAJBgcEAIGYJwMBMB0G
A1UdJQQWMBQGCCsGAQUFBwMBBggrBgEFBQcDAjCBkwYIKwYBBQUHAQMEgYYwgYMw
CAYGBACORgEBMBMGBgQAjkYBBjAJBgcEAI5GAQYDMBUGCCsGAQUFBwsCMAkGBwQA
i+xJAQIwSwYGBACBmCcCMEEwDDAKBQAMBlBTUF9BUwwnRmVkZXJhbCBGaW5hbmNp
YWwgU3VwZXJ2aXNvcnkgQXV0aG9yaXR5DAhERS1CQUZJTjANBgkqhkiG9w0BAQsF
AAOCAQEALJ21NMFW5+QNjpSsR9S1rWwPU1YH1BtQz492fWpY7Dyow9LyFGzmdR5u
9lvud43yXXkeKiOHNa9V5K9QJwFYlO0F4pj0owkmy1qHnsQqMJMfWjXDBY7wJQBh
ilGtKUAL8ideqJBcwS8GtOkC5uNcJ7IDW0elxbCO9aFPIwv34deM64o6QdwceqK9
g3Cw+1ZwdL1R9b5Dy9AOuwEuljwN+MKh/uTiqA8oEpTgjwx0GsJuxaVLLcwPmw8u
iwS0g/mbdD8fphQzYW5Blrw4UaWc95rjyZ0p3ML13HXvzKbuvpORbVIu/I83YJ+7
Ue4OIpzAHeEZCXkQnieJnLCeV7amZg==
-----END CERTIFICATE-----
