Certificate:
    Data:
        Version: 3 (0x2)
        Serial Number:
            0d:ba:8a:42:28:05:40:c1:a3:3f:43:03:5a
        Signature Algorithm: sha256WithRSAEncryption
        Issuer: CN = Test SubCA 2, OU = Test, O = MTG, C = DE
        Validity
            Not Before: Nov  1 08:03:01 2019 GMT
            Not After : Nov  1 08:03:01 2020 GMT
        Subject: OU = Test, O = MTG, L = Darmstadt, ST = Hessen, C = DE, organizationIdentifier = PSDDE-BAFIN-1234567890
        Subject Public Key Info:
            Public Key Algorithm: rsaEncryption
                RSA Public-Key: (2048 bit)
                Modulus:
                    00:c2:0d:81:71:b4:94:05:bc:cf:99:8a:aa:62:08:
                    f2:2e:63:b2:1e:46:f9:2b:85:98:c3:83:d0:ce:26:
                    ad:76:8f:5c:e7:5b:05:20:25:26:32:19:c2:24:8a:
                    ba:69:a3:eb:ca:10:a4:f3:cf:b5:c6:1e:f6:70:58:
                    96:5b:88:52:6a:88:42:33:85:b8:c6:16:48:4f:01:
                    45:39:3f:e1:6a:b9:06:b5:ef:37:db:79:9e:50:90:
                    57:43:5b:8b:c3:35:0d:b3:41:f4:1b:c2:4a:7f:18:
                    3c:39:2d:4f:bf:2b:a5:71:07:73:33:00:e5:8d:36:
                    9e:fe:8f:72:c5:72:56:08:cc:86:b6:ef:ba:e2:fd:
                    9b:5c:c6:2d:94:ed:2d:64:24:77:e6:67:4d:62:db:
                    94:2e:29:8e:dd:1d:7a:ca:bc:68:fb:15:2c:80:56:
                    d3:dd:e7:3a:8f:98:18:14:4b:11:d9:c4:01:1f:b9:
                    7a:d0:d9:ad:69:11:05:f6:0e:ae:5f:fc:cd:c6:b3:
                    cb:4d:ae:8e:45:18:0a:a8:c0:40:11:28:dc:cd:9f:
                    7a:26:67:5a:47:80:9b:d9:4c:f7:da:5f:6d:13:83:
                    1a:91:92:d1:b9:44:f7:72:6b:97:47:74:71:70:80:
                    d3:d6:73:bf:76:33:5c:70:b8:6f:87:37:3e:7e:8e:
                    75:e5
                Exponent: 65537 (0x10001)
        X509v3 extensions:
            X509v3 Authority Key Identifier: 
                keyid:0C:5E:9C:FE:BA:4B:21:6C:04:1D:C2:5A:B7:E3:88:5F:59:DE:4C:12

            X509v3 Subject Key Identifier: 
                0E:6B:AA:83:A9:B2:4D:5C:85:CD:B1:D2:2F:87:F7:20:CB:36:43:3B
            X509v3 Key Usage: critical
                Digital Signature, Key Encipherment
            X509v3 Basic Constraints: critical
                CA:FALSE
            X509v3 Subject Alternative Name: 
                DNS:www.example.com
            Authority Information Access: 
                CA Issuers - URI:http://ca.example.com/ca.crt
                OCSP - URI:http://ocsp.example.com/ocsp

            X509v3 Certificate Policies: 
                Policy: 0.4.0.194112.1.4
                Policy: 0.4.0.19495.3.1

            X509v3 Extended Key Usage: 
                TLS Web Server Authentication, TLS Web Client Authentication
            qcStatements: 
                0..0......F..0......F..0......F...0...+.......0.......I..0R......'.0H0.0.......'....PSP_PI.'Federal Financial Supervisory Authority..DE-BAFIN
    Signature Algorithm: sha256WithRSAEncryption
         09:49:2a:ca:d2:fe:db:f7:c5:60:be:3d:c0:98:19:90:4b:ce:
         92:53:6f:57:34:64:fa:cd:5b:19:46:3a:cb:f4:45:f4:d5:ed:
         94:e1:f9:b1:3c:1b:6c:30:7c:d2:ae:35:c2:56:6d:e4:66:fa:
         48:ff:17:18:d2:31:76:07:b1:7c:b2:78:9d:a6:25:f9:58:0f:
         be:7b:0c:53:73:4f:ce:e8:f1:f0:e1:c0:92:fb:50:24:e0:6c:
         8c:7f:3a:33:98:76:4d:01:17:c1:69:2c:77:07:1d:4f:e0:df:
         cc:62:5d:01:07:1a:72:71:d2:07:0e:95:4a:2d:b9:eb:37:9b:
         68:f5:d6:b6:43:20:ab:1a:44:16:07:6f:2b:76:1e:6d:2d:69:
         80:9e:fd:2f:aa:19:b5:c0:12:84:da:d9:58:95:bd:0b:35:6f:
         d5:db:38:4d:57:42:cd:fe:59:f9:a0:83:b3:f0:f7:f5:7e:c5:
         db:e4:83:ae:89:09:47:df:c3:92:4a:ff:56:05:fb:05:f8:ae:
         e5:3d:fd:95:58:27:c8:b3:8d:9f:04:a9:9c:19:73:de:fb:2e:
         81:3a:ec:49:ce:c0:fe:20:76:4d:43:b8:cd:bf:e2:e0:3d:11:
         96:3a:66:b8:82:69:87:c1:00:cb:a0:7f:03:bc:51:64:16:66:
         13:38:61:6b
-----BEGIN CERTIFICATE-----
MIIE+TCCA+GgAwIBAgINDbqKQigFQMGjP0MDWjANBgkqhkiG9w0BAQsFADBBMRUw
EwYDVQQDDAxUZXN0IFN1YkNBIDIxDTALBgNVBAsMBFRlc3QxDDAKBgNVBAoMA01U
RzELMAkGA1UEBhMCREUwHhcNMTkxMTAxMDgwMzAxWhcNMjAxMTAxMDgwMzAxWjBw
MQ0wCwYDVQQLDARUZXN0MQwwCgYDVQQKDANNVEcxEjAQBgNVBAcMCURhcm1zdGFk
dDEPMA0GA1UECAwGSGVzc2VuMQswCQYDVQQGEwJERTEfMB0GA1UEYQwWUFNEREUt
QkFGSU4tMTIzNDU2Nzg5MDCCASIwDQYJKoZIhvcNAQEBBQADggEPADCCAQoCggEB
AMINgXG0lAW8z5mKqmII8i5jsh5G+SuFmMOD0M4mrXaPXOdbBSAlJjIZwiSKummj
68oQpPPPtcYe9nBYlluIUmqIQjOFuMYWSE8BRTk/4Wq5BrXvN9t5nlCQV0Nbi8M1
DbNB9BvCSn8YPDktT78rpXEHczMA5Y02nv6PcsVyVgjMhrbvuuL9m1zGLZTtLWQk
d+ZnTWLblC4pjt0desq8aPsVLIBW093nOo+YGBRLEdnEAR+5etDZrWkRBfYOrl/8
zcazy02ujkUYCqjAQBEo3M2feiZnWkeAm9lM99pfbRODGpGS0blE93Jrl0d0cXCA
09Zzv3YzXHC4b4c3Pn6OdeUCAwEAAaOCAb8wggG7MB8GA1UdIwQYMBaAFAxenP66
SyFsBB3CWrfjiF9Z3kwSMB0GA1UdDgQWBBQOa6qDqbJNXIXNsdIvh/cgyzZDOzAO
BgNVHQ8BAf8EBAMCBaAwDAYDVR0TAQH/BAIwADAaBgNVHREEEzARgg93d3cuZXhh
bXBsZS5jb20wYgYIKwYBBQUHAQEEVjBUMCgGCCsGAQUFBzAChhxodHRwOi8vY2Eu
ZXhhbXBsZS5jb20vY2EuY3J0MCgGCCsGAQUFBzABhhxodHRwOi8vb2NzcC5leGFt
cGxlLmNvbS9vY3NwMB8GA1UdIAQYMBYwCQYHBACL7EABBDAJBgcEAIGYJwMBMB0G
A1UdJQQWMBQGCCsGAQUFBwMBBggrBgEFBQcDAjCBmgYIKwYBBQUHAQMEgY0wgYow
CAYGBACORgEBMBMGBgQAjkYBBjAJBgcEAI5GAQYDMBUGCCsGAQUFBwsCMAkGBwQA
i+xJAQIwUgYGBACBmCcCMEgwEzARBgcEAIGYJwECDAZQU1BfUEkMJ0ZlZGVyYWwg
RmluYW5jaWFsIFN1cGVydmlzb3J5IEF1dGhvcml0eRMIREUtQkFGSU4wDQYJKoZI
hvcNAQELBQADggEBAAlJKsrS/tv3xWC+PcCYGZBLzpJTb1c0ZPrNWxlGOsv0RfTV
7ZTh+bE8G2wwfNKuNcJWbeRm+kj/FxjSMXYHsXyyeJ2mJflYD757DFNzT87o8fDh
wJL7UCTgbIx/OjOYdk0BF8FpLHcHHU/g38xiXQEHGnJx0gcOlUotues3m2j11rZD
IKsaRBYHbyt2Hm0taYCe/S+qGbXAEoTa2ViVvQs1b9XbOE1XQs3+Wfmgg7Pw9/V+
xdvkg66JCUffw5JK/1YF+wX4ruU9/ZVYJ8izjZ8EqZwZc977LoE67EnOwP4gdk1D
uM2/4uA9EZY6ZriCaYfBAMugfwO8UWQWZhM4YWs=
-----END CERTIFICATE-----
