Certificate:
    Data:
        Version: 3 (0x2)
        Serial Number:
            0f:c5:f7:64:89:df:d7:79:f9:56:94:2f:f1
        Signature Algorithm: sha256WithRSAEncryption
        Issuer: CN = Test SubCA 2, OU = Test, O = MTG, C = DE
        Validity
            Not Before: Nov  1 08:03:01 2019 GMT
            Not After : Nov  1 08:03:01 2020 GMT
        Subject: OU = Test, O = MTG, L = Darmstadt, ST = Hessen, C = DE, organizationIdentifier = PSDDE-BAFIN-1234567890
        Subject Public Key Info:
            Public Key Algorithm: rsaEncryption
                RSA Public-Key: (2048 bit)
                Modulus:
                    00:c2:0d:81:71:b4:94:05:bc:cf:99:8a:aa:62:08:
                    f2:2e:63:b2:1e:46:f9:2b:85:98:c3:83:d0:ce:26:
                    ad:76:8f:5c:e7:5b:05:20:25:26:32:19:c2:24:8a:
                    ba:69:a3:eb:ca:10:a4:f3:cf:b5:c6:1e:f6:70:58:
                    96:5b:88:52:6a:88:42:33:85:b8:c6:16:48:4f:01:
                    45:39:3f:e1:6a:b9:06:b5:ef:37:db:79:9e:50:90:
                    57:43:5b:8b:c3:35:0d:b3:41:f4:1b:c2:4a:7f:18:
                    3c:39:2d:4f:bf:2b:a5:71:07:73:33:00:e5:8d:36:
                    9e:fe:8f:72:c5:72:56:08:cc:86:b6:ef:ba:e2:fd:
                    9b:5c:c6:2d:94:ed:2d:64:24:77:e6:67:4d:62:db:
                    94:2e:29:8e:dd:1d:7a:ca:bc:68:fb:15:2c:80:56:
                    d3:dd:e7:3a:8f:98:18:14:4b:11:d9:c4:01:1f:b9:
                    7a:d0:d9:ad:69:11:05:f6:0e:ae:5f:fc:cd:c6:b3:
                    cb:4d:ae:8e:45:18:0a:a8:c0:40:11:28:dc:cd:9f:
                    7a:26:67:5a:47:80:9b:d9:4c:f7:da:5f:6d:13:83:
                    1a:91:92:d1:b9:44:f7:72:6b:97:47:74:71:70:80:
                    d3:d6:73:bf:76:33:5c:70:b8:6f:87:37:3e:7e:8e:
                    75:e5
                Exponent: 65537 (0x10001)
        X509v3 extensions:
            X509v3 Authority Key Identifier: 
                keyid:0C:5E:9C:FE:BA:4B:21:6C:04:1D:C2:5A:B7:E3:88:5F:59:DE:4C:12

            X509v3 Subject Key Identifier: 
                0E:6B:AA:83:A9:B2:4D:5C:85:CD:B1:D2:2F:87:F7:20:CB:36:43:3B
            X509v3 Key Usage: critical
                Digital Signature, Key Encipherment
            X509v3 Basic Constraints: critical
                CA:FALSE
            X509v3 Subject Alternative Name: 
                DNS:www.example.com
            Authority Information Access: 
                CA Issuers - URI:http://ca.example.com/ca.crt
                OCSP - URI:http://ocsp.example.com/ocsp

            X509v3 Certificate Policies: 
                Policy: 0.4.0.194112.1.4
                Policy: 0.4.0.19495.3.1

            X509v3 Extended Key Usage: 
                TLS Web Server Authentication, TLS Web Client Authentication
            qcStatements: 
                0..0......F..0......F..0......F...0...+.......0.......I..0V......'.0L0.0.......'....PSP_AI.'Federal Financial Supervisory Authority..DE-BAFINANCE
    Signature Algorithm: sha256WithRSAEncryption
         75:57:a3:a9:d1:c7:37:3b:e2:3e:51:51:65:76:1e:84:8d:a0:
         24:a5:b4:66:38:8f:cb:86:e4:58:d6:c0:5b:1b:01:0e:8d:ef:
         bb:9b:3c:19:0d:67:b2:2b:19:d3:93:21:fb:b5:9d:32:6a:45:
         be:e8:6e:8d:7a:1a:aa:4e:0a:34:f1:24:f7:b7:47:04:ff:dc:
         79:48:29:06:d2:5e:ab:99:59:6b:97:d4:43:17:c6:98:f5:64:
         03:96:76:ab:c5:dc:4d:2f:86:af:01:f4:e6:7a:4c:5d:0b:60:
         b4:a0:b9:61:4f:ba:2f:d8:a2:61:99:88:00:97:09:b9:48:7d:
         dd:65:5f:59:e8:7a:39:78:8c:41:09:04:7c:18:13:54:83:61:
         1f:93:a7:bd:e3:3e:a6:e4:9f:15:77:6b:7c:fc:67:43:21:5c:
         81:34:b2:e7:4a:e6:0d:4a:6d:23:a6:e3:5a:8e:23:97:0f:20:
         41:cc:cb:d2:15:3a:9b:92:89:75:58:4e:36:b9:af:4a:35:0e:
         49:40:38:ce:1a:e3:5e:c6:d9:e7:6b:b0:7e:63:d7:2e:3c:9e:
         d1:f7:f0:e1:4a:93:07:0f:68:32:68:ff:c6:e2:d2:06:aa:27:
         df:d8:e4:2e:52:0c:d3:a6:ba:9d:2c:02:03:7a:f2:77:be:8e:
         07:24:05:b4
-----BEGIN CERTIFICATE-----
MIIE/TCCA+WgAwIBAgIND8X3ZInf13n5VpQv8TANBgkqhkiG9w0BAQsFADBBMRUw
EwYDVQQDDAxUZXN0IFN1YkNBIDIxDTALBgNVBAsMBFRlc3QxDDAKBgNVBAoMA01U
RzELMAkGA1UEBhMCREUwHhcNMTkxMTAxMDgwMzAxWhcNMjAxMTAxMDgwMzAxWjBw
MQ0wCwYDVQQLDARUZXN0MQwwCgYDVQQKDANNVEcxEjAQBgNVBAcMCURhcm1zdGFk
dDEPMA0GA1UECAwGSGVzc2VuMQswCQYDVQQGEwJERTEfMB0GA1UEYQwWUFNEREUt
QkFGSU4tMTIzNDU2Nzg5MDCCASIwDQYJKoZIhvcNAQEBBQADggEPADCCAQoCggEB
AMINgXG0lAW8z5mKqmII8i5jsh5G+SuFmMOD0M4mrXaPXOdbBSAlJjIZwiSKummj
68oQpPPPtcYe9nBYlluIUmqIQjOFuMYWSE8BRTk/4Wq5BrXvN9t5nlCQV0Nbi8M1
DbNB9BvCSn8YPDktT78rpXEHczMA5Y02nv6PcsVyVgjMhrbvuuL9m1zGLZTtLWQk
d+ZnTWLblC4pjt0desq8aPsVLIBW093nOo+YGBRLEdnEAR+5etDZrWkRBfYOrl/8
zcazy02ujkUYCqjAQBEo3M2feiZnWkeAm9lM99pfbRODGpGS0blE93Jrl0d0cXCA
09Zzv3YzXHC4b4c3Pn6OdeUCAwEAAaOCAcMwggG/MB8GA1UdIwQYMBaAFAxenP66
SyFsBB3CWrfjiF9Z3kwSMB0GA1UdDgQWBBQOa6qDqbJNXIXNsdIvh/cgyzZDOzAO
BgNVHQ8BAf8EBAMCBaAwDAYDVR0TAQH/BAIwADAaBgNVHREEEzARgg93d3cuZXhh
bXBsZS5jb20wYgYIKwYBBQUHAQEEVjBUMCgGCCsGAQUFBzAChhxodHRwOi8vY2Eu
ZXhhbXBsZS5jb20vY2EuY3J0MCgGCCsGAQUFBzABhhxodHRwOi8vb2NzcC5leGFt
cGxlLmNvbS9vY3NwMB8GA1UdIAQYMBYwCQYHBACL7EABBDAJBgcEAIGYJwMBMB0G
A1UdJQQWMBQGCCsGAQUFBwMBBggrBgEFBQcDAjCBngYIKwYBBQUHAQMEgZEwgY4w
CAYGBACORgEBMBMGBgQAjkYBBjAJBgcEAI5GAQYDMBUGCCsGAQUFBwsCMAkGBwQA
i+xJAQIwVgYGBACBmCcCMEwwEzARBgcEAIGYJwEDDAZQU1BfQUkMJ0ZlZGVyYWwg
RmluYW5jaWFsIFN1cGVydmlzb3J5IEF1dGhvcml0eQwMREUtQkFGSU5BTkNFMA0G
CSqGSIb3DQEBCwUAA4IBAQB1V6Op0cc3O+I+UVFldh6EjaAkpbRmOI/LhuRY1sBb
GwEOje+7mzwZDWeyKxnTkyH7tZ0yakW+6G6NehqqTgo08ST3t0cE/9x5SCkG0l6r
mVlrl9RDF8aY9WQDlnarxdxNL4avAfTmekxdC2C0oLlhT7ov2KJhmYgAlwm5SH3d
ZV9Z6Ho5eIxBCQR8GBNUg2Efk6e94z6m5J8Vd2t8/GdDIVyBNLLnSuYNSm0jpuNa
jiOXDyBBzMvSFTqbkol1WE42ua9KNQ5JQDjOGuNextnna7B+Y9cuPJ7R9/DhSpMH
D2gyaP/G4tIGqiff2OQuUgzTprqdLAIDevJ3vo4HJAW0
-----END CERTIFICATE-----
