Certificate:
    Data:
        Version: 3 (0x2)
        Serial Number:
            0c:9b:77:e1:85:02:cc:32:cf:32:a2:55:b2
        Signature Algorithm: sha256WithRSAEncryption
        Issuer: CN = Test SubCA 2, OU = Test, O = MTG, C = DE
        Validity
            Not Before: Nov  4 05:52:58 2019 GMT
            Not After : Nov  4 05:52:58 2020 GMT
        Subject: OU = Test, O = MTG, L = Darmstadt, ST = Hessen, C = DE
        Subject Public Key Info:
            Public Key Algorithm: rsaEncryption
                RSA Public-Key: (2048 bit)
                Modulus:
                    00:9d:52:43:fa:16:05:6a:f6:f0:48:8e:08:8d:66:
                    31:2f:28:ff:61:bf:61:d8:af:be:90:f9:03:ed:3f:
                    85:bc:68:ec:49:e1:96:a1:a4:14:14:e3:ff:a7:00:
                    a3:9c:36:3b:ed:e3:5a:15:4f:f9:85:7e:f5:fe:8e:
                    d6:f5:af:90:04:c6:dc:c3:22:89:26:2c:ce:67:e2:
                    d6:56:71:6b:60:19:33:5f:47:d9:9b:6d:40:7b:ee:
                    ae:5c:42:d7:8c:4b:1a:ed:4b:e9:31:ce:84:a8:f8:
                    27:91:59:09:a9:8a:7d:db:8c:f0:52:76:9f:57:24:
                    91:41:18:8e:e4:3d:51:ed:e8:67:c2:dc:92:39:fc:
                    87:64:03:f8:11:95:2b:ff:96:8c:4a:db:49:c2:5e:
                    bd:e8:16:2b:07:79:e2:64:b0:bc:e3:27:4d:db:f5:
                    59:ee:75:ff:60:9c:0b:f2:51:e7:54:c3:a2:06:14:
                    2a:ce:d8:a3:d2:fb:b0:6d:c3:00:74:b8:a1:c4:1d:
                    0d:83:d3:19:d6:8c:bd:e9:7b:65:2d:e3:59:c1:83:
                    f6:0e:b0:35:74:20:ec:59:67:71:7c:37:93:31:37:
                    64:47:75:a1:ab:0a:85:e2:23:94:37:22:69:44:91:
                    ea:86:6a:06:8f:56:89:8f:0b:80:ae:af:8c:9b:5a:
                    89:49
                Exponent: 65537 (0x10001)
        X509v3 extensions:
            X509v3 Authority Key Identifier: 
                keyid:17:B9:3C:44:F5:76:4B:60:42:6D:2C:09:9E:E2:5C:B3:CE:BC:C5:62

            X509v3 Subject Key Identifier: 
                CE:2A:D6:50:67:86:3B:EB:6D:70:81:F9:6B:C6:40:7E:4D:62:75:7D
            X509v3 Key Usage: critical
                Digital Signature, Key Encipherment
            X509v3 Basic Constraints: critical
                CA:FALSE
            X509v3 Subject Alternative Name: 
                DNS:www.example.com
            Authority Information Access: 
                CA Issuers - URI:http://ca.example.com/ca.crt
                OCSP - URI:http://ocsp.example.com/ocsp

            X509v3 Certificate Policies: 
                Policy: 1.2.3.4.5.6

            X509v3 Extended Key Usage: 
                TLS Web Server Authentication, TLS Web Client Authentication
            qcStatements: 
                0.0......F..0......F..0......F...
    Signature Algorithm: sha256WithRSAEncryption
         30:0b:6d:36:92:17:f9:61:81:1a:2d:0b:64:64:4d:89:72:70:
         f2:60:96:cf:9f:29:95:6f:a4:9a:40:22:e8:2a:d2:51:56:86:
         bf:3c:c7:22:27:cd:9d:a1:57:56:eb:63:cb:b2:33:b0:4a:a4:
         0c:96:27:34:36:ed:21:04:08:ee:78:20:1c:83:e2:2e:a3:c0:
         ee:f9:a8:99:94:a0:62:68:23:18:1e:5e:d8:19:71:cd:92:e5:
         3a:40:35:67:2e:63:3f:b4:aa:d2:72:93:76:73:9d:62:e9:a8:
         2a:3c:d4:66:28:20:41:a4:af:be:fd:9e:b7:16:2f:3e:3f:00:
         09:14:e5:71:1e:f8:ee:bd:b0:d4:72:fd:2d:7c:75:b9:07:2e:
         f9:22:5c:db:23:b6:e8:7e:e6:91:a7:ad:9d:26:8c:50:50:c5:
         37:bb:ff:e7:b5:80:90:02:08:2a:ed:9b:39:89:11:1d:ff:69:
         37:aa:35:69:6e:f9:31:e9:43:8e:40:99:7b:53:35:be:8e:f8:
         bb:c7:18:81:cc:85:97:8d:3f:4f:b1:a3:c4:fe:91:83:7f:8c:
         35:4f:67:0c:df:17:63:08:bd:de:d8:87:f5:16:05:93:28:40:
         b8:23:10:5f:57:1a:2f:0a:79:43:2d:9b:04:d4:5d:80:40:9d:
         12:9f:ce:78
-----BEGIN CERTIFICATE-----
MIIEXTCCA0WgAwIBAgINDJt34YUCzDLPMqJVsjANBgkqhkiG9w0BAQsFADBBMRUw
EwYDVQQDDAxUZXN0IFN1YkNBIDIxDTALBgNVBAsMBFRlc3QxDDAKBgNVBAoMA01U
RzELMAkGA1UEBhMCREUwHhcNMTkxMTA0MDU1MjU4WhcNMjAxMTA0MDU1MjU4WjBP
MQ0wCwYDVQQLDARUZXN0MQwwCgYDVQQKDANNVEcxEjAQBgNVBAcMCURhcm1zdGFk
dDEPMA0GA1UECAwGSGVzc2VuMQswCQYDVQQGEwJERTCCASIwDQYJKoZIhvcNAQEB
BQADggEPADCCAQoCggEBAJ1SQ/oWBWr28EiOCI1mMS8o/2G/YdivvpD5A+0/hbxo
7EnhlqGkFBTj/6cAo5w2O+3jWhVP+YV+9f6O1vWvkATG3MMiiSYszmfi1lZxa2AZ
M19H2ZttQHvurlxC14xLGu1L6THOhKj4J5FZCamKfduM8FJ2n1ckkUEYjuQ9Ue3o
Z8Lckjn8h2QD+BGVK/+WjErbScJevegWKwd54mSwvOMnTdv1We51/2CcC/JR51TD
ogYUKs7Yo9L7sG3DAHS4ocQdDYPTGdaMvel7ZS3jWcGD9g6wNXQg7FlncXw3kzE3
ZEd1oasKheIjlDciaUSR6oZqBo9WiY8LgK6vjJtaiUkCAwEAAaOCAUQwggFAMB8G
A1UdIwQYMBaAFBe5PET1dktgQm0sCZ7iXLPOvMViMB0GA1UdDgQWBBTOKtZQZ4Y7
621wgflrxkB+TWJ1fTAOBgNVHQ8BAf8EBAMCBaAwDAYDVR0TAQH/BAIwADAaBgNV
HREEEzARgg93d3cuZXhhbXBsZS5jb20wYgYIKwYBBQUHAQEEVjBUMCgGCCsGAQUF
BzAChhxodHRwOi8vY2EuZXhhbXBsZS5jb20vY2EuY3J0MCgGCCsGAQUFBzABhhxo
dHRwOi8vb2NzcC5leGFtcGxlLmNvbS9vY3NwMBIGA1UdIAQLMAkwBwYFKgMEBQYw
HQYDVR0lBBYwFAYIKwYBBQUHAwEGCCsGAQUFBwMCMC0GCCsGAQUFBwEDBCEwHzAI
BgYEAI5GAQEwEwYGBACORgEGMAkGBwQAjkYBBgEwDQYJKoZIhvcNAQELBQADggEB
ADALbTaSF/lhgRotC2RkTYlycPJgls+fKZVvpJpAIugq0lFWhr88xyInzZ2hV1br
Y8uyM7BKpAyWJzQ27SEECO54IByD4i6jwO75qJmUoGJoIxgeXtgZcc2S5TpANWcu
Yz+0qtJyk3ZznWLpqCo81GYoIEGkr779nrcWLz4/AAkU5XEe+O69sNRy/S18dbkH
LvkiXNsjtuh+5pGnrZ0mjFBQxTe7/+e1gJACCCrtmzmJER3/aTeqNWlu+THpQ45A
mXtTNb6O+LvHGIHMhZeNP0+xo8T+kYN/jDVPZwzfF2MIvd7Yh/UWBZMoQLgjEF9X
Gi8KeUMtmwTUXYBAnRKfzng=
-----END CERTIFICATE-----
