Certificate:
    Data:
        Version: 3 (0x2)
        Serial Number:
            01:ba:8b:f3:fa:af:4a:87:76:ff:e1:29:33
        Signature Algorithm: sha256WithRSAEncryption
        Issuer: CN = Test SubCA 2, OU = Test, O = MTG, C = DE
        Validity
            Not Before: Nov  1 08:03:00 2019 GMT
            Not After : Nov  1 08:03:00 2020 GMT
        Subject: O = MTG, OU = Test, L = Darmstadt, ST = Hessen, C = DE, organizationIdentifier = PSDPL-PFSA-1234567890
        Subject Public Key Info:
            Public Key Algorithm: rsaEncryption
                RSA Public-Key: (2048 bit)
                Modulus:
                    00:c2:0d:81:71:b4:94:05:bc:cf:99:8a:aa:62:08:
                    f2:2e:63:b2:1e:46:f9:2b:85:98:c3:83:d0:ce:26:
                    ad:76:8f:5c:e7:5b:05:20:25:26:32:19:c2:24:8a:
                    ba:69:a3:eb:ca:10:a4:f3:cf:b5:c6:1e:f6:70:58:
                    96:5b:88:52:6a:88:42:33:85:b8:c6:16:48:4f:01:
                    45:39:3f:e1:6a:b9:06:b5:ef:37:db:79:9e:50:90:
                    57:43:5b:8b:c3:35:0d:b3:41:f4:1b:c2:4a:7f:18:
                    3c:39:2d:4f:bf:2b:a5:71:07:73:33:00:e5:8d:36:
                    9e:fe:8f:72:c5:72:56:08:cc:86:b6:ef:ba:e2:fd:
                    9b:5c:c6:2d:94:ed:2d:64:24:77:e6:67:4d:62:db:
                    94:2e:29:8e:dd:1d:7a:ca:bc:68:fb:15:2c:80:56:
                    d3:dd:e7:3a:8f:98:18:14:4b:11:d9:c4:01:1f:b9:
                    7a:d0:d9:ad:69:11:05:f6:0e:ae:5f:fc:cd:c6:b3:
                    cb:4d:ae:8e:45:18:0a:a8:c0:40:11:28:dc:cd:9f:
                    7a:26:67:5a:47:80:9b:d9:4c:f7:da:5f:6d:13:83:
                    1a:91:92:d1:b9:44:f7:72:6b:97:47:74:71:70:80:
                    d3:d6:73:bf:76:33:5c:70:b8:6f:87:37:3e:7e:8e:
                    75:e5
                Exponent: 65537 (0x10001)
        X509v3 extensions:
            X509v3 Authority Key Identifier: 
                keyid:0C:5E:9C:FE:BA:4B:21:6C:04:1D:C2:5A:B7:E3:88:5F:59:DE:4C:12

            X509v3 Subject Key Identifier: 
                0E:6B:AA:83:A9:B2:4D:5C:85:CD:B1:D2:2F:87:F7:20:CB:36:43:3B
            X509v3 Key Usage: critical
                Digital Signature, Key Encipherment
            X509v3 Basic Constraints: critical
                CA:FALSE
            X509v3 Subject Alternative Name: 
                DNS:www.example.com
            Authority Information Access: 
                CA Issuers - URI:http://ca.example.com/ca.crt
                OCSP - URI:http://ocsp.example.com/ocsp

            X509v3 Certificate Policies: 
                Policy: 0.4.0.194112.1.4
                Policy: 0.4.0.19495.3.1

            X509v3 Extended Key Usage: 
                TLS Web Server Authentication, TLS Web Client Authentication
            qcStatements: 
                0..0......F..0......F..0......F...0...+.......0.......I..0Q......'.0G0.0.......'....PSP_IC.'Federal Financial Supervisory Authority..PL-PFSA
    Signature Algorithm: sha256WithRSAEncryption
         0e:d6:89:0f:d9:55:e5:ec:d9:8f:6d:d5:97:f5:0b:5e:b1:5c:
         65:83:97:b5:54:32:6b:c7:53:40:e2:05:65:5c:f4:22:f2:d8:
         56:e0:90:18:4a:69:4e:31:bd:08:0b:70:ab:8d:c7:a9:98:0a:
         42:8c:14:c9:9f:1f:7d:56:7e:8d:57:d5:5b:a4:95:dd:38:a8:
         0e:2b:e2:9f:d3:53:8f:a6:3b:5e:ee:75:78:dd:0d:88:85:68:
         3b:e6:c2:4a:12:a3:00:d8:3a:f1:08:74:26:05:0e:07:a6:54:
         53:13:b1:2a:9a:b3:39:2a:7e:90:19:44:f7:ae:39:ea:7c:5b:
         bd:0d:86:35:01:e4:5c:35:5c:67:a8:07:b9:4c:0a:5e:3f:0b:
         1f:a9:1b:17:de:ed:8d:82:fd:eb:a4:5f:dd:42:0b:fb:f1:56:
         19:6d:43:16:ab:3d:9c:c6:55:c5:2a:a1:2e:df:35:ac:45:d7:
         7f:92:f1:e0:36:73:e1:df:df:40:cd:9a:e4:89:7c:f1:cf:60:
         3f:78:a2:67:cf:9c:9d:c5:ee:6f:b3:04:59:e3:7c:da:e0:af:
         e9:2d:ff:df:b6:76:25:6d:58:8a:ff:17:e4:d9:37:d0:74:d7:
         6d:7b:4c:ba:d0:a8:ab:78:4b:1d:34:9d:bb:29:31:32:e5:74:
         f1:6a:cb:76
-----BEGIN CERTIFICATE-----
MIIE9zCCA9+gAwIBAgINAbqL8/qvSod2/+EpMzANBgkqhkiG9w0BAQsFADBBMRUw
EwYDVQQDDAxUZXN0IFN1YkNBIDIxDTALBgNVBAsMBFRlc3QxDDAKBgNVBAoMA01U
RzELMAkGA1UEBhMCREUwHhcNMTkxMTAxMDgwMzAwWhcNMjAxMTAxMDgwMzAwWjBv
MQwwCgYDVQQKDANNVEcxDTALBgNVBAsMBFRlc3QxEjAQBgNVBAcMCURhcm1zdGFk
dDEPMA0GA1UECAwGSGVzc2VuMQswCQYDVQQGEwJERTEeMBwGA1UEYQwVUFNEUEwt
UEZTQS0xMjM0NTY3ODkwMIIBIjANBgkqhkiG9w0BAQEFAAOCAQ8AMIIBCgKCAQEA
wg2BcbSUBbzPmYqqYgjyLmOyHkb5K4WYw4PQziatdo9c51sFICUmMhnCJIq6aaPr
yhCk88+1xh72cFiWW4hSaohCM4W4xhZITwFFOT/harkGte8323meUJBXQ1uLwzUN
s0H0G8JKfxg8OS1PvyulcQdzMwDljTae/o9yxXJWCMyGtu+64v2bXMYtlO0tZCR3
5mdNYtuULimO3R16yrxo+xUsgFbT3ec6j5gYFEsR2cQBH7l60NmtaREF9g6uX/zN
xrPLTa6ORRgKqMBAESjczZ96JmdaR4Cb2Uz32l9tE4MakZLRuUT3cmuXR3RxcIDT
1nO/djNccLhvhzc+fo515QIDAQABo4IBvjCCAbowHwYDVR0jBBgwFoAUDF6c/rpL
IWwEHcJat+OIX1neTBIwHQYDVR0OBBYEFA5rqoOpsk1chc2x0i+H9yDLNkM7MA4G
A1UdDwEB/wQEAwIFoDAMBgNVHRMBAf8EAjAAMBoGA1UdEQQTMBGCD3d3dy5leGFt
cGxlLmNvbTBiBggrBgEFBQcBAQRWMFQwKAYIKwYBBQUHMAKGHGh0dHA6Ly9jYS5l
eGFtcGxlLmNvbS9jYS5jcnQwKAYIKwYBBQUHMAGGHGh0dHA6Ly9vY3NwLmV4YW1w
bGUuY29tL29jc3AwHwYDVR0gBBgwFjAJBgcEAIvsQAEEMAkGBwQAgZgnAwEwHQYD
VR0lBBYwFAYIKwYBBQUHAwEGCCsGAQUFBwMCMIGZBggrBgEFBQcBAwSBjDCBiTAI
BgYEAI5GAQEwEwYGBACORgEGMAkGBwQAjkYBBgMwFQYIKwYBBQUHCwIwCQYHBACL
7EkBAjBRBgYEAIGYJwIwRzATMBEGBwQAgZgnAQQMBlBTUF9JQwwnRmVkZXJhbCBG
aW5hbmNpYWwgU3VwZXJ2aXNvcnkgQXV0aG9yaXR5DAdQTC1QRlNBMA0GCSqGSIb3
DQEBCwUAA4IBAQAO1okP2VXl7NmPbdWX9QtesVxlg5e1VDJrx1NA4gVlXPQi8thW
4JAYSmlOMb0IC3CrjcepmApCjBTJnx99Vn6NV9VbpJXdOKgOK+Kf01OPpjte7nV4
3Q2IhWg75sJKEqMA2DrxCHQmBQ4HplRTE7EqmrM5Kn6QGUT3rjnqfFu9DYY1AeRc
NVxnqAe5TApePwsfqRsX3u2Ngv3rpF/dQgv78VYZbUMWqz2cxlXFKqEu3zWsRdd/
kvHgNnPh399AzZrkiXzxz2A/eKJnz5ydxe5vswRZ43za4K/pLf/ftnYlbViK/xfk
2TfQdNdte0y60KireEsdNJ27KTEy5XTxast2
-----END CERTIFICATE-----
