Certificate:
    Data:
        Version: 3 (0x2)
        Serial Number:
            09:96:f4:f0:01:60:40:a0:70:86:ee:4d:85
        Signature Algorithm: sha256WithRSAEncryption
        Issuer: CN = Test SubCA 2, OU = Test, O = MTG, C = DE
        Validity
            Not Before: Nov  1 08:03:01 2019 GMT
            Not After : Nov  1 08:03:01 2020 GMT
        Subject: O = MTG, OU = Test, L = Darmstadt, ST = Hessen, C = DE, organizationIdentifier = NTRDEU-1234567890
        Subject Public Key Info:
            Public Key Algorithm: rsaEncryption
                RSA Public-Key: (2048 bit)
                Modulus:
                    00:c2:0d:81:71:b4:94:05:bc:cf:99:8a:aa:62:08:
                    f2:2e:63:b2:1e:46:f9:2b:85:98:c3:83:d0:ce:26:
                    ad:76:8f:5c:e7:5b:05:20:25:26:32:19:c2:24:8a:
                    ba:69:a3:eb:ca:10:a4:f3:cf:b5:c6:1e:f6:70:58:
                    96:5b:88:52:6a:88:42:33:85:b8:c6:16:48:4f:01:
                    45:39:3f:e1:6a:b9:06:b5:ef:37:db:79:9e:50:90:
                    57:43:5b:8b:c3:35:0d:b3:41:f4:1b:c2:4a:7f:18:
                    3c:39:2d:4f:bf:2b:a5:71:07:73:33:00:e5:8d:36:
                    9e:fe:8f:72:c5:72:56:08:cc:86:b6:ef:ba:e2:fd:
                    9b:5c:c6:2d:94:ed:2d:64:24:77:e6:67:4d:62:db:
                    94:2e:29:8e:dd:1d:7a:ca:bc:68:fb:15:2c:80:56:
                    d3:dd:e7:3a:8f:98:18:14:4b:11:d9:c4:01:1f:b9:
                    7a:d0:d9:ad:69:11:05:f6:0e:ae:5f:fc:cd:c6:b3:
                    cb:4d:ae:8e:45:18:0a:a8:c0:40:11:28:dc:cd:9f:
                    7a:26:67:5a:47:80:9b:d9:4c:f7:da:5f:6d:13:83:
                    1a:91:92:d1:b9:44:f7:72:6b:97:47:74:71:70:80:
                    d3:d6:73:bf:76:33:5c:70:b8:6f:87:37:3e:7e:8e:
                    75:e5
                Exponent: 65537 (0x10001)
        X509v3 extensions:
            X509v3 Authority Key Identifier: 
                keyid:0C:5E:9C:FE:BA:4B:21:6C:04:1D:C2:5A:B7:E3:88:5F:59:DE:4C:12

            X509v3 Subject Key Identifier: 
                0E:6B:AA:83:A9:B2:4D:5C:85:CD:B1:D2:2F:87:F7:20:CB:36:43:3B
            X509v3 Key Usage: critical
                Digital Signature, Key Encipherment
            X509v3 Basic Constraints: critical
                CA:FALSE
            X509v3 Subject Alternative Name: 
                DNS:www.example.com
            Authority Information Access: 
                CA Issuers - URI:http://ca.example.com/ca.crt
                OCSP - URI:http://ocsp.example.com/ocsp

            X509v3 Certificate Policies: 
                Policy: 0.4.0.194112.1.4
                Policy: 0.4.0.19495.3.1

            X509v3 Extended Key Usage: 
                TLS Web Server Authentication, TLS Web Client Authentication
            qcStatements: 
                0..0......F..0......F..0......F...0...+.......0.......I..0R......'.0H0.0.......'....PSP_IC.'Federal Financial Supervisory Authority..DE-BAFIN
    Signature Algorithm: sha256WithRSAEncryption
         6c:2c:ec:2d:91:4e:88:9c:f3:ce:dc:93:20:56:c0:d9:e0:cb:
         7b:b1:af:ea:57:0f:0f:d2:db:3e:56:76:66:d1:3a:22:cc:50:
         37:b0:59:d2:09:3e:b2:f0:0b:fd:5f:70:4b:b1:f6:ce:2e:17:
         61:31:aa:f2:80:c5:ea:97:57:9c:2a:2c:34:99:a2:9a:02:4a:
         d7:22:c0:b8:29:2e:c7:06:72:d6:97:c7:e3:39:1f:d0:57:ee:
         dd:ef:57:61:c4:d0:51:46:b9:c9:e5:db:2d:4f:35:5c:5b:bb:
         d8:b3:77:8c:51:ad:63:a2:bc:9b:9d:ee:80:ee:87:31:19:4b:
         6e:ec:be:e1:14:22:e1:81:9b:bc:a9:26:a9:b7:c1:d9:ff:63:
         92:6e:2a:65:d8:a8:40:28:25:16:97:6a:a1:a2:6a:29:b4:8b:
         e3:c5:f6:71:94:ba:61:ba:19:62:57:dd:43:60:ad:bd:2d:24:
         bb:94:38:d3:cd:d5:09:1b:98:29:2b:5e:88:fb:84:e6:44:50:
         1b:18:13:0c:77:8d:49:83:8d:3e:b6:12:45:5e:c4:87:f4:53:
         0a:19:43:18:ec:83:ea:80:ba:fd:c3:24:72:00:a9:8f:0a:83:
         5d:2f:e2:24:9e:49:1a:a5:9d:df:0e:b2:a2:df:69:b6:9a:1f:
         c4:12:e9:5c
-----BEGIN CERTIFICATE-----
MIIE9DCCA9ygAwIBAgINCZb08AFgQKBwhu5NhTANBgkqhkiG9w0BAQsFADBBMRUw
EwYDVQQDDAxUZXN0IFN1YkNBIDIxDTALBgNVBAsMBFRlc3QxDDAKBgNVBAoMA01U
RzELMAkGA1UEBhMCREUwHhcNMTkxMTAxMDgwMzAxWhcNMjAxMTAxMDgwMzAxWjBr
MQwwCgYDVQQKDANNVEcxDTALBgNVBAsMBFRlc3QxEjAQBgNVBAcMCURhcm1zdGFk
dDEPMA0GA1UECAwGSGVzc2VuMQswCQYDVQQGEwJERTEaMBgGA1UEYQwRTlRSREVV
LTEyMzQ1Njc4OTAwggEiMA0GCSqGSIb3DQEBAQUAA4IBDwAwggEKAoIBAQDCDYFx
tJQFvM+ZiqpiCPIuY7IeRvkrhZjDg9DOJq12j1znWwUgJSYyGcIkirppo+vKEKTz
z7XGHvZwWJZbiFJqiEIzhbjGFkhPAUU5P+FquQa17zfbeZ5QkFdDW4vDNQ2zQfQb
wkp/GDw5LU+/K6VxB3MzAOWNNp7+j3LFclYIzIa277ri/Ztcxi2U7S1kJHfmZ01i
25QuKY7dHXrKvGj7FSyAVtPd5zqPmBgUSxHZxAEfuXrQ2a1pEQX2Dq5f/M3Gs8tN
ro5FGAqowEARKNzNn3omZ1pHgJvZTPfaX20TgxqRktG5RPdya5dHdHFwgNPWc792
M1xwuG+HNz5+jnXlAgMBAAGjggG/MIIBuzAfBgNVHSMEGDAWgBQMXpz+ukshbAQd
wlq344hfWd5MEjAdBgNVHQ4EFgQUDmuqg6myTVyFzbHSL4f3IMs2QzswDgYDVR0P
AQH/BAQDAgWgMAwGA1UdEwEB/wQCMAAwGgYDVR0RBBMwEYIPd3d3LmV4YW1wbGUu
Y29tMGIGCCsGAQUFBwEBBFYwVDAoBggrBgEFBQcwAoYcaHR0cDovL2NhLmV4YW1w
bGUuY29tL2NhLmNydDAoBggrBgEFBQcwAYYcaHR0cDovL29jc3AuZXhhbXBsZS5j
b20vb2NzcDAfBgNVHSAEGDAWMAkGBwQAi+xAAQQwCQYHBACBmCcDATAdBgNVHSUE
FjAUBggrBgEFBQcDAQYIKwYBBQUHAwIwgZoGCCsGAQUFBwEDBIGNMIGKMAgGBgQA
jkYBATATBgYEAI5GAQYwCQYHBACORgEGAzAVBggrBgEFBQcLAjAJBgcEAIvsSQEC
MFIGBgQAgZgnAjBIMBMwEQYHBACBmCcBBAwGUFNQX0lDDCdGZWRlcmFsIEZpbmFu
Y2lhbCBTdXBlcnZpc29yeSBBdXRob3JpdHkMCERFLUJBRklOMA0GCSqGSIb3DQEB
CwUAA4IBAQBsLOwtkU6InPPO3JMgVsDZ4Mt7sa/qVw8P0ts+VnZm0ToizFA3sFnS
CT6y8Av9X3BLsfbOLhdhMarygMXql1ecKiw0maKaAkrXIsC4KS7HBnLWl8fjOR/Q
V+7d71dhxNBRRrnJ5dstTzVcW7vYs3eMUa1jorybne6A7ocxGUtu7L7hFCLhgZu8
qSapt8HZ/2OSbipl2KhAKCUWl2qhomoptIvjxfZxlLphuhliV91DYK29LSS7lDjT
zdUJG5gpK16I+4TmRFAbGBMMd41Jg40+thJFXsSH9FMKGUMY7IPqgLr9wyRyAKmP
CoNdL+IknkkapZ3fDrKi32m2mh/EEulc
-----END CERTIFICATE-----
