Certificate:
    Data:
        Version: 3 (0x2)
        Serial Number:
            0e:01:20:5b:a2:8e:56:06:25:53:91:c6:b6
        Signature Algorithm: sha256WithRSAEncryption
        Issuer: CN = Test SubCA 2, OU = Test, O = MTG, C = DE
        Validity
            Not Before: Nov  7 03:51:24 2019 GMT
            Not After : Nov  7 03:51:24 2020 GMT
        Subject: OU = Test, O = MTG, L = Darmstadt, ST = Hessen, C = DE
        Subject Public Key Info:
            Public Key Algorithm: rsaEncryption
                RSA Public-Key: (2048 bit)
                Modulus:
                    00:85:02:40:0e:6a:99:49:ca:4f:c3:62:d1:ff:6f:
                    c4:1a:28:17:32:f4:f1:6f:a4:86:5d:5f:08:97:04:
                    c9:b4:89:87:71:7d:51:d2:0f:d8:9c:ff:7e:c3:c0:
                    5c:9c:c4:91:5f:da:f2:f5:a4:c0:90:ac:88:81:eb:
                    ff:b9:ad:8c:5c:1b:31:57:ec:1f:7a:8f:30:96:18:
                    e4:33:14:d1:66:ad:ab:5a:a0:9c:5d:34:4f:84:8e:
                    10:d0:cb:58:b8:d1:91:b1:8d:8e:71:5b:60:97:e6:
                    57:4b:18:d9:8d:1c:ba:2f:f1:c9:61:f7:00:1a:48:
                    c7:a2:3b:d8:f1:9d:ac:3c:bf:fb:08:2e:ac:3b:42:
                    91:21:85:1f:40:82:36:3b:df:b1:d5:b7:f1:51:33:
                    cb:16:c4:6a:38:10:1b:2d:18:2e:e0:c8:cb:46:57:
                    91:74:7d:6c:2b:8b:6f:44:97:ed:b0:a9:41:3d:78:
                    9a:99:a2:fb:70:1f:5b:6b:60:0e:8f:56:ec:ec:6d:
                    e9:40:f6:1a:c2:2f:42:6f:69:29:99:3f:4c:83:eb:
                    a0:9e:02:d7:49:b4:c5:b8:8b:08:4a:d0:aa:db:4d:
                    dd:f0:07:c5:72:70:61:d5:7f:1e:a4:83:b2:5e:2c:
                    79:6f:b1:ed:7b:ce:77:af:38:06:90:d9:ce:2f:11:
                    ec:a3
                Exponent: 65537 (0x10001)
        X509v3 extensions:
            X509v3 Authority Key Identifier: 
                keyid:D6:8F:89:58:16:39:4F:4C:33:95:21:C9:F6:72:F7:1C:EC:5A:AB:FE

            X509v3 Subject Key Identifier: 
                9B:86:2F:05:71:BA:0D:AA:FE:1B:3C:73:8A:DA:F9:66:BA:D6:82:D3
            X509v3 Key Usage: critical
                Digital Signature, Key Encipherment
            X509v3 Basic Constraints: critical
                CA:FALSE
            X509v3 Subject Alternative Name: 
                DNS:www.example.com
            Authority Information Access: 
                CA Issuers - URI:http://ca.example.com/ca.crt
                OCSP - URI:http://ocsp.example.com/ocsp

            X509v3 Extended Key Usage: 
                TLS Web Server Authentication, TLS Web Client Authentication
            qcStatements: 
                0.0......F..0......F..0......F...
    Signature Algorithm: sha256WithRSAEncryption
         9e:78:3b:79:1d:ca:c2:e4:7e:26:4f:7b:6e:bb:87:a6:fb:1d:
         b7:cc:5d:3b:7b:e9:6f:1f:f4:a8:a4:24:30:f1:89:ed:ac:54:
         05:e9:c5:5d:98:90:12:36:c5:a3:6a:d4:9d:40:ce:28:32:7f:
         7a:ea:1c:05:4a:42:27:8f:ba:3a:b3:82:9d:e9:f9:86:f9:11:
         27:05:e0:1f:a1:06:c0:f8:92:14:ff:89:06:bb:14:a2:3d:51:
         17:05:63:b6:cd:b0:b2:6c:59:78:c1:9b:03:66:ba:51:1a:6f:
         8c:33:e2:47:a7:d3:c3:e4:8c:cd:cd:67:46:29:10:3a:97:8f:
         e5:75:8e:3c:62:68:f5:d6:de:2a:8c:f8:8b:8d:a4:d7:e9:d4:
         80:54:da:6f:af:3e:d9:5e:45:fb:88:66:67:9a:f8:9e:ad:5d:
         e8:7d:9d:aa:8d:16:37:96:52:3e:b4:cd:9d:0a:61:8b:28:7a:
         5d:c4:9b:6e:0e:50:4d:a8:11:43:56:70:69:55:44:73:7d:bd:
         83:fb:3f:0a:0b:c3:85:54:d3:ba:ef:8f:57:97:96:d7:ff:93:
         9a:54:2a:41:ce:b3:df:e1:5d:4b:18:1b:1a:69:3b:1b:b7:93:
         0a:6a:d7:6a:be:83:5c:86:fa:b4:cc:a0:ce:e9:cc:77:86:f0:
         d7:55:78:78
-----BEGIN CERTIFICATE-----
MIIESTCCAzGgAwIBAgINDgEgW6KOVgYlU5HGtjANBgkqhkiG9w0BAQsFADBBMRUw
EwYDVQQDDAxUZXN0IFN1YkNBIDIxDTALBgNVBAsMBFRlc3QxDDAKBgNVBAoMA01U
RzELMAkGA1UEBhMCREUwHhcNMTkxMTA3MDM1MTI0WhcNMjAxMTA3MDM1MTI0WjBP
MQ0wCwYDVQQLDARUZXN0MQwwCgYDVQQKDANNVEcxEjAQBgNVBAcMCURhcm1zdGFk
dDEPMA0GA1UECAwGSGVzc2VuMQswCQYDVQQGEwJERTCCASIwDQYJKoZIhvcNAQEB
BQADggEPADCCAQoCggEBAIUCQA5qmUnKT8Ni0f9vxBooFzL08W+khl1fCJcEybSJ
h3F9UdIP2Jz/fsPAXJzEkV/a8vWkwJCsiIHr/7mtjFwbMVfsH3qPMJYY5DMU0Wat
q1qgnF00T4SOENDLWLjRkbGNjnFbYJfmV0sY2Y0cui/xyWH3ABpIx6I72PGdrDy/
+wgurDtCkSGFH0CCNjvfsdW38VEzyxbEajgQGy0YLuDIy0ZXkXR9bCuLb0SX7bCp
QT14mpmi+3AfW2tgDo9W7Oxt6UD2GsIvQm9pKZk/TIProJ4C10m0xbiLCErQqttN
3fAHxXJwYdV/HqSDsl4seW+x7XvOd684BpDZzi8R7KMCAwEAAaOCATAwggEsMB8G
A1UdIwQYMBaAFNaPiVgWOU9MM5UhyfZy9xzsWqv+MB0GA1UdDgQWBBSbhi8FcboN
qv4bPHOK2vlmutaC0zAOBgNVHQ8BAf8EBAMCBaAwDAYDVR0TAQH/BAIwADAaBgNV
HREEEzARgg93d3cuZXhhbXBsZS5jb20wYgYIKwYBBQUHAQEEVjBUMCgGCCsGAQUF
BzAChhxodHRwOi8vY2EuZXhhbXBsZS5jb20vY2EuY3J0MCgGCCsGAQUFBzABhhxo
dHRwOi8vb2NzcC5leGFtcGxlLmNvbS9vY3NwMB0GA1UdJQQWMBQGCCsGAQUFBwMB
BggrBgEFBQcDAjAtBggrBgEFBQcBAwQhMB8wCAYGBACORgEBMBMGBgQAjkYBBjAJ
BgcEAI5GAQYCMA0GCSqGSIb3DQEBCwUAA4IBAQCeeDt5HcrC5H4mT3tuu4em+x23
zF07e+lvH/SopCQw8YntrFQF6cVdmJASNsWjatSdQM4oMn966hwFSkInj7o6s4Kd
6fmG+REnBeAfoQbA+JIU/4kGuxSiPVEXBWO2zbCybFl4wZsDZrpRGm+MM+JHp9PD
5IzNzWdGKRA6l4/ldY48Ymj11t4qjPiLjaTX6dSAVNpvrz7ZXkX7iGZnmvierV3o
fZ2qjRY3llI+tM2dCmGLKHpdxJtuDlBNqBFDVnBpVURzfb2D+z8KC8OFVNO6749X
l5bX/5OaVCpBzrPf4V1LGBsaaTsbt5MKatdqvoNchvq0zKDO6cx3hvDXVXh4
-----END CERTIFICATE-----
