Certificate:
    Data:
        Version: 3 (0x2)
        Serial Number:
            0c:94:e9:14:0a:02:76:b6:a0:a1:73:b2:ad
        Signature Algorithm: sha256WithRSAEncryption
        Issuer: CN = Test SubCA 2, OU = Test, O = MTG, C = DE
        Validity
            Not Before: Nov  7 03:51:24 2019 GMT
            Not After : Nov  7 03:51:24 2020 GMT
        Subject: OU = Test, O = MTG, L = Darmstadt, ST = Hessen, C = DE
        Subject Public Key Info:
            Public Key Algorithm: rsaEncryption
                RSA Public-Key: (2048 bit)
                Modulus:
                    00:85:02:40:0e:6a:99:49:ca:4f:c3:62:d1:ff:6f:
                    c4:1a:28:17:32:f4:f1:6f:a4:86:5d:5f:08:97:04:
                    c9:b4:89:87:71:7d:51:d2:0f:d8:9c:ff:7e:c3:c0:
                    5c:9c:c4:91:5f:da:f2:f5:a4:c0:90:ac:88:81:eb:
                    ff:b9:ad:8c:5c:1b:31:57:ec:1f:7a:8f:30:96:18:
                    e4:33:14:d1:66:ad:ab:5a:a0:9c:5d:34:4f:84:8e:
                    10:d0:cb:58:b8:d1:91:b1:8d:8e:71:5b:60:97:e6:
                    57:4b:18:d9:8d:1c:ba:2f:f1:c9:61:f7:00:1a:48:
                    c7:a2:3b:d8:f1:9d:ac:3c:bf:fb:08:2e:ac:3b:42:
                    91:21:85:1f:40:82:36:3b:df:b1:d5:b7:f1:51:33:
                    cb:16:c4:6a:38:10:1b:2d:18:2e:e0:c8:cb:46:57:
                    91:74:7d:6c:2b:8b:6f:44:97:ed:b0:a9:41:3d:78:
                    9a:99:a2:fb:70:1f:5b:6b:60:0e:8f:56:ec:ec:6d:
                    e9:40:f6:1a:c2:2f:42:6f:69:29:99:3f:4c:83:eb:
                    a0:9e:02:d7:49:b4:c5:b8:8b:08:4a:d0:aa:db:4d:
                    dd:f0:07:c5:72:70:61:d5:7f:1e:a4:83:b2:5e:2c:
                    79:6f:b1:ed:7b:ce:77:af:38:06:90:d9:ce:2f:11:
                    ec:a3
                Exponent: 65537 (0x10001)
        X509v3 extensions:
            X509v3 Authority Key Identifier: 
                keyid:D6:8F:89:58:16:39:4F:4C:33:95:21:C9:F6:72:F7:1C:EC:5A:AB:FE

            X509v3 Subject Key Identifier: 
                9B:86:2F:05:71:BA:0D:AA:FE:1B:3C:73:8A:DA:F9:66:BA:D6:82:D3
            X509v3 Key Usage: critical
                Digital Signature, Key Encipherment
            X509v3 Basic Constraints: critical
                CA:FALSE
            X509v3 Subject Alternative Name: 
                DNS:www.example.com
            Authority Information Access: 
                CA Issuers - URI:http://ca.example.com/ca.crt
                OCSP - URI:http://ocsp.example.com/ocsp

            X509v3 Extended Key Usage: 
                TLS Web Server Authentication, TLS Web Client Authentication
            qcStatements: 
                0.0......F..0......F..0......F...
    Signature Algorithm: sha256WithRSAEncryption
         4d:0e:f3:12:05:8b:0b:71:78:6a:5b:83:5f:48:59:ff:a2:59:
         24:e4:a9:1e:fa:8a:38:ec:67:95:76:4c:af:09:82:2b:7c:04:
         81:8a:01:0c:11:5d:bd:66:42:4b:80:eb:9c:80:29:c8:75:28:
         c4:15:71:d0:f0:c9:a2:89:b2:bd:5c:58:a2:5c:07:22:86:a8:
         96:9d:44:51:0e:de:70:24:fb:35:80:3d:e5:eb:c8:83:2f:24:
         85:1f:c7:ac:2b:66:e8:7a:c3:d8:32:1d:54:16:ec:d6:13:fe:
         1a:c7:13:95:c0:40:80:b5:47:84:20:57:51:5e:03:56:f8:07:
         a9:99:0c:67:d2:c9:f0:da:de:bd:54:be:39:00:9d:97:d5:7a:
         84:9c:7e:24:77:3f:8c:53:f6:04:7c:65:67:fb:6d:06:31:65:
         0b:8f:28:25:33:07:10:90:ce:d7:a4:8f:b9:c3:08:2d:9b:cb:
         da:b0:9a:98:dd:20:a2:1b:06:b1:f2:e8:ca:ea:54:c2:87:c3:
         2f:da:7c:da:99:95:74:ca:a5:97:06:0f:1f:01:32:5b:9a:51:
         8e:53:95:28:25:f2:0f:39:89:00:8b:76:98:71:da:e3:1b:c8:
         7d:a1:08:a1:3c:08:ff:58:48:bf:a3:35:25:e1:67:a8:9b:35:
         5f:42:40:11
-----BEGIN CERTIFICATE-----
MIIESTCCAzGgAwIBAgINDJTpFAoCdragoXOyrTANBgkqhkiG9w0BAQsFADBBMRUw
EwYDVQQDDAxUZXN0IFN1YkNBIDIxDTALBgNVBAsMBFRlc3QxDDAKBgNVBAoMA01U
RzELMAkGA1UEBhMCREUwHhcNMTkxMTA3MDM1MTI0WhcNMjAxMTA3MDM1MTI0WjBP
MQ0wCwYDVQQLDARUZXN0MQwwCgYDVQQKDANNVEcxEjAQBgNVBAcMCURhcm1zdGFk
dDEPMA0GA1UECAwGSGVzc2VuMQswCQYDVQQGEwJERTCCASIwDQYJKoZIhvcNAQEB
BQADggEPADCCAQoCggEBAIUCQA5qmUnKT8Ni0f9vxBooFzL08W+khl1fCJcEybSJ
h3F9UdIP2Jz/fsPAXJzEkV/a8vWkwJCsiIHr/7mtjFwbMVfsH3qPMJYY5DMU0Wat
q1qgnF00T4SOENDLWLjRkbGNjnFbYJfmV0sY2Y0cui/xyWH3ABpIx6I72PGdrDy/
+wgurDtCkSGFH0CCNjvfsdW38VEzyxbEajgQGy0YLuDIy0ZXkXR9bCuLb0SX7bCp
QT14mpmi+3AfW2tgDo9W7Oxt6UD2GsIvQm9pKZk/TIProJ4C10m0xbiLCErQqttN
3fAHxXJwYdV/HqSDsl4seW+x7XvOd684BpDZzi8R7KMCAwEAAaOCATAwggEsMB8G
A1UdIwQYMBaAFNaPiVgWOU9MM5UhyfZy9xzsWqv+MB0GA1UdDgQWBBSbhi8FcboN
qv4bPHOK2vlmutaC0zAOBgNVHQ8BAf8EBAMCBaAwDAYDVR0TAQH/BAIwADAaBgNV
HREEEzARgg93d3cuZXhhbXBsZS5jb20wYgYIKwYBBQUHAQEEVjBUMCgGCCsGAQUF
BzAChhxodHRwOi8vY2EuZXhhbXBsZS5jb20vY2EuY3J0MCgGCCsGAQUFBzABhhxo
dHRwOi8vb2NzcC5leGFtcGxlLmNvbS9vY3NwMB0GA1UdJQQWMBQGCCsGAQUFBwMB
BggrBgEFBQcDAjAtBggrBgEFBQcBAwQhMB8wCAYGBACORgEBMBMGBgQAjkYBBjAJ
BgcEAI5GAQYBMA0GCSqGSIb3DQEBCwUAA4IBAQBNDvMSBYsLcXhqW4NfSFn/olkk
5Kke+oo47GeVdkyvCYIrfASBigEMEV29ZkJLgOucgCnIdSjEFXHQ8MmiibK9XFii
XAcihqiWnURRDt5wJPs1gD3l68iDLySFH8esK2boesPYMh1UFuzWE/4axxOVwECA
tUeEIFdRXgNW+AepmQxn0snw2t69VL45AJ2X1XqEnH4kdz+MU/YEfGVn+20GMWUL
jyglMwcQkM7XpI+5wwgtm8vasJqY3SCiGwax8ujK6lTCh8Mv2nzamZV0yqWXBg8f
ATJbmlGOU5UoJfIPOYkAi3aYcdrjG8h9oQihPAj/WEi/ozUl4WeomzVfQkAR
-----END CERTIFICATE-----
