Certificate:
    Data:
        Version: 3 (0x2)
        Serial Number:
            08:08:65:ba:35:6c:c4:97:ab:db:59:32:c7
        Signature Algorithm: sha256WithRSAEncryption
        Issuer: CN = Test SubCA 2, OU = Test, O = MTG, C = DE
        Validity
            Not Before: Nov  4 05:52:58 2019 GMT
            Not After : Nov  4 05:52:58 2020 GMT
        Subject: OU = Test, O = MTG, L = Darmstadt, ST = Hessen, C = DE
        Subject Public Key Info:
            Public Key Algorithm: rsaEncryption
                RSA Public-Key: (2048 bit)
                Modulus:
                    00:9d:52:43:fa:16:05:6a:f6:f0:48:8e:08:8d:66:
                    31:2f:28:ff:61:bf:61:d8:af:be:90:f9:03:ed:3f:
                    85:bc:68:ec:49:e1:96:a1:a4:14:14:e3:ff:a7:00:
                    a3:9c:36:3b:ed:e3:5a:15:4f:f9:85:7e:f5:fe:8e:
                    d6:f5:af:90:04:c6:dc:c3:22:89:26:2c:ce:67:e2:
                    d6:56:71:6b:60:19:33:5f:47:d9:9b:6d:40:7b:ee:
                    ae:5c:42:d7:8c:4b:1a:ed:4b:e9:31:ce:84:a8:f8:
                    27:91:59:09:a9:8a:7d:db:8c:f0:52:76:9f:57:24:
                    91:41:18:8e:e4:3d:51:ed:e8:67:c2:dc:92:39:fc:
                    87:64:03:f8:11:95:2b:ff:96:8c:4a:db:49:c2:5e:
                    bd:e8:16:2b:07:79:e2:64:b0:bc:e3:27:4d:db:f5:
                    59:ee:75:ff:60:9c:0b:f2:51:e7:54:c3:a2:06:14:
                    2a:ce:d8:a3:d2:fb:b0:6d:c3:00:74:b8:a1:c4:1d:
                    0d:83:d3:19:d6:8c:bd:e9:7b:65:2d:e3:59:c1:83:
                    f6:0e:b0:35:74:20:ec:59:67:71:7c:37:93:31:37:
                    64:47:75:a1:ab:0a:85:e2:23:94:37:22:69:44:91:
                    ea:86:6a:06:8f:56:89:8f:0b:80:ae:af:8c:9b:5a:
                    89:49
                Exponent: 65537 (0x10001)
        X509v3 extensions:
            X509v3 Authority Key Identifier: 
                keyid:17:B9:3C:44:F5:76:4B:60:42:6D:2C:09:9E:E2:5C:B3:CE:BC:C5:62

            X509v3 Subject Key Identifier: 
                CE:2A:D6:50:67:86:3B:EB:6D:70:81:F9:6B:C6:40:7E:4D:62:75:7D
            X509v3 Key Usage: critical
                Digital Signature, Key Encipherment
            X509v3 Basic Constraints: critical
                CA:FALSE
            X509v3 Subject Alternative Name: 
                DNS:www.example.com
            Authority Information Access: 
                CA Issuers - URI:http://ca.example.com/ca.crt
                OCSP - URI:http://ocsp.example.com/ocsp

            X509v3 Certificate Policies: 
                Policy: 0.4.0.194112.1.2

            X509v3 Extended Key Usage: 
                TLS Web Server Authentication, TLS Web Client Authentication
            qcStatements: 
                0.0......F..0......F..0......F...
    Signature Algorithm: sha256WithRSAEncryption
         82:cc:b8:c2:44:76:43:d7:95:dd:2c:8f:f5:22:44:e3:b3:77:
         d3:60:50:58:d0:68:83:2f:03:3e:f3:86:cf:a3:c3:b1:a7:f6:
         a4:b2:c1:91:7c:58:ee:2a:ed:0d:ef:6f:41:9c:5c:65:c8:ca:
         a1:46:41:fc:7f:13:16:2d:d6:2f:13:8c:3b:46:e2:94:83:58:
         b4:6f:f7:d2:07:77:35:ab:a4:78:60:1f:0b:be:da:60:eb:f3:
         56:ba:0b:90:a3:a6:b6:97:ca:9a:41:04:e4:f5:25:41:67:da:
         cb:a2:04:c9:9c:a4:77:8e:2f:f3:2b:33:e4:37:e8:bd:3a:d2:
         c9:14:fa:11:2f:3c:f9:6a:e3:68:98:b8:c8:dd:60:9c:35:fd:
         43:07:d8:99:cc:11:bb:ce:a9:fd:11:ed:7a:6c:36:0f:09:21:
         05:c0:04:48:d3:0c:58:cc:41:47:de:20:e8:ce:2c:b0:97:25:
         78:da:28:4a:fe:de:48:3a:35:05:8e:96:05:1c:69:98:2e:91:
         4b:0e:0c:1b:61:2f:15:25:39:fc:d5:1a:74:01:f0:a1:7b:31:
         8f:b5:e6:bb:55:f7:5b:03:73:93:c2:7c:bf:33:dd:40:0e:8a:
         9b:21:38:20:49:9c:a7:64:ac:11:cb:dc:5f:29:54:83:a0:41:
         0a:da:6e:53
-----BEGIN CERTIFICATE-----
MIIEXzCCA0egAwIBAgINCAhlujVsxJer21kyxzANBgkqhkiG9w0BAQsFADBBMRUw
EwYDVQQDDAxUZXN0IFN1YkNBIDIxDTALBgNVBAsMBFRlc3QxDDAKBgNVBAoMA01U
RzELMAkGA1UEBhMCREUwHhcNMTkxMTA0MDU1MjU4WhcNMjAxMTA0MDU1MjU4WjBP
MQ0wCwYDVQQLDARUZXN0MQwwCgYDVQQKDANNVEcxEjAQBgNVBAcMCURhcm1zdGFk
dDEPMA0GA1UECAwGSGVzc2VuMQswCQYDVQQGEwJERTCCASIwDQYJKoZIhvcNAQEB
BQADggEPADCCAQoCggEBAJ1SQ/oWBWr28EiOCI1mMS8o/2G/YdivvpD5A+0/hbxo
7EnhlqGkFBTj/6cAo5w2O+3jWhVP+YV+9f6O1vWvkATG3MMiiSYszmfi1lZxa2AZ
M19H2ZttQHvurlxC14xLGu1L6THOhKj4J5FZCamKfduM8FJ2n1ckkUEYjuQ9Ue3o
Z8Lckjn8h2QD+BGVK/+WjErbScJevegWKwd54mSwvOMnTdv1We51/2CcC/JR51TD
ogYUKs7Yo9L7sG3DAHS4ocQdDYPTGdaMvel7ZS3jWcGD9g6wNXQg7FlncXw3kzE3
ZEd1oasKheIjlDciaUSR6oZqBo9WiY8LgK6vjJtaiUkCAwEAAaOCAUYwggFCMB8G
A1UdIwQYMBaAFBe5PET1dktgQm0sCZ7iXLPOvMViMB0GA1UdDgQWBBTOKtZQZ4Y7
621wgflrxkB+TWJ1fTAOBgNVHQ8BAf8EBAMCBaAwDAYDVR0TAQH/BAIwADAaBgNV
HREEEzARgg93d3cuZXhhbXBsZS5jb20wYgYIKwYBBQUHAQEEVjBUMCgGCCsGAQUF
BzAChhxodHRwOi8vY2EuZXhhbXBsZS5jb20vY2EuY3J0MCgGCCsGAQUFBzABhhxo
dHRwOi8vb2NzcC5leGFtcGxlLmNvbS9vY3NwMBQGA1UdIAQNMAswCQYHBACL7EAB
AjAdBgNVHSUEFjAUBggrBgEFBQcDAQYIKwYBBQUHAwIwLQYIKwYBBQUHAQMEITAf
MAgGBgQAjkYBATATBgYEAI5GAQYwCQYHBACORgEGAjANBgkqhkiG9w0BAQsFAAOC
AQEAgsy4wkR2Q9eV3SyP9SJE47N302BQWNBogy8DPvOGz6PDsaf2pLLBkXxY7irt
De9vQZxcZcjKoUZB/H8TFi3WLxOMO0bilINYtG/30gd3NaukeGAfC77aYOvzVroL
kKOmtpfKmkEE5PUlQWfay6IEyZykd44v8ysz5DfovTrSyRT6ES88+WrjaJi4yN1g
nDX9QwfYmcwRu86p/RHtemw2DwkhBcAESNMMWMxBR94g6M4ssJcleNooSv7eSDo1
BY6WBRxpmC6RSw4MG2EvFSU5/NUadAHwoXsxj7Xmu1X3WwNzk8J8vzPdQA6KmyE4
IEmcp2SsEcvcXylUg6BBCtpuUw==
-----END CERTIFICATE-----
