Certificate:
    Data:
        Version: 3 (0x2)
        Serial Number:
            0a:69:88:9f:f2:a4:56:34:4d:a9:8e:36:a0
        Signature Algorithm: sha256WithRSAEncryption
        Issuer: CN = Test SubCA 2, OU = Test, O = MTG, C = DE
        Validity
            Not Before: Nov  1 08:03:00 2019 GMT
            Not After : Nov  1 08:03:00 2020 GMT
        Subject: O = MTG, OU = Test, L = Darmstadt, ST = Hessen, C = DE
        Subject Public Key Info:
            Public Key Algorithm: rsaEncryption
                RSA Public-Key: (2048 bit)
                Modulus:
                    00:c2:0d:81:71:b4:94:05:bc:cf:99:8a:aa:62:08:
                    f2:2e:63:b2:1e:46:f9:2b:85:98:c3:83:d0:ce:26:
                    ad:76:8f:5c:e7:5b:05:20:25:26:32:19:c2:24:8a:
                    ba:69:a3:eb:ca:10:a4:f3:cf:b5:c6:1e:f6:70:58:
                    96:5b:88:52:6a:88:42:33:85:b8:c6:16:48:4f:01:
                    45:39:3f:e1:6a:b9:06:b5:ef:37:db:79:9e:50:90:
                    57:43:5b:8b:c3:35:0d:b3:41:f4:1b:c2:4a:7f:18:
                    3c:39:2d:4f:bf:2b:a5:71:07:73:33:00:e5:8d:36:
                    9e:fe:8f:72:c5:72:56:08:cc:86:b6:ef:ba:e2:fd:
                    9b:5c:c6:2d:94:ed:2d:64:24:77:e6:67:4d:62:db:
                    94:2e:29:8e:dd:1d:7a:ca:bc:68:fb:15:2c:80:56:
                    d3:dd:e7:3a:8f:98:18:14:4b:11:d9:c4:01:1f:b9:
                    7a:d0:d9:ad:69:11:05:f6:0e:ae:5f:fc:cd:c6:b3:
                    cb:4d:ae:8e:45:18:0a:a8:c0:40:11:28:dc:cd:9f:
                    7a:26:67:5a:47:80:9b:d9:4c:f7:da:5f:6d:13:83:
                    1a:91:92:d1:b9:44:f7:72:6b:97:47:74:71:70:80:
                    d3:d6:73:bf:76:33:5c:70:b8:6f:87:37:3e:7e:8e:
                    75:e5
                Exponent: 65537 (0x10001)
        X509v3 extensions:
            X509v3 Authority Key Identifier: 
                keyid:0C:5E:9C:FE:BA:4B:21:6C:04:1D:C2:5A:B7:E3:88:5F:59:DE:4C:12

            X509v3 Subject Key Identifier: 
                0E:6B:AA:83:A9:B2:4D:5C:85:CD:B1:D2:2F:87:F7:20:CB:36:43:3B
            X509v3 Key Usage: critical
                Digital Signature, Key Encipherment
            X509v3 Basic Constraints: critical
                CA:FALSE
            X509v3 Subject Alternative Name: 
                DNS:www.example.com
            Authority Information Access: 
                CA Issuers - URI:http://ca.example.com/ca.crt
                OCSP - URI:http://ocsp.example.com/ocsp

            X509v3 Certificate Policies: 
                Policy: 0.4.0.194112.1.4
                Policy: 0.4.0.19495.3.1

            X509v3 Extended Key Usage: 
                TLS Web Server Authentication, TLS Web Client Authentication
            qcStatements: 
                0..0......F..0......F..0......F...0...+.......0.......I..0R......'.0H0.0.......'....PSP_IC.'Federal Financial Supervisory Authority..DE-BAFIN
    Signature Algorithm: sha256WithRSAEncryption
         2c:7b:2d:91:72:70:64:95:e2:90:e6:56:4f:de:f2:8b:dc:b9:
         f6:b1:f0:b5:15:2f:79:74:89:fb:d6:90:d6:e9:14:66:45:23:
         97:e0:7d:8d:8c:64:d9:1f:36:e8:fe:10:5f:9b:c2:aa:77:3d:
         05:e1:55:20:c6:58:a3:c2:b2:c5:50:46:6f:e8:f7:ba:85:77:
         a4:a3:ec:79:8b:1c:b9:3a:75:6b:9a:34:3b:3e:f5:fc:e1:f2:
         f4:7e:96:9a:9f:63:8d:cb:03:f6:e9:69:e6:34:05:39:f4:32:
         c1:43:d9:c4:95:5e:b9:34:28:5a:26:e0:0c:86:b7:a2:9d:17:
         c9:ae:6d:46:59:95:09:ba:b7:ac:5e:6b:d3:19:80:89:1a:2c:
         f9:16:22:93:90:c8:56:f8:0f:89:f3:28:ca:a1:6d:4e:1d:a1:
         32:9a:6c:20:76:89:f5:a6:39:9f:df:a2:62:c7:b6:d6:8a:97:
         64:91:77:e5:8e:bd:5b:a0:0f:df:a0:4c:c7:cb:e8:11:a8:75:
         11:08:54:22:d6:bb:5a:e0:d9:9f:9e:e1:68:b2:f1:23:12:ac:
         65:9b:be:43:79:07:49:a7:ea:15:25:63:89:55:ba:5e:bf:18:
         0f:e8:7c:68:6d:db:ea:74:fc:66:91:64:2a:a6:c0:6d:89:8f:
         f1:88:9f:fd
-----BEGIN CERTIFICATE-----
MIIE2DCCA8CgAwIBAgINCmmIn/KkVjRNqY42oDANBgkqhkiG9w0BAQsFADBBMRUw
EwYDVQQDDAxUZXN0IFN1YkNBIDIxDTALBgNVBAsMBFRlc3QxDDAKBgNVBAoMA01U
RzELMAkGA1UEBhMCREUwHhcNMTkxMTAxMDgwMzAwWhcNMjAxMTAxMDgwMzAwWjBP
MQwwCgYDVQQKDANNVEcxDTALBgNVBAsMBFRlc3QxEjAQBgNVBAcMCURhcm1zdGFk
dDEPMA0GA1UECAwGSGVzc2VuMQswCQYDVQQGEwJERTCCASIwDQYJKoZIhvcNAQEB
BQADggEPADCCAQoCggEBAMINgXG0lAW8z5mKqmII8i5jsh5G+SuFmMOD0M4mrXaP
XOdbBSAlJjIZwiSKummj68oQpPPPtcYe9nBYlluIUmqIQjOFuMYWSE8BRTk/4Wq5
BrXvN9t5nlCQV0Nbi8M1DbNB9BvCSn8YPDktT78rpXEHczMA5Y02nv6PcsVyVgjM
hrbvuuL9m1zGLZTtLWQkd+ZnTWLblC4pjt0desq8aPsVLIBW093nOo+YGBRLEdnE
AR+5etDZrWkRBfYOrl/8zcazy02ujkUYCqjAQBEo3M2feiZnWkeAm9lM99pfbROD
GpGS0blE93Jrl0d0cXCA09Zzv3YzXHC4b4c3Pn6OdeUCAwEAAaOCAb8wggG7MB8G
A1UdIwQYMBaAFAxenP66SyFsBB3CWrfjiF9Z3kwSMB0GA1UdDgQWBBQOa6qDqbJN
XIXNsdIvh/cgyzZDOzAOBgNVHQ8BAf8EBAMCBaAwDAYDVR0TAQH/BAIwADAaBgNV
HREEEzARgg93d3cuZXhhbXBsZS5jb20wYgYIKwYBBQUHAQEEVjBUMCgGCCsGAQUF
BzAChhxodHRwOi8vY2EuZXhhbXBsZS5jb20vY2EuY3J0MCgGCCsGAQUFBzABhhxo
dHRwOi8vb2NzcC5leGFtcGxlLmNvbS9vY3NwMB8GA1UdIAQYMBYwCQYHBACL7EAB
BDAJBgcEAIGYJwMBMB0GA1UdJQQWMBQGCCsGAQUFBwMBBggrBgEFBQcDAjCBmgYI
KwYBBQUHAQMEgY0wgYowCAYGBACORgEBMBMGBgQAjkYBBjAJBgcEAI5GAQYDMBUG
CCsGAQUFBwsCMAkGBwQAi+xJAQIwUgYGBACBmCcCMEgwEzARBgcEAIGYJwEEDAZQ
U1BfSUMMJ0ZlZGVyYWwgRmluYW5jaWFsIFN1cGVydmlzb3J5IEF1dGhvcml0eQwI
REUtQkFGSU4wDQYJKoZIhvcNAQELBQADggEBACx7LZFycGSV4pDmVk/e8ovcufax
8LUVL3l0ifvWkNbpFGZFI5fgfY2MZNkfNuj+EF+bwqp3PQXhVSDGWKPCssVQRm/o
97qFd6Sj7HmLHLk6dWuaNDs+9fzh8vR+lpqfY43LA/bpaeY0BTn0MsFD2cSVXrk0
KFom4AyGt6KdF8mubUZZlQm6t6xea9MZgIkaLPkWIpOQyFb4D4nzKMqhbU4doTKa
bCB2ifWmOZ/fomLHttaKl2SRd+WOvVugD9+gTMfL6BGodREIVCLWu1rg2Z+e4Wiy
8SMSrGWbvkN5B0mn6hUlY4lVul6/GA/ofGht2+p0/GaRZCqmwG2Jj/GIn/0=
-----END CERTIFICATE-----
