Certificate:
    Data:
        Version: 3 (0x2)
        Serial Number:
            02:5f:be:db:57:ad:29:c8:9e:3b:6e:7c:81
        Signature Algorithm: sha256WithRSAEncryption
        Issuer: CN = Test SubCA 2, OU = Test, O = MTG, C = DE
        Validity
            Not Before: Nov  4 05:52:58 2019 GMT
            Not After : Nov  4 05:52:58 2020 GMT
        Subject: OU = Test, O = MTG, L = Darmstadt, ST = Hessen, C = DE
        Subject Public Key Info:
            Public Key Algorithm: rsaEncryption
                RSA Public-Key: (2048 bit)
                Modulus:
                    00:9d:52:43:fa:16:05:6a:f6:f0:48:8e:08:8d:66:
                    31:2f:28:ff:61:bf:61:d8:af:be:90:f9:03:ed:3f:
                    85:bc:68:ec:49:e1:96:a1:a4:14:14:e3:ff:a7:00:
                    a3:9c:36:3b:ed:e3:5a:15:4f:f9:85:7e:f5:fe:8e:
                    d6:f5:af:90:04:c6:dc:c3:22:89:26:2c:ce:67:e2:
                    d6:56:71:6b:60:19:33:5f:47:d9:9b:6d:40:7b:ee:
                    ae:5c:42:d7:8c:4b:1a:ed:4b:e9:31:ce:84:a8:f8:
                    27:91:59:09:a9:8a:7d:db:8c:f0:52:76:9f:57:24:
                    91:41:18:8e:e4:3d:51:ed:e8:67:c2:dc:92:39:fc:
                    87:64:03:f8:11:95:2b:ff:96:8c:4a:db:49:c2:5e:
                    bd:e8:16:2b:07:79:e2:64:b0:bc:e3:27:4d:db:f5:
                    59:ee:75:ff:60:9c:0b:f2:51:e7:54:c3:a2:06:14:
                    2a:ce:d8:a3:d2:fb:b0:6d:c3:00:74:b8:a1:c4:1d:
                    0d:83:d3:19:d6:8c:bd:e9:7b:65:2d:e3:59:c1:83:
                    f6:0e:b0:35:74:20:ec:59:67:71:7c:37:93:31:37:
                    64:47:75:a1:ab:0a:85:e2:23:94:37:22:69:44:91:
                    ea:86:6a:06:8f:56:89:8f:0b:80:ae:af:8c:9b:5a:
                    89:49
                Exponent: 65537 (0x10001)
        X509v3 extensions:
            X509v3 Authority Key Identifier: 
                keyid:17:B9:3C:44:F5:76:4B:60:42:6D:2C:09:9E:E2:5C:B3:CE:BC:C5:62

            X509v3 Subject Key Identifier: 
                CE:2A:D6:50:67:86:3B:EB:6D:70:81:F9:6B:C6:40:7E:4D:62:75:7D
            X509v3 Key Usage: critical
                Digital Signature, Key Encipherment
            X509v3 Basic Constraints: critical
                CA:FALSE
            X509v3 Subject Alternative Name: 
                DNS:www.example.com
            Authority Information Access: 
                CA Issuers - URI:http://ca.example.com/ca.crt
                OCSP - URI:http://ocsp.example.com/ocsp

            X509v3 Certificate Policies: 
                Policy: 0.4.0.194112.1.1

            X509v3 Extended Key Usage: 
                TLS Web Server Authentication, TLS Web Client Authentication
            qcStatements: 
                0)0......F..0......F..0......F..0......F...
    Signature Algorithm: sha256WithRSAEncryption
         12:8b:9f:ff:b5:cd:db:c8:d4:a4:cc:9c:26:0a:3b:12:40:28:
         10:fa:87:3a:09:07:42:e9:e1:34:0b:38:aa:3c:02:c7:73:e5:
         28:6e:3d:53:34:cb:5e:f4:87:a0:b9:98:5b:2e:2f:25:24:e4:
         0b:ba:d2:f0:d7:23:92:cc:3c:fe:36:88:6b:36:da:1a:07:cf:
         e3:0c:76:9e:30:54:d6:2b:38:23:c2:e7:88:ac:00:c2:f3:0d:
         36:0d:a3:b4:c9:6b:a7:a0:7c:41:a1:2d:b4:13:6b:5d:39:f1:
         15:86:c0:77:0d:c4:e0:6e:6b:2d:63:79:3f:91:c0:de:57:c1:
         06:06:bf:6b:34:bd:89:6c:07:ea:67:21:76:14:a2:c6:f9:49:
         7e:7d:b2:77:96:bb:6c:df:4f:1d:6e:ef:01:24:b7:a4:73:fc:
         2f:01:07:56:a9:ec:17:af:6e:2b:f3:5d:f7:3d:1b:28:42:ff:
         8a:83:cf:6f:48:18:e8:c7:84:3a:dc:6a:fe:86:59:9d:fc:a9:
         12:17:18:bd:51:37:f8:4d:7c:06:e5:be:bc:4d:be:2c:f4:28:
         39:83:fc:03:51:98:e4:ef:e8:de:e0:3f:04:e2:6b:e1:b2:5b:
         4f:bc:e4:d0:e1:9a:a9:9d:0f:6a:5e:e1:59:c8:74:2e:13:39:
         a1:c4:8a:b5
-----BEGIN CERTIFICATE-----
MIIEaTCCA1GgAwIBAgINAl++21etKcieO258gTANBgkqhkiG9w0BAQsFADBBMRUw
EwYDVQQDDAxUZXN0IFN1YkNBIDIxDTALBgNVBAsMBFRlc3QxDDAKBgNVBAoMA01U
RzELMAkGA1UEBhMCREUwHhcNMTkxMTA0MDU1MjU4WhcNMjAxMTA0MDU1MjU4WjBP
MQ0wCwYDVQQLDARUZXN0MQwwCgYDVQQKDANNVEcxEjAQBgNVBAcMCURhcm1zdGFk
dDEPMA0GA1UECAwGSGVzc2VuMQswCQYDVQQGEwJERTCCASIwDQYJKoZIhvcNAQEB
BQADggEPADCCAQoCggEBAJ1SQ/oWBWr28EiOCI1mMS8o/2G/YdivvpD5A+0/hbxo
7EnhlqGkFBTj/6cAo5w2O+3jWhVP+YV+9f6O1vWvkATG3MMiiSYszmfi1lZxa2AZ
M19H2ZttQHvurlxC14xLGu1L6THOhKj4J5FZCamKfduM8FJ2n1ckkUEYjuQ9Ue3o
Z8Lckjn8h2QD+BGVK/+WjErbScJevegWKwd54mSwvOMnTdv1We51/2CcC/JR51TD
ogYUKs7Yo9L7sG3DAHS4ocQdDYPTGdaMvel7ZS3jWcGD9g6wNXQg7FlncXw3kzE3
ZEd1oasKheIjlDciaUSR6oZqBo9WiY8LgK6vjJtaiUkCAwEAAaOCAVAwggFMMB8G
A1UdIwQYMBaAFBe5PET1dktgQm0sCZ7iXLPOvMViMB0GA1UdDgQWBBTOKtZQZ4Y7
621wgflrxkB+TWJ1fTAOBgNVHQ8BAf8EBAMCBaAwDAYDVR0TAQH/BAIwADAaBgNV
HREEEzARgg93d3cuZXhhbXBsZS5jb20wYgYIKwYBBQUHAQEEVjBUMCgGCCsGAQUF
BzAChhxodHRwOi8vY2EuZXhhbXBsZS5jb20vY2EuY3J0MCgGCCsGAQUFBzABhhxo
dHRwOi8vb2NzcC5leGFtcGxlLmNvbS9vY3NwMBQGA1UdIAQNMAswCQYHBACL7EAB
ATAdBgNVHSUEFjAUBggrBgEFBQcDAQYIKwYBBQUHAwIwNwYIKwYBBQUHAQMEKzAp
MAgGBgQAjkYBATAIBgYEAI5GAQQwEwYGBACORgEGMAkGBwQAjkYBBgIwDQYJKoZI
hvcNAQELBQADggEBABKLn/+1zdvI1KTMnCYKOxJAKBD6hzoJB0Lp4TQLOKo8Asdz
5ShuPVM0y170h6C5mFsuLyUk5Au60vDXI5LMPP42iGs22hoHz+MMdp4wVNYrOCPC
54isAMLzDTYNo7TJa6egfEGhLbQTa1058RWGwHcNxOBuay1jeT+RwN5XwQYGv2s0
vYlsB+pnIXYUosb5SX59sneWu2zfTx1u7wEkt6Rz/C8BB1ap7BevbivzXfc9GyhC
/4qDz29IGOjHhDrcav6GWZ38qRIXGL1RN/hNfAblvrxNviz0KDmD/ANRmOTv6N7g
PwTia+GyW0+85NDhmqmdD2pe4VnIdC4TOaHEirU=
-----END CERTIFICATE-----
