Certificate:
    Data:
        Version: 3 (0x2)
        Serial Number:
            01:61:51:d6:5c:94:7d:0b:c5:00:dd:cc:7b
        Signature Algorithm: sha256WithRSAEncryption
        Issuer: CN = Test SubCA 2, OU = Test, O = MTG, C = DE
        Validity
            Not Before: Nov  7 03:51:24 2019 GMT
            Not After : Nov  7 03:51:24 2020 GMT
        Subject: OU = Test, O = MTG, L = Darmstadt, ST = Hessen, C = DE
        Subject Public Key Info:
            Public Key Algorithm: rsaEncryption
                RSA Public-Key: (2048 bit)
                Modulus:
                    00:85:02:40:0e:6a:99:49:ca:4f:c3:62:d1:ff:6f:
                    c4:1a:28:17:32:f4:f1:6f:a4:86:5d:5f:08:97:04:
                    c9:b4:89:87:71:7d:51:d2:0f:d8:9c:ff:7e:c3:c0:
                    5c:9c:c4:91:5f:da:f2:f5:a4:c0:90:ac:88:81:eb:
                    ff:b9:ad:8c:5c:1b:31:57:ec:1f:7a:8f:30:96:18:
                    e4:33:14:d1:66:ad:ab:5a:a0:9c:5d:34:4f:84:8e:
                    10:d0:cb:58:b8:d1:91:b1:8d:8e:71:5b:60:97:e6:
                    57:4b:18:d9:8d:1c:ba:2f:f1:c9:61:f7:00:1a:48:
                    c7:a2:3b:d8:f1:9d:ac:3c:bf:fb:08:2e:ac:3b:42:
                    91:21:85:1f:40:82:36:3b:df:b1:d5:b7:f1:51:33:
                    cb:16:c4:6a:38:10:1b:2d:18:2e:e0:c8:cb:46:57:
                    91:74:7d:6c:2b:8b:6f:44:97:ed:b0:a9:41:3d:78:
                    9a:99:a2:fb:70:1f:5b:6b:60:0e:8f:56:ec:ec:6d:
                    e9:40:f6:1a:c2:2f:42:6f:69:29:99:3f:4c:83:eb:
                    a0:9e:02:d7:49:b4:c5:b8:8b:08:4a:d0:aa:db:4d:
                    dd:f0:07:c5:72:70:61:d5:7f:1e:a4:83:b2:5e:2c:
                    79:6f:b1:ed:7b:ce:77:af:38:06:90:d9:ce:2f:11:
                    ec:a3
                Exponent: 65537 (0x10001)
        X509v3 extensions:
            X509v3 Authority Key Identifier: 
                keyid:D6:8F:89:58:16:39:4F:4C:33:95:21:C9:F6:72:F7:1C:EC:5A:AB:FE

            X509v3 Subject Key Identifier: 
                9B:86:2F:05:71:BA:0D:AA:FE:1B:3C:73:8A:DA:F9:66:BA:D6:82:D3
            X509v3 Key Usage: critical
                Digital Signature, Key Encipherment
            X509v3 Basic Constraints: critical
                CA:FALSE
            X509v3 Subject Alternative Name: 
                DNS:www.example.com
            Authority Information Access: 
                CA Issuers - URI:http://ca.example.com/ca.crt
                OCSP - URI:http://ocsp.example.com/ocsp

            X509v3 Extended Key Usage: 
                TLS Web Server Authentication, TLS Web Client Authentication
            qcStatements: 
                0.0......F..0......F..0......F...
    Signature Algorithm: sha256WithRSAEncryption
         17:91:84:66:8e:8c:38:db:ed:51:2a:96:04:ed:52:5b:4a:55:
         cb:3b:85:74:95:23:7a:92:07:03:48:e5:3f:49:bc:ee:30:a2:
         52:34:3a:9d:62:ba:3f:f1:1d:11:67:64:9c:83:d1:d0:1a:9c:
         c7:bd:1a:f9:5e:97:f5:39:90:61:2b:dc:c3:d1:66:53:50:44:
         bf:9c:9a:fd:e0:16:b7:f9:cb:a8:1b:6a:73:68:f3:60:e3:50:
         d9:de:c1:53:c6:b3:ae:8d:72:f1:5b:99:13:a2:22:b6:31:b9:
         da:16:6b:c5:41:8e:b1:70:71:d0:1e:a2:f5:99:1d:e1:c0:47:
         98:db:fa:b8:38:31:a9:63:bd:a5:40:d1:74:f4:c7:49:39:a5:
         49:8c:19:19:79:14:66:f0:e4:09:40:2b:7f:f4:7b:1f:70:f0:
         91:2d:89:52:62:0f:32:ae:a7:d5:45:12:7b:6e:af:ef:8d:4d:
         f6:01:00:8b:aa:ce:62:3a:9f:ed:6f:fc:1f:9e:5c:7f:72:4b:
         d5:a8:7f:9d:71:89:64:21:bf:4a:25:69:c6:58:e8:a8:dd:fa:
         f5:0c:51:65:af:ae:27:af:a7:d7:c3:1a:2d:c5:da:08:c1:89:
         27:e6:d9:37:1a:09:6a:0f:a3:72:db:00:63:27:e0:4a:57:2f:
         30:47:ec:58
-----BEGIN CERTIFICATE-----
MIIESTCCAzGgAwIBAgINAWFR1lyUfQvFAN3MezANBgkqhkiG9w0BAQsFADBBMRUw
EwYDVQQDDAxUZXN0IFN1YkNBIDIxDTALBgNVBAsMBFRlc3QxDDAKBgNVBAoMA01U
RzELMAkGA1UEBhMCREUwHhcNMTkxMTA3MDM1MTI0WhcNMjAxMTA3MDM1MTI0WjBP
MQ0wCwYDVQQLDARUZXN0MQwwCgYDVQQKDANNVEcxEjAQBgNVBAcMCURhcm1zdGFk
dDEPMA0GA1UECAwGSGVzc2VuMQswCQYDVQQGEwJERTCCASIwDQYJKoZIhvcNAQEB
BQADggEPADCCAQoCggEBAIUCQA5qmUnKT8Ni0f9vxBooFzL08W+khl1fCJcEybSJ
h3F9UdIP2Jz/fsPAXJzEkV/a8vWkwJCsiIHr/7mtjFwbMVfsH3qPMJYY5DMU0Wat
q1qgnF00T4SOENDLWLjRkbGNjnFbYJfmV0sY2Y0cui/xyWH3ABpIx6I72PGdrDy/
+wgurDtCkSGFH0CCNjvfsdW38VEzyxbEajgQGy0YLuDIy0ZXkXR9bCuLb0SX7bCp
QT14mpmi+3AfW2tgDo9W7Oxt6UD2GsIvQm9pKZk/TIProJ4C10m0xbiLCErQqttN
3fAHxXJwYdV/HqSDsl4seW+x7XvOd684BpDZzi8R7KMCAwEAAaOCATAwggEsMB8G
A1UdIwQYMBaAFNaPiVgWOU9MM5UhyfZy9xzsWqv+MB0GA1UdDgQWBBSbhi8FcboN
qv4bPHOK2vlmutaC0zAOBgNVHQ8BAf8EBAMCBaAwDAYDVR0TAQH/BAIwADAaBgNV
HREEEzARgg93d3cuZXhhbXBsZS5jb20wYgYIKwYBBQUHAQEEVjBUMCgGCCsGAQUF
BzAChhxodHRwOi8vY2EuZXhhbXBsZS5jb20vY2EuY3J0MCgGCCsGAQUFBzABhhxo
dHRwOi8vb2NzcC5leGFtcGxlLmNvbS9vY3NwMB0GA1UdJQQWMBQGCCsGAQUFBwMB
BggrBgEFBQcDAjAtBggrBgEFBQcBAwQhMB8wCAYGBACORgEBMBMGBgQAjkYBBjAJ
BgcEAI5GAQYDMA0GCSqGSIb3DQEBCwUAA4IBAQAXkYRmjow42+1RKpYE7VJbSlXL
O4V0lSN6kgcDSOU/SbzuMKJSNDqdYro/8R0RZ2Scg9HQGpzHvRr5Xpf1OZBhK9zD
0WZTUES/nJr94Ba3+cuoG2pzaPNg41DZ3sFTxrOujXLxW5kToiK2MbnaFmvFQY6x
cHHQHqL1mR3hwEeY2/q4ODGpY72lQNF09MdJOaVJjBkZeRRm8OQJQCt/9HsfcPCR
LYlSYg8yrqfVRRJ7bq/vjU32AQCLqs5iOp/tb/wfnlx/ckvVqH+dcYlkIb9KJWnG
WOio3fr1DFFlr64nr6fXwxotxdoIwYkn5tk3GglqD6Ny2wBjJ+BKVy8wR+xY
-----END CERTIFICATE-----
