Certificate:
    Data:
        Version: 3 (0x2)
        Serial Number:
            0c:39:79:86:f9:b8:5d:0c:b7:48:cd:00:2c
        Signature Algorithm: sha256WithRSAEncryption
        Issuer: CN = Test SubCA 2, OU = Test, O = MTG, C = DE
        Validity
            Not Before: Nov  1 08:03:00 2019 GMT
            Not After : Nov  1 08:03:00 2020 GMT
        Subject: O = MTG, OU = Test, L = Darmstadt, ST = Hessen, C = DE, organizationIdentifier = PDSDE-BAFIN-1234567890
        Subject Public Key Info:
            Public Key Algorithm: rsaEncryption
                RSA Public-Key: (2048 bit)
                Modulus:
                    00:c2:0d:81:71:b4:94:05:bc:cf:99:8a:aa:62:08:
                    f2:2e:63:b2:1e:46:f9:2b:85:98:c3:83:d0:ce:26:
                    ad:76:8f:5c:e7:5b:05:20:25:26:32:19:c2:24:8a:
                    ba:69:a3:eb:ca:10:a4:f3:cf:b5:c6:1e:f6:70:58:
                    96:5b:88:52:6a:88:42:33:85:b8:c6:16:48:4f:01:
                    45:39:3f:e1:6a:b9:06:b5:ef:37:db:79:9e:50:90:
                    57:43:5b:8b:c3:35:0d:b3:41:f4:1b:c2:4a:7f:18:
                    3c:39:2d:4f:bf:2b:a5:71:07:73:33:00:e5:8d:36:
                    9e:fe:8f:72:c5:72:56:08:cc:86:b6:ef:ba:e2:fd:
                    9b:5c:c6:2d:94:ed:2d:64:24:77:e6:67:4d:62:db:
                    94:2e:29:8e:dd:1d:7a:ca:bc:68:fb:15:2c:80:56:
                    d3:dd:e7:3a:8f:98:18:14:4b:11:d9:c4:01:1f:b9:
                    7a:d0:d9:ad:69:11:05:f6:0e:ae:5f:fc:cd:c6:b3:
                    cb:4d:ae:8e:45:18:0a:a8:c0:40:11:28:dc:cd:9f:
                    7a:26:67:5a:47:80:9b:d9:4c:f7:da:5f:6d:13:83:
                    1a:91:92:d1:b9:44:f7:72:6b:97:47:74:71:70:80:
                    d3:d6:73:bf:76:33:5c:70:b8:6f:87:37:3e:7e:8e:
                    75:e5
                Exponent: 65537 (0x10001)
        X509v3 extensions:
            X509v3 Authority Key Identifier: 
                keyid:0C:5E:9C:FE:BA:4B:21:6C:04:1D:C2:5A:B7:E3:88:5F:59:DE:4C:12

            X509v3 Subject Key Identifier: 
                0E:6B:AA:83:A9:B2:4D:5C:85:CD:B1:D2:2F:87:F7:20:CB:36:43:3B
            X509v3 Key Usage: critical
                Digital Signature, Key Encipherment
            X509v3 Basic Constraints: critical
                CA:FALSE
            X509v3 Subject Alternative Name: 
                DNS:www.example.com
            Authority Information Access: 
                CA Issuers - URI:http://ca.example.com/ca.crt
                OCSP - URI:http://ocsp.example.com/ocsp

            X509v3 Certificate Policies: 
                Policy: 0.4.0.194112.1.4
                Policy: 0.4.0.19495.3.1

            X509v3 Extended Key Usage: 
                TLS Web Server Authentication, TLS Web Client Authentication
            qcStatements: 
                0..0......F..0......F..0......F...0...+.......0.......I..0R......'.0H0.0.......'....PSP_IC.'Federal Financial Supervisory Authority..DE-BAFIN
    Signature Algorithm: sha256WithRSAEncryption
         28:69:92:95:f8:45:66:65:4a:eb:95:bc:2c:9f:0b:82:98:07:
         69:f1:57:f0:79:2b:65:b1:2b:c5:77:54:00:b9:c2:66:06:ab:
         2f:85:83:58:2f:fd:8b:2b:37:4f:57:70:38:1a:1d:ae:ed:2d:
         99:40:c9:6f:e2:00:73:9f:60:58:e3:28:b0:34:1f:9e:32:1f:
         08:2c:81:04:30:cd:d6:d6:51:55:93:7d:2e:38:28:4f:2c:63:
         ce:5d:9e:b3:07:f5:00:c3:9e:85:d9:e2:3c:12:7b:7e:02:04:
         fb:fd:56:66:6d:aa:04:4c:f3:ba:78:12:7e:50:7c:c3:de:c1:
         07:1d:c5:10:d8:fc:82:d6:ae:ad:54:fd:08:9a:51:c0:b5:d8:
         ea:30:48:28:1d:51:84:15:84:93:4c:e8:d5:b8:01:b4:9f:89:
         87:18:37:d2:fc:3b:8d:b7:69:d6:b2:88:6e:a1:b4:f8:42:d6:
         94:6a:3f:06:c5:90:8d:3e:a7:33:29:9c:8d:63:5d:99:a4:5a:
         c2:26:44:45:b6:ba:30:33:be:fd:b1:4e:34:b1:0b:c1:cc:7a:
         b6:c5:35:c9:10:4a:98:ee:df:a1:e0:85:bd:0f:47:ce:f9:c3:
         6a:e5:37:2a:60:4f:c7:fa:2a:51:27:a3:52:71:ba:7b:c4:44:
         2c:9a:e6:14
-----BEGIN CERTIFICATE-----
MIIE+TCCA+GgAwIBAgINDDl5hvm4XQy3SM0ALDANBgkqhkiG9w0BAQsFADBBMRUw
EwYDVQQDDAxUZXN0IFN1YkNBIDIxDTALBgNVBAsMBFRlc3QxDDAKBgNVBAoMA01U
RzELMAkGA1UEBhMCREUwHhcNMTkxMTAxMDgwMzAwWhcNMjAxMTAxMDgwMzAwWjBw
MQwwCgYDVQQKDANNVEcxDTALBgNVBAsMBFRlc3QxEjAQBgNVBAcMCURhcm1zdGFk
dDEPMA0GA1UECAwGSGVzc2VuMQswCQYDVQQGEwJERTEfMB0GA1UEYQwWUERTREUt
QkFGSU4tMTIzNDU2Nzg5MDCCASIwDQYJKoZIhvcNAQEBBQADggEPADCCAQoCggEB
AMINgXG0lAW8z5mKqmII8i5jsh5G+SuFmMOD0M4mrXaPXOdbBSAlJjIZwiSKummj
68oQpPPPtcYe9nBYlluIUmqIQjOFuMYWSE8BRTk/4Wq5BrXvN9t5nlCQV0Nbi8M1
DbNB9BvCSn8YPDktT78rpXEHczMA5Y02nv6PcsVyVgjMhrbvuuL9m1zGLZTtLWQk
d+ZnTWLblC4pjt0desq8aPsVLIBW093nOo+YGBRLEdnEAR+5etDZrWkRBfYOrl/8
zcazy02ujkUYCqjAQBEo3M2feiZnWkeAm9lM99pfbRODGpGS0blE93Jrl0d0cXCA
09Zzv3YzXHC4b4c3Pn6OdeUCAwEAAaOCAb8wggG7MB8GA1UdIwQYMBaAFAxenP66
SyFsBB3CWrfjiF9Z3kwSMB0GA1UdDgQWBBQOa6qDqbJNXIXNsdIvh/cgyzZDOzAO
BgNVHQ8BAf8EBAMCBaAwDAYDVR0TAQH/BAIwADAaBgNVHREEEzARgg93d3cuZXhh
bXBsZS5jb20wYgYIKwYBBQUHAQEEVjBUMCgGCCsGAQUFBzAChhxodHRwOi8vY2Eu
ZXhhbXBsZS5jb20vY2EuY3J0MCgGCCsGAQUFBzABhhxodHRwOi8vb2NzcC5leGFt
cGxlLmNvbS9vY3NwMB8GA1UdIAQYMBYwCQYHBACL7EABBDAJBgcEAIGYJwMBMB0G
A1UdJQQWMBQGCCsGAQUFBwMBBggrBgEFBQcDAjCBmgYIKwYBBQUHAQMEgY0wgYow
CAYGBACORgEBMBMGBgQAjkYBBjAJBgcEAI5GAQYDMBUGCCsGAQUFBwsCMAkGBwQA
i+xJAQIwUgYGBACBmCcCMEgwEzARBgcEAIGYJwEEDAZQU1BfSUMMJ0ZlZGVyYWwg
RmluYW5jaWFsIFN1cGVydmlzb3J5IEF1dGhvcml0eQwIREUtQkFGSU4wDQYJKoZI
hvcNAQELBQADggEBAChpkpX4RWZlSuuVvCyfC4KYB2nxV/B5K2WxK8V3VAC5wmYG
qy+Fg1gv/YsrN09XcDgaHa7tLZlAyW/iAHOfYFjjKLA0H54yHwgsgQQwzdbWUVWT
fS44KE8sY85dnrMH9QDDnoXZ4jwSe34CBPv9VmZtqgRM87p4En5QfMPewQcdxRDY
/ILWrq1U/QiaUcC12OowSCgdUYQVhJNM6NW4AbSfiYcYN9L8O423adayiG6htPhC
1pRqPwbFkI0+pzMpnI1jXZmkWsImREW2ujAzvv2xTjSxC8HMerbFNckQSpju36Hg
hb0PR875w2rlNypgT8f6KlEno1JxunvERCya5hQ=
-----END CERTIFICATE-----
