Certificate:
    Data:
        Version: 3 (0x2)
        Serial Number:
            07:2e:1d:eb:b9:de:a8:1f:b9:66:61:39:50
        Signature Algorithm: sha256WithRSAEncryption
        Issuer: CN = Test SubCA 2, OU = Test, O = MTG, C = DE
        Validity
            Not Before: Nov  4 05:52:58 2019 GMT
            Not After : Nov  4 05:52:58 2020 GMT
        Subject: OU = Test, O = MTG, L = Darmstadt, ST = Hessen, C = DE
        Subject Public Key Info:
            Public Key Algorithm: rsaEncryption
                RSA Public-Key: (2048 bit)
                Modulus:
                    00:9d:52:43:fa:16:05:6a:f6:f0:48:8e:08:8d:66:
                    31:2f:28:ff:61:bf:61:d8:af:be:90:f9:03:ed:3f:
                    85:bc:68:ec:49:e1:96:a1:a4:14:14:e3:ff:a7:00:
                    a3:9c:36:3b:ed:e3:5a:15:4f:f9:85:7e:f5:fe:8e:
                    d6:f5:af:90:04:c6:dc:c3:22:89:26:2c:ce:67:e2:
                    d6:56:71:6b:60:19:33:5f:47:d9:9b:6d:40:7b:ee:
                    ae:5c:42:d7:8c:4b:1a:ed:4b:e9:31:ce:84:a8:f8:
                    27:91:59:09:a9:8a:7d:db:8c:f0:52:76:9f:57:24:
                    91:41:18:8e:e4:3d:51:ed:e8:67:c2:dc:92:39:fc:
                    87:64:03:f8:11:95:2b:ff:96:8c:4a:db:49:c2:5e:
                    bd:e8:16:2b:07:79:e2:64:b0:bc:e3:27:4d:db:f5:
                    59:ee:75:ff:60:9c:0b:f2:51:e7:54:c3:a2:06:14:
                    2a:ce:d8:a3:d2:fb:b0:6d:c3:00:74:b8:a1:c4:1d:
                    0d:83:d3:19:d6:8c:bd:e9:7b:65:2d:e3:59:c1:83:
                    f6:0e:b0:35:74:20:ec:59:67:71:7c:37:93:31:37:
                    64:47:75:a1:ab:0a:85:e2:23:94:37:22:69:44:91:
                    ea:86:6a:06:8f:56:89:8f:0b:80:ae:af:8c:9b:5a:
                    89:49
                Exponent: 65537 (0x10001)
        X509v3 extensions:
            X509v3 Authority Key Identifier: 
                keyid:17:B9:3C:44:F5:76:4B:60:42:6D:2C:09:9E:E2:5C:B3:CE:BC:C5:62

            X509v3 Subject Key Identifier: 
                CE:2A:D6:50:67:86:3B:EB:6D:70:81:F9:6B:C6:40:7E:4D:62:75:7D
            X509v3 Key Usage: critical
                Digital Signature, Key Encipherment
            X509v3 Basic Constraints: critical
                CA:FALSE
            X509v3 Subject Alternative Name: 
                DNS:www.example.com
            Authority Information Access: 
                CA Issuers - URI:http://ca.example.com/ca.crt
                OCSP - URI:http://ocsp.example.com/ocsp

            X509v3 Certificate Policies: 
                Policy: 0.4.0.194112.1.0

            X509v3 Extended Key Usage: 
                TLS Web Server Authentication, TLS Web Client Authentication
            qcStatements: 
                0)0......F..0......F..0......F..0......F...
    Signature Algorithm: sha256WithRSAEncryption
         09:07:bb:12:f0:b1:d8:af:98:89:08:c6:52:96:1a:30:ad:9e:
         a8:4a:da:9a:cf:8b:4d:6d:2d:21:19:bd:ce:25:ce:4e:15:1e:
         3f:c6:b6:f4:9a:b7:89:db:eb:93:44:88:c3:cf:b1:a2:9d:d1:
         c6:12:d2:15:95:99:f7:16:ce:d8:f6:9f:1d:7b:ea:0c:f4:4e:
         fd:3f:93:5c:91:ef:2e:64:2e:62:5a:46:ae:d7:31:32:b7:24:
         84:6b:4f:53:05:91:b3:53:63:2d:07:2a:b4:fd:a9:8f:b2:15:
         e1:a4:aa:fe:fc:31:98:87:90:6d:5e:d4:98:e2:a7:5d:1f:7d:
         2a:eb:29:10:22:93:7a:be:0b:d4:e8:d4:f4:13:be:7b:da:15:
         49:d8:be:15:fa:b8:9e:01:bc:23:5a:b4:36:c6:f9:b0:6d:eb:
         81:f7:96:52:40:45:81:c5:56:34:9b:cf:1a:56:b1:c5:c3:64:
         8d:85:b9:70:59:ec:76:d9:8d:dc:04:62:bd:95:e9:6d:14:46:
         70:31:e8:6b:b2:6a:99:63:a9:b2:d6:f5:89:36:2e:8e:0b:6b:
         74:4e:f4:22:e7:59:3c:74:51:f1:a6:be:83:33:48:e2:c5:9f:
         e9:51:5b:7f:48:59:76:49:9b:a0:19:ce:41:fe:d3:86:56:de:
         d8:28:97:51
-----BEGIN CERTIFICATE-----
MIIEaTCCA1GgAwIBAgINBy4d67neqB+5ZmE5UDANBgkqhkiG9w0BAQsFADBBMRUw
EwYDVQQDDAxUZXN0IFN1YkNBIDIxDTALBgNVBAsMBFRlc3QxDDAKBgNVBAoMA01U
RzELMAkGA1UEBhMCREUwHhcNMTkxMTA0MDU1MjU4WhcNMjAxMTA0MDU1MjU4WjBP
MQ0wCwYDVQQLDARUZXN0MQwwCgYDVQQKDANNVEcxEjAQBgNVBAcMCURhcm1zdGFk
dDEPMA0GA1UECAwGSGVzc2VuMQswCQYDVQQGEwJERTCCASIwDQYJKoZIhvcNAQEB
BQADggEPADCCAQoCggEBAJ1SQ/oWBWr28EiOCI1mMS8o/2G/YdivvpD5A+0/hbxo
7EnhlqGkFBTj/6cAo5w2O+3jWhVP+YV+9f6O1vWvkATG3MMiiSYszmfi1lZxa2AZ
M19H2ZttQHvurlxC14xLGu1L6THOhKj4J5FZCamKfduM8FJ2n1ckkUEYjuQ9Ue3o
Z8Lckjn8h2QD+BGVK/+WjErbScJevegWKwd54mSwvOMnTdv1We51/2CcC/JR51TD
ogYUKs7Yo9L7sG3DAHS4ocQdDYPTGdaMvel7ZS3jWcGD9g6wNXQg7FlncXw3kzE3
ZEd1oasKheIjlDciaUSR6oZqBo9WiY8LgK6vjJtaiUkCAwEAAaOCAVAwggFMMB8G
A1UdIwQYMBaAFBe5PET1dktgQm0sCZ7iXLPOvMViMB0GA1UdDgQWBBTOKtZQZ4Y7
621wgflrxkB+TWJ1fTAOBgNVHQ8BAf8EBAMCBaAwDAYDVR0TAQH/BAIwADAaBgNV
HREEEzARgg93d3cuZXhhbXBsZS5jb20wYgYIKwYBBQUHAQEEVjBUMCgGCCsGAQUF
BzAChhxodHRwOi8vY2EuZXhhbXBsZS5jb20vY2EuY3J0MCgGCCsGAQUFBzABhhxo
dHRwOi8vb2NzcC5leGFtcGxlLmNvbS9vY3NwMBQGA1UdIAQNMAswCQYHBACL7EAB
ADAdBgNVHSUEFjAUBggrBgEFBQcDAQYIKwYBBQUHAwIwNwYIKwYBBQUHAQMEKzAp
MAgGBgQAjkYBATAIBgYEAI5GAQQwEwYGBACORgEGMAkGBwQAjkYBBgEwDQYJKoZI
hvcNAQELBQADggEBAAkHuxLwsdivmIkIxlKWGjCtnqhK2prPi01tLSEZvc4lzk4V
Hj/GtvSat4nb65NEiMPPsaKd0cYS0hWVmfcWztj2nx176gz0Tv0/k1yR7y5kLmJa
Rq7XMTK3JIRrT1MFkbNTYy0HKrT9qY+yFeGkqv78MZiHkG1e1Jjip10ffSrrKRAi
k3q+C9To1PQTvnvaFUnYvhX6uJ4BvCNatDbG+bBt64H3llJARYHFVjSbzxpWscXD
ZI2FuXBZ7HbZjdwEYr2V6W0URnAx6GuyapljqbLW9Yk2Lo4La3RO9CLnWTx0UfGm
voMzSOLFn+lRW39IWXZJm6AZzkH+04ZW3tgol1E=
-----END CERTIFICATE-----
