Certificate:
    Data:
        Version: 3 (0x2)
        Serial Number:
            0e:8e:b8:f7:c1:b6:e9:1c:4d:29:8a:0b:db
        Signature Algorithm: sha256WithRSAEncryption
        Issuer: CN = Test SubCA 2, OU = Test, O = MTG, C = DE
        Validity
            Not Before: Nov  1 08:03:00 2019 GMT
            Not After : Nov  1 08:03:00 2020 GMT
        Subject: O = MTG, OU = Test, L = Darmstadt, ST = Hessen, C = DE, organizationIdentifier = PSDFI-FINFSA-1234567-8
        Subject Public Key Info:
            Public Key Algorithm: rsaEncryption
                RSA Public-Key: (2048 bit)
                Modulus:
                    00:c2:0d:81:71:b4:94:05:bc:cf:99:8a:aa:62:08:
                    f2:2e:63:b2:1e:46:f9:2b:85:98:c3:83:d0:ce:26:
                    ad:76:8f:5c:e7:5b:05:20:25:26:32:19:c2:24:8a:
                    ba:69:a3:eb:ca:10:a4:f3:cf:b5:c6:1e:f6:70:58:
                    96:5b:88:52:6a:88:42:33:85:b8:c6:16:48:4f:01:
                    45:39:3f:e1:6a:b9:06:b5:ef:37:db:79:9e:50:90:
                    57:43:5b:8b:c3:35:0d:b3:41:f4:1b:c2:4a:7f:18:
                    3c:39:2d:4f:bf:2b:a5:71:07:73:33:00:e5:8d:36:
                    9e:fe:8f:72:c5:72:56:08:cc:86:b6:ef:ba:e2:fd:
                    9b:5c:c6:2d:94:ed:2d:64:24:77:e6:67:4d:62:db:
                    94:2e:29:8e:dd:1d:7a:ca:bc:68:fb:15:2c:80:56:
                    d3:dd:e7:3a:8f:98:18:14:4b:11:d9:c4:01:1f:b9:
                    7a:d0:d9:ad:69:11:05:f6:0e:ae:5f:fc:cd:c6:b3:
                    cb:4d:ae:8e:45:18:0a:a8:c0:40:11:28:dc:cd:9f:
                    7a:26:67:5a:47:80:9b:d9:4c:f7:da:5f:6d:13:83:
                    1a:91:92:d1:b9:44:f7:72:6b:97:47:74:71:70:80:
                    d3:d6:73:bf:76:33:5c:70:b8:6f:87:37:3e:7e:8e:
                    75:e5
                Exponent: 65537 (0x10001)
        X509v3 extensions:
            X509v3 Authority Key Identifier: 
                keyid:0C:5E:9C:FE:BA:4B:21:6C:04:1D:C2:5A:B7:E3:88:5F:59:DE:4C:12

            X509v3 Subject Key Identifier: 
                0E:6B:AA:83:A9:B2:4D:5C:85:CD:B1:D2:2F:87:F7:20:CB:36:43:3B
            X509v3 Key Usage: critical
                Digital Signature, Key Encipherment
            X509v3 Basic Constraints: critical
                CA:FALSE
            X509v3 Subject Alternative Name: 
                DNS:www.example.com
            Authority Information Access: 
                CA Issuers - URI:http://ca.example.com/ca.crt
                OCSP - URI:http://ocsp.example.com/ocsp

            X509v3 Certificate Policies: 
                Policy: 0.4.0.194112.1.4
                Policy: 0.4.0.19495.3.1

            X509v3 Extended Key Usage: 
                TLS Web Server Authentication, TLS Web Client Authentication
            qcStatements: 
                0..0......F..0......F..0......F...0...+.......0.......I..0S......'.0I0.0.......'....PSP_IC.'Federal Financial Supervisory Authority..FI-FINFSA
    Signature Algorithm: sha256WithRSAEncryption
         64:68:85:ac:e3:60:28:d3:80:2f:2b:4a:2b:1a:ad:28:2d:b8:
         f0:4d:48:65:3f:3a:0b:7c:86:7d:97:1c:7d:c6:b8:c8:85:c7:
         1c:d5:b8:e2:a5:b1:11:3f:96:9f:0d:c2:04:bc:be:76:e8:71:
         ea:5e:c1:01:e6:e9:f0:6c:5e:39:fc:44:40:e7:12:76:21:96:
         7c:d0:f0:79:5f:97:1c:98:1c:49:c2:f0:f7:28:c3:fd:78:45:
         71:7f:90:f9:99:cd:ce:dc:db:bf:cd:6d:46:eb:85:d5:28:a9:
         1e:18:93:e9:24:4f:f9:5f:30:09:f8:d9:b4:8d:19:77:7b:18:
         24:37:12:6c:42:89:66:60:b7:2a:f3:9b:ea:4b:ff:d9:5e:8e:
         b3:f1:fb:d2:29:b9:0d:e1:18:7a:b9:1f:19:d1:9f:a4:82:69:
         3f:02:10:78:e7:7b:e1:59:09:f4:40:3c:14:bf:f3:9a:5b:1a:
         53:6a:c3:78:e0:6b:da:ec:20:6f:da:f6:97:26:3c:61:8a:4b:
         9a:91:d4:0a:b8:b6:2f:26:e7:dd:1e:8d:56:33:14:62:94:03:
         18:a1:c7:d9:78:8a:a9:5f:38:85:c9:0c:bb:bb:39:6e:52:db:
         d3:1d:0c:ee:b8:f4:68:a5:14:c8:ef:a8:26:6a:31:fb:85:56:
         d0:3e:60:55
-----BEGIN CERTIFICATE-----
MIIE+jCCA+KgAwIBAgINDo6498G26RxNKYoL2zANBgkqhkiG9w0BAQsFADBBMRUw
EwYDVQQDDAxUZXN0IFN1YkNBIDIxDTALBgNVBAsMBFRlc3QxDDAKBgNVBAoMA01U
RzELMAkGA1UEBhMCREUwHhcNMTkxMTAxMDgwMzAwWhcNMjAxMTAxMDgwMzAwWjBw
MQwwCgYDVQQKDANNVEcxDTALBgNVBAsMBFRlc3QxEjAQBgNVBAcMCURhcm1zdGFk
dDEPMA0GA1UECAwGSGVzc2VuMQswCQYDVQQGEwJERTEfMB0GA1UEYQwWUFNERkkt
RklORlNBLTEyMzQ1NjctODCCASIwDQYJKoZIhvcNAQEBBQADggEPADCCAQoCggEB
AMINgXG0lAW8z5mKqmII8i5jsh5G+SuFmMOD0M4mrXaPXOdbBSAlJjIZwiSKummj
68oQpPPPtcYe9nBYlluIUmqIQjOFuMYWSE8BRTk/4Wq5BrXvN9t5nlCQV0Nbi8M1
DbNB9BvCSn8YPDktT78rpXEHczMA5Y02nv6PcsVyVgjMhrbvuuL9m1zGLZTtLWQk
d+ZnTWLblC4pjt0desq8aPsVLIBW093nOo+YGBRLEdnEAR+5etDZrWkRBfYOrl/8
zcazy02ujkUYCqjAQBEo3M2feiZnWkeAm9lM99pfbRODGpGS0blE93Jrl0d0cXCA
09Zzv3YzXHC4b4c3Pn6OdeUCAwEAAaOCAcAwggG8MB8GA1UdIwQYMBaAFAxenP66
SyFsBB3CWrfjiF9Z3kwSMB0GA1UdDgQWBBQOa6qDqbJNXIXNsdIvh/cgyzZDOzAO
BgNVHQ8BAf8EBAMCBaAwDAYDVR0TAQH/BAIwADAaBgNVHREEEzARgg93d3cuZXhh
bXBsZS5jb20wYgYIKwYBBQUHAQEEVjBUMCgGCCsGAQUFBzAChhxodHRwOi8vY2Eu
ZXhhbXBsZS5jb20vY2EuY3J0MCgGCCsGAQUFBzABhhxodHRwOi8vb2NzcC5leGFt
cGxlLmNvbS9vY3NwMB8GA1UdIAQYMBYwCQYHBACL7EABBDAJBgcEAIGYJwMBMB0G
A1UdJQQWMBQGCCsGAQUFBwMBBggrBgEFBQcDAjCBmwYIKwYBBQUHAQMEgY4wgYsw
CAYGBACORgEBMBMGBgQAjkYBBjAJBgcEAI5GAQYDMBUGCCsGAQUFBwsCMAkGBwQA
i+xJAQIwUwYGBACBmCcCMEkwEzARBgcEAIGYJwEEDAZQU1BfSUMMJ0ZlZGVyYWwg
RmluYW5jaWFsIFN1cGVydmlzb3J5IEF1dGhvcml0eQwJRkktRklORlNBMA0GCSqG
SIb3DQEBCwUAA4IBAQBkaIWs42Ao04AvK0orGq0oLbjwTUhlPzoLfIZ9lxx9xrjI
hccc1bjipbERP5afDcIEvL526HHqXsEB5unwbF45/ERA5xJ2IZZ80PB5X5ccmBxJ
wvD3KMP9eEVxf5D5mc3O3Nu/zW1G64XVKKkeGJPpJE/5XzAJ+Nm0jRl3exgkNxJs
QolmYLcq85vqS//ZXo6z8fvSKbkN4Rh6uR8Z0Z+kgmk/AhB453vhWQn0QDwUv/Oa
WxpTasN44Gva7CBv2vaXJjxhikuakdQKuLYvJufdHo1WMxRilAMYocfZeIqpXziF
yQy7uzluUtvTHQzuuPRopRTI76gmajH7hVbQPmBV
-----END CERTIFICATE-----
