Certificate:
    Data:
        Version: 3 (0x2)
        Serial Number:
            01:55:0e:4d:1a:43:64:e4:ba:ff:a5:d9:c6
        Signature Algorithm: sha256WithRSAEncryption
        Issuer: CN = Test SubCA 2, OU = Test, O = MTG, C = DE
        Validity
            Not Before: Nov  4 05:52:58 2019 GMT
            Not After : Nov  4 05:52:58 2020 GMT
        Subject: OU = Test, O = MTG, L = Darmstadt, ST = Hessen, C = DE
        Subject Public Key Info:
            Public Key Algorithm: rsaEncryption
                RSA Public-Key: (2048 bit)
                Modulus:
                    00:9d:52:43:fa:16:05:6a:f6:f0:48:8e:08:8d:66:
                    31:2f:28:ff:61:bf:61:d8:af:be:90:f9:03:ed:3f:
                    85:bc:68:ec:49:e1:96:a1:a4:14:14:e3:ff:a7:00:
                    a3:9c:36:3b:ed:e3:5a:15:4f:f9:85:7e:f5:fe:8e:
                    d6:f5:af:90:04:c6:dc:c3:22:89:26:2c:ce:67:e2:
                    d6:56:71:6b:60:19:33:5f:47:d9:9b:6d:40:7b:ee:
                    ae:5c:42:d7:8c:4b:1a:ed:4b:e9:31:ce:84:a8:f8:
                    27:91:59:09:a9:8a:7d:db:8c:f0:52:76:9f:57:24:
                    91:41:18:8e:e4:3d:51:ed:e8:67:c2:dc:92:39:fc:
                    87:64:03:f8:11:95:2b:ff:96:8c:4a:db:49:c2:5e:
                    bd:e8:16:2b:07:79:e2:64:b0:bc:e3:27:4d:db:f5:
                    59:ee:75:ff:60:9c:0b:f2:51:e7:54:c3:a2:06:14:
                    2a:ce:d8:a3:d2:fb:b0:6d:c3:00:74:b8:a1:c4:1d:
                    0d:83:d3:19:d6:8c:bd:e9:7b:65:2d:e3:59:c1:83:
                    f6:0e:b0:35:74:20:ec:59:67:71:7c:37:93:31:37:
                    64:47:75:a1:ab:0a:85:e2:23:94:37:22:69:44:91:
                    ea:86:6a:06:8f:56:89:8f:0b:80:ae:af:8c:9b:5a:
                    89:49
                Exponent: 65537 (0x10001)
        X509v3 extensions:
            X509v3 Authority Key Identifier: 
                keyid:17:B9:3C:44:F5:76:4B:60:42:6D:2C:09:9E:E2:5C:B3:CE:BC:C5:62

            X509v3 Subject Key Identifier: 
                CE:2A:D6:50:67:86:3B:EB:6D:70:81:F9:6B:C6:40:7E:4D:62:75:7D
            X509v3 Key Usage: critical
                Digital Signature, Key Encipherment
            X509v3 Basic Constraints: critical
                CA:FALSE
            X509v3 Subject Alternative Name: 
                DNS:www.example.com
            Authority Information Access: 
                CA Issuers - URI:http://ca.example.com/ca.crt
                OCSP - URI:http://ocsp.example.com/ocsp

            X509v3 Certificate Policies: 
                Policy: 0.4.0.194112.1.0

            X509v3 Extended Key Usage: 
                TLS Web Server Authentication, TLS Web Client Authentication
            qcStatements: 
                0.0......F..0......F..0......F...
    Signature Algorithm: sha256WithRSAEncryption
         2c:c5:bd:aa:8a:a0:03:e7:1c:27:15:fb:f6:58:8f:e1:fe:64:
         39:05:e6:80:45:00:4a:bc:c7:f8:49:6d:0f:87:e3:c5:0c:7c:
         58:e5:a2:cc:48:24:30:a7:71:10:01:09:68:83:80:36:3f:8a:
         38:95:a6:10:1c:b5:7a:3f:9b:6f:04:cf:b8:0b:6a:14:e5:4d:
         d3:2e:dc:a3:15:af:f9:de:8d:15:49:46:42:b3:2e:95:46:ef:
         11:f0:c8:43:56:db:cc:ed:46:19:4f:63:8a:41:24:d4:35:8a:
         62:31:72:b4:7d:71:62:e4:c1:ea:24:15:e1:92:40:48:99:47:
         e7:45:a5:9a:01:2c:b8:94:0e:9c:6d:4d:28:0f:9a:b9:ec:e7:
         8a:f5:cc:b5:95:74:a4:c6:1c:ad:67:23:63:94:b0:37:d5:93:
         f5:7f:6d:3b:d9:ee:84:fd:ef:36:86:35:e2:53:a1:1b:e9:12:
         9c:09:eb:3a:a1:92:e0:8c:6c:74:08:5f:d6:d2:ae:77:0c:28:
         57:da:e6:d3:52:5e:7f:c6:c2:44:81:17:03:41:b4:1d:45:bb:
         df:a7:da:c6:e9:9c:96:fe:64:aa:a7:ee:06:4e:cd:02:7c:1d:
         2f:01:6d:46:2e:1a:3a:38:be:6b:20:e5:91:09:43:ba:0f:c2:
         b7:95:bf:ac
-----BEGIN CERTIFICATE-----
MIIEXzCCA0egAwIBAgINAVUOTRpDZOS6/6XZxjANBgkqhkiG9w0BAQsFADBBMRUw
EwYDVQQDDAxUZXN0IFN1YkNBIDIxDTALBgNVBAsMBFRlc3QxDDAKBgNVBAoMA01U
RzELMAkGA1UEBhMCREUwHhcNMTkxMTA0MDU1MjU4WhcNMjAxMTA0MDU1MjU4WjBP
MQ0wCwYDVQQLDARUZXN0MQwwCgYDVQQKDANNVEcxEjAQBgNVBAcMCURhcm1zdGFk
dDEPMA0GA1UECAwGSGVzc2VuMQswCQYDVQQGEwJERTCCASIwDQYJKoZIhvcNAQEB
BQADggEPADCCAQoCggEBAJ1SQ/oWBWr28EiOCI1mMS8o/2G/YdivvpD5A+0/hbxo
7EnhlqGkFBTj/6cAo5w2O+3jWhVP+YV+9f6O1vWvkATG3MMiiSYszmfi1lZxa2AZ
M19H2ZttQHvurlxC14xLGu1L6THOhKj4J5FZCamKfduM8FJ2n1ckkUEYjuQ9Ue3o
Z8Lckjn8h2QD+BGVK/+WjErbScJevegWKwd54mSwvOMnTdv1We51/2CcC/JR51TD
ogYUKs7Yo9L7sG3DAHS4ocQdDYPTGdaMvel7ZS3jWcGD9g6wNXQg7FlncXw3kzE3
ZEd1oasKheIjlDciaUSR6oZqBo9WiY8LgK6vjJtaiUkCAwEAAaOCAUYwggFCMB8G
A1UdIwQYMBaAFBe5PET1dktgQm0sCZ7iXLPOvMViMB0GA1UdDgQWBBTOKtZQZ4Y7
621wgflrxkB+TWJ1fTAOBgNVHQ8BAf8EBAMCBaAwDAYDVR0TAQH/BAIwADAaBgNV
HREEEzARgg93d3cuZXhhbXBsZS5jb20wYgYIKwYBBQUHAQEEVjBUMCgGCCsGAQUF
BzAChhxodHRwOi8vY2EuZXhhbXBsZS5jb20vY2EuY3J0MCgGCCsGAQUFBzABhhxo
dHRwOi8vb2NzcC5leGFtcGxlLmNvbS9vY3NwMBQGA1UdIAQNMAswCQYHBACL7EAB
ADAdBgNVHSUEFjAUBggrBgEFBQcDAQYIKwYBBQUHAwIwLQYIKwYBBQUHAQMEITAf
MAgGBgQAjkYBATATBgYEAI5GAQYwCQYHBACORgEGATANBgkqhkiG9w0BAQsFAAOC
AQEALMW9qoqgA+ccJxX79liP4f5kOQXmgEUASrzH+EltD4fjxQx8WOWizEgkMKdx
EAEJaIOANj+KOJWmEBy1ej+bbwTPuAtqFOVN0y7coxWv+d6NFUlGQrMulUbvEfDI
Q1bbzO1GGU9jikEk1DWKYjFytH1xYuTB6iQV4ZJASJlH50WlmgEsuJQOnG1NKA+a
ueznivXMtZV0pMYcrWcjY5SwN9WT9X9tO9nuhP3vNoY14lOhG+kSnAnrOqGS4Ixs
dAhf1tKudwwoV9rm01Jef8bCRIEXA0G0HUW736faxumclv5kqqfuBk7NAnwdLwFt
Ri4aOji+ayDlkQlDug/Ct5W/rA==
-----END CERTIFICATE-----
