Certificate:
    Data:
        Version: 3 (0x2)
        Serial Number:
            01:d5:ee:21:6a:a7:59:e5:16:df:80:e9:95
        Signature Algorithm: sha256WithRSAEncryption
        Issuer: CN = Test SubCA 2, OU = Test, O = MTG, C = DE
        Validity
            Not Before: Nov  4 05:52:58 2019 GMT
            Not After : Nov  4 05:52:58 2020 GMT
        Subject: OU = Test, O = MTG, L = Darmstadt, ST = Hessen, C = DE
        Subject Public Key Info:
            Public Key Algorithm: rsaEncryption
                RSA Public-Key: (2048 bit)
                Modulus:
                    00:9d:52:43:fa:16:05:6a:f6:f0:48:8e:08:8d:66:
                    31:2f:28:ff:61:bf:61:d8:af:be:90:f9:03:ed:3f:
                    85:bc:68:ec:49:e1:96:a1:a4:14:14:e3:ff:a7:00:
                    a3:9c:36:3b:ed:e3:5a:15:4f:f9:85:7e:f5:fe:8e:
                    d6:f5:af:90:04:c6:dc:c3:22:89:26:2c:ce:67:e2:
                    d6:56:71:6b:60:19:33:5f:47:d9:9b:6d:40:7b:ee:
                    ae:5c:42:d7:8c:4b:1a:ed:4b:e9:31:ce:84:a8:f8:
                    27:91:59:09:a9:8a:7d:db:8c:f0:52:76:9f:57:24:
                    91:41:18:8e:e4:3d:51:ed:e8:67:c2:dc:92:39:fc:
                    87:64:03:f8:11:95:2b:ff:96:8c:4a:db:49:c2:5e:
                    bd:e8:16:2b:07:79:e2:64:b0:bc:e3:27:4d:db:f5:
                    59:ee:75:ff:60:9c:0b:f2:51:e7:54:c3:a2:06:14:
                    2a:ce:d8:a3:d2:fb:b0:6d:c3:00:74:b8:a1:c4:1d:
                    0d:83:d3:19:d6:8c:bd:e9:7b:65:2d:e3:59:c1:83:
                    f6:0e:b0:35:74:20:ec:59:67:71:7c:37:93:31:37:
                    64:47:75:a1:ab:0a:85:e2:23:94:37:22:69:44:91:
                    ea:86:6a:06:8f:56:89:8f:0b:80:ae:af:8c:9b:5a:
                    89:49
                Exponent: 65537 (0x10001)
        X509v3 extensions:
            X509v3 Authority Key Identifier: 
                keyid:17:B9:3C:44:F5:76:4B:60:42:6D:2C:09:9E:E2:5C:B3:CE:BC:C5:62

            X509v3 Subject Key Identifier: 
                CE:2A:D6:50:67:86:3B:EB:6D:70:81:F9:6B:C6:40:7E:4D:62:75:7D
            X509v3 Key Usage: critical
                Digital Signature, Key Encipherment
            X509v3 Basic Constraints: critical
                CA:FALSE
            X509v3 Subject Alternative Name: 
                DNS:www.example.com
            Authority Information Access: 
                CA Issuers - URI:http://ca.example.com/ca.crt
                OCSP - URI:http://ocsp.example.com/ocsp

            X509v3 Certificate Policies: 
                Policy: 0.4.0.194112.1.1

            X509v3 Extended Key Usage: 
                TLS Web Server Authentication, TLS Web Client Authentication
            qcStatements: 
                0.0......F..0......F..0......F...
    Signature Algorithm: sha256WithRSAEncryption
         42:31:46:b4:26:da:56:67:85:00:f7:d0:e3:ea:cf:86:7a:aa:
         83:c0:4f:86:78:54:6b:4e:de:85:89:f7:f9:c3:ff:b4:e0:ec:
         72:33:40:e5:bc:2a:f5:f2:01:f5:75:af:b0:55:44:8b:9f:9e:
         7f:b8:ed:24:70:1b:b3:30:a5:3e:44:59:4f:a9:61:d1:49:b9:
         ae:1d:b3:63:27:4c:dc:04:64:f5:5d:6b:ea:ee:7d:2a:f2:32:
         66:31:68:6a:a3:41:b7:cd:49:57:63:c5:1b:3f:39:2d:c8:eb:
         f6:e2:2e:c9:43:b8:b2:c0:20:b8:06:9a:de:be:db:fe:17:56:
         70:7b:57:56:8d:e1:6e:93:cc:57:38:d3:f1:6e:70:07:d3:39:
         0f:fb:df:65:ab:71:aa:23:4b:bd:1b:5e:de:09:c6:c1:98:0c:
         6e:a4:11:42:49:35:12:a0:08:97:0e:47:87:5c:75:70:c5:7e:
         d3:52:2f:11:81:e7:9c:75:dc:b0:0e:da:9b:67:5c:ab:f5:af:
         96:36:71:99:f1:93:a6:8d:4d:53:0a:ae:f2:57:66:a4:51:81:
         21:97:1a:15:fa:93:04:41:5f:de:d1:9f:0e:53:d1:a4:7e:fe:
         20:3f:07:35:50:12:99:b7:87:f6:ad:77:c7:f8:d5:69:48:73:
         43:b7:b0:f4
-----BEGIN CERTIFICATE-----
MIIEXzCCA0egAwIBAgINAdXuIWqnWeUW34DplTANBgkqhkiG9w0BAQsFADBBMRUw
EwYDVQQDDAxUZXN0IFN1YkNBIDIxDTALBgNVBAsMBFRlc3QxDDAKBgNVBAoMA01U
RzELMAkGA1UEBhMCREUwHhcNMTkxMTA0MDU1MjU4WhcNMjAxMTA0MDU1MjU4WjBP
MQ0wCwYDVQQLDARUZXN0MQwwCgYDVQQKDANNVEcxEjAQBgNVBAcMCURhcm1zdGFk
dDEPMA0GA1UECAwGSGVzc2VuMQswCQYDVQQGEwJERTCCASIwDQYJKoZIhvcNAQEB
BQADggEPADCCAQoCggEBAJ1SQ/oWBWr28EiOCI1mMS8o/2G/YdivvpD5A+0/hbxo
7EnhlqGkFBTj/6cAo5w2O+3jWhVP+YV+9f6O1vWvkATG3MMiiSYszmfi1lZxa2AZ
M19H2ZttQHvurlxC14xLGu1L6THOhKj4J5FZCamKfduM8FJ2n1ckkUEYjuQ9Ue3o
Z8Lckjn8h2QD+BGVK/+WjErbScJevegWKwd54mSwvOMnTdv1We51/2CcC/JR51TD
ogYUKs7Yo9L7sG3DAHS4ocQdDYPTGdaMvel7ZS3jWcGD9g6wNXQg7FlncXw3kzE3
ZEd1oasKheIjlDciaUSR6oZqBo9WiY8LgK6vjJtaiUkCAwEAAaOCAUYwggFCMB8G
A1UdIwQYMBaAFBe5PET1dktgQm0sCZ7iXLPOvMViMB0GA1UdDgQWBBTOKtZQZ4Y7
621wgflrxkB+TWJ1fTAOBgNVHQ8BAf8EBAMCBaAwDAYDVR0TAQH/BAIwADAaBgNV
HREEEzARgg93d3cuZXhhbXBsZS5jb20wYgYIKwYBBQUHAQEEVjBUMCgGCCsGAQUF
BzAChhxodHRwOi8vY2EuZXhhbXBsZS5jb20vY2EuY3J0MCgGCCsGAQUFBzABhhxo
dHRwOi8vb2NzcC5leGFtcGxlLmNvbS9vY3NwMBQGA1UdIAQNMAswCQYHBACL7EAB
ATAdBgNVHSUEFjAUBggrBgEFBQcDAQYIKwYBBQUHAwIwLQYIKwYBBQUHAQMEITAf
MAgGBgQAjkYBATATBgYEAI5GAQYwCQYHBACORgEGAjANBgkqhkiG9w0BAQsFAAOC
AQEAQjFGtCbaVmeFAPfQ4+rPhnqqg8BPhnhUa07ehYn3+cP/tODscjNA5bwq9fIB
9XWvsFVEi5+ef7jtJHAbszClPkRZT6lh0Um5rh2zYydM3ARk9V1r6u59KvIyZjFo
aqNBt81JV2PFGz85Lcjr9uIuyUO4ssAguAaa3r7b/hdWcHtXVo3hbpPMVzjT8W5w
B9M5D/vfZatxqiNLvRte3gnGwZgMbqQRQkk1EqAIlw5Hh1x1cMV+01IvEYHnnHXc
sA7am2dcq/WvljZxmfGTpo1NUwqu8ldmpFGBIZcaFfqTBEFf3tGfDlPRpH7+ID8H
NVASmbeH9q13x/jVaUhzQ7ew9A==
-----END CERTIFICATE-----
