Certificate:
    Data:
        Version: 3 (0x2)
        Serial Number:
            0e:75:94:f8:ad:8c:94:63:21:06:d7:fb:50
        Signature Algorithm: sha256WithRSAEncryption
        Issuer: CN = Test SubCA 2, OU = Test, O = MTG, C = DE
        Validity
            Not Before: Nov  4 05:52:58 2019 GMT
            Not After : Nov  4 05:52:58 2020 GMT
        Subject: OU = Test, O = MTG, L = Darmstadt, ST = Hessen, C = DE
        Subject Public Key Info:
            Public Key Algorithm: rsaEncryption
                RSA Public-Key: (2048 bit)
                Modulus:
                    00:9d:52:43:fa:16:05:6a:f6:f0:48:8e:08:8d:66:
                    31:2f:28:ff:61:bf:61:d8:af:be:90:f9:03:ed:3f:
                    85:bc:68:ec:49:e1:96:a1:a4:14:14:e3:ff:a7:00:
                    a3:9c:36:3b:ed:e3:5a:15:4f:f9:85:7e:f5:fe:8e:
                    d6:f5:af:90:04:c6:dc:c3:22:89:26:2c:ce:67:e2:
                    d6:56:71:6b:60:19:33:5f:47:d9:9b:6d:40:7b:ee:
                    ae:5c:42:d7:8c:4b:1a:ed:4b:e9:31:ce:84:a8:f8:
                    27:91:59:09:a9:8a:7d:db:8c:f0:52:76:9f:57:24:
                    91:41:18:8e:e4:3d:51:ed:e8:67:c2:dc:92:39:fc:
                    87:64:03:f8:11:95:2b:ff:96:8c:4a:db:49:c2:5e:
                    bd:e8:16:2b:07:79:e2:64:b0:bc:e3:27:4d:db:f5:
                    59:ee:75:ff:60:9c:0b:f2:51:e7:54:c3:a2:06:14:
                    2a:ce:d8:a3:d2:fb:b0:6d:c3:00:74:b8:a1:c4:1d:
                    0d:83:d3:19:d6:8c:bd:e9:7b:65:2d:e3:59:c1:83:
                    f6:0e:b0:35:74:20:ec:59:67:71:7c:37:93:31:37:
                    64:47:75:a1:ab:0a:85:e2:23:94:37:22:69:44:91:
                    ea:86:6a:06:8f:56:89:8f:0b:80:ae:af:8c:9b:5a:
                    89:49
                Exponent: 65537 (0x10001)
        X509v3 extensions:
            X509v3 Authority Key Identifier: 
                keyid:17:B9:3C:44:F5:76:4B:60:42:6D:2C:09:9E:E2:5C:B3:CE:BC:C5:62

            X509v3 Subject Key Identifier: 
                CE:2A:D6:50:67:86:3B:EB:6D:70:81:F9:6B:C6:40:7E:4D:62:75:7D
            X509v3 Key Usage: critical
                Digital Signature, Key Encipherment
            X509v3 Basic Constraints: critical
                CA:FALSE
            X509v3 Subject Alternative Name: 
                DNS:www.example.com
            Authority Information Access: 
                CA Issuers - URI:http://ca.example.com/ca.crt
                OCSP - URI:http://ocsp.example.com/ocsp

            X509v3 Certificate Policies: 
                Policy: 0.4.0.194112.1.1

            X509v3 Extended Key Usage: 
                TLS Web Server Authentication, TLS Web Client Authentication
            qcStatements: 
                0.0......F..0......F..0......F...
    Signature Algorithm: sha256WithRSAEncryption
         34:dc:a5:84:23:ec:51:46:d2:29:0e:c3:a4:b1:5d:fe:d1:1a:
         7a:1f:8b:1f:65:77:0f:02:1e:36:7b:b6:d4:33:de:6b:b3:ac:
         c4:99:af:67:be:fc:a5:30:37:9e:b6:cc:07:52:5b:da:a0:02:
         78:61:ca:cf:8b:ad:b4:00:9b:64:d6:2c:64:97:13:9a:3f:f0:
         04:83:10:29:5a:50:08:ca:43:92:25:e7:6d:08:18:c9:aa:d7:
         3f:44:2c:c1:f6:79:e2:99:50:38:32:c6:4d:58:83:1f:ff:41:
         5c:1e:53:05:1d:60:3e:d1:a8:29:90:43:88:f9:f6:f3:c3:55:
         84:ee:d6:82:fa:ce:73:9e:a1:e5:33:33:8f:d1:5c:b8:fb:09:
         72:f1:72:79:aa:90:09:fb:51:f1:b5:e9:af:65:12:6e:91:f3:
         66:58:91:33:ac:a5:ca:9e:d5:76:a5:ec:f9:e2:67:e4:a0:1a:
         72:a8:6e:01:20:de:00:80:f0:9e:20:b5:6b:84:eb:50:97:44:
         ba:8a:c5:a7:c9:c6:35:62:29:c9:73:81:42:a1:99:f7:d5:19:
         d4:df:e6:6e:9a:ba:27:b2:42:eb:6d:3a:d2:4f:a4:fa:d5:3d:
         10:75:07:2c:dd:b8:ac:57:7b:d3:66:5b:a1:cb:4e:48:cd:3b:
         bb:f5:eb:9b
-----BEGIN CERTIFICATE-----
MIIEXzCCA0egAwIBAgINDnWU+K2MlGMhBtf7UDANBgkqhkiG9w0BAQsFADBBMRUw
EwYDVQQDDAxUZXN0IFN1YkNBIDIxDTALBgNVBAsMBFRlc3QxDDAKBgNVBAoMA01U
RzELMAkGA1UEBhMCREUwHhcNMTkxMTA0MDU1MjU4WhcNMjAxMTA0MDU1MjU4WjBP
MQ0wCwYDVQQLDARUZXN0MQwwCgYDVQQKDANNVEcxEjAQBgNVBAcMCURhcm1zdGFk
dDEPMA0GA1UECAwGSGVzc2VuMQswCQYDVQQGEwJERTCCASIwDQYJKoZIhvcNAQEB
BQADggEPADCCAQoCggEBAJ1SQ/oWBWr28EiOCI1mMS8o/2G/YdivvpD5A+0/hbxo
7EnhlqGkFBTj/6cAo5w2O+3jWhVP+YV+9f6O1vWvkATG3MMiiSYszmfi1lZxa2AZ
M19H2ZttQHvurlxC14xLGu1L6THOhKj4J5FZCamKfduM8FJ2n1ckkUEYjuQ9Ue3o
Z8Lckjn8h2QD+BGVK/+WjErbScJevegWKwd54mSwvOMnTdv1We51/2CcC/JR51TD
ogYUKs7Yo9L7sG3DAHS4ocQdDYPTGdaMvel7ZS3jWcGD9g6wNXQg7FlncXw3kzE3
ZEd1oasKheIjlDciaUSR6oZqBo9WiY8LgK6vjJtaiUkCAwEAAaOCAUYwggFCMB8G
A1UdIwQYMBaAFBe5PET1dktgQm0sCZ7iXLPOvMViMB0GA1UdDgQWBBTOKtZQZ4Y7
621wgflrxkB+TWJ1fTAOBgNVHQ8BAf8EBAMCBaAwDAYDVR0TAQH/BAIwADAaBgNV
HREEEzARgg93d3cuZXhhbXBsZS5jb20wYgYIKwYBBQUHAQEEVjBUMCgGCCsGAQUF
BzAChhxodHRwOi8vY2EuZXhhbXBsZS5jb20vY2EuY3J0MCgGCCsGAQUFBzABhhxo
dHRwOi8vb2NzcC5leGFtcGxlLmNvbS9vY3NwMBQGA1UdIAQNMAswCQYHBACL7EAB
ATAdBgNVHSUEFjAUBggrBgEFBQcDAQYIKwYBBQUHAwIwLQYIKwYBBQUHAQMEITAf
MAgGBgQAjkYBATATBgYEAI5GAQYwCQYHBACORgEGATANBgkqhkiG9w0BAQsFAAOC
AQEANNylhCPsUUbSKQ7DpLFd/tEaeh+LH2V3DwIeNnu21DPea7OsxJmvZ778pTA3
nrbMB1Jb2qACeGHKz4uttACbZNYsZJcTmj/wBIMQKVpQCMpDkiXnbQgYyarXP0Qs
wfZ54plQODLGTViDH/9BXB5TBR1gPtGoKZBDiPn288NVhO7WgvrOc56h5TMzj9Fc
uPsJcvFyeaqQCftR8bXpr2USbpHzZliRM6ylyp7VdqXs+eJn5KAacqhuASDeAIDw
niC1a4TrUJdEuorFp8nGNWIpyXOBQqGZ99UZ1N/mbpq6J7JC62060k+k+tU9EHUH
LN24rFd702ZboctOSM07u/Xrmw==
-----END CERTIFICATE-----
