Certificate:
    Data:
        Version: 3 (0x2)
        Serial Number:
            0f:38:61:81:2e:d0:4a:60:49:f5:8a:a7:e3
        Signature Algorithm: sha256WithRSAEncryption
        Issuer: CN = Test SubCA 2, OU = Test, O = MTG, C = DE
        Validity
            Not Before: Nov  1 08:03:01 2019 GMT
            Not After : Nov  1 08:03:01 2020 GMT
        Subject: OU = Test, O = MTG, L = Darmstadt, ST = Hessen, C = DE, organizationIdentifier = PSDDE-BAFIN-1234567890
        Subject Public Key Info:
            Public Key Algorithm: rsaEncryption
                RSA Public-Key: (2048 bit)
                Modulus:
                    00:c2:0d:81:71:b4:94:05:bc:cf:99:8a:aa:62:08:
                    f2:2e:63:b2:1e:46:f9:2b:85:98:c3:83:d0:ce:26:
                    ad:76:8f:5c:e7:5b:05:20:25:26:32:19:c2:24:8a:
                    ba:69:a3:eb:ca:10:a4:f3:cf:b5:c6:1e:f6:70:58:
                    96:5b:88:52:6a:88:42:33:85:b8:c6:16:48:4f:01:
                    45:39:3f:e1:6a:b9:06:b5:ef:37:db:79:9e:50:90:
                    57:43:5b:8b:c3:35:0d:b3:41:f4:1b:c2:4a:7f:18:
                    3c:39:2d:4f:bf:2b:a5:71:07:73:33:00:e5:8d:36:
                    9e:fe:8f:72:c5:72:56:08:cc:86:b6:ef:ba:e2:fd:
                    9b:5c:c6:2d:94:ed:2d:64:24:77:e6:67:4d:62:db:
                    94:2e:29:8e:dd:1d:7a:ca:bc:68:fb:15:2c:80:56:
                    d3:dd:e7:3a:8f:98:18:14:4b:11:d9:c4:01:1f:b9:
                    7a:d0:d9:ad:69:11:05:f6:0e:ae:5f:fc:cd:c6:b3:
                    cb:4d:ae:8e:45:18:0a:a8:c0:40:11:28:dc:cd:9f:
                    7a:26:67:5a:47:80:9b:d9:4c:f7:da:5f:6d:13:83:
                    1a:91:92:d1:b9:44:f7:72:6b:97:47:74:71:70:80:
                    d3:d6:73:bf:76:33:5c:70:b8:6f:87:37:3e:7e:8e:
                    75:e5
                Exponent: 65537 (0x10001)
        X509v3 extensions:
            X509v3 Authority Key Identifier: 
                keyid:0C:5E:9C:FE:BA:4B:21:6C:04:1D:C2:5A:B7:E3:88:5F:59:DE:4C:12

            X509v3 Subject Key Identifier: 
                0E:6B:AA:83:A9:B2:4D:5C:85:CD:B1:D2:2F:87:F7:20:CB:36:43:3B
            X509v3 Key Usage: critical
                Digital Signature, Key Encipherment
            X509v3 Basic Constraints: critical
                CA:FALSE
            X509v3 Subject Alternative Name: 
                DNS:www.example.com
            Authority Information Access: 
                CA Issuers - URI:http://ca.example.com/ca.crt
                OCSP - URI:http://ocsp.example.com/ocsp

            X509v3 Certificate Policies: 
                Policy: 0.4.0.194112.1.4
                Policy: 0.4.0.19495.3.1

            X509v3 Extended Key Usage: 
                TLS Web Server Authentication, TLS Web Client Authentication
            qcStatements: 
                0..0......F..0......F..0......F...0...+.......0.......I..0........'.0..0L0.......'....PSP_AI0.......'....PSP_PI0.......'....PSP_AS0.......'....PSP_IC.'Federal Financial Supervisory Authority..DE-BAFIN
    Signature Algorithm: sha256WithRSAEncryption
         00:b0:39:d7:ec:eb:f2:c6:32:ff:00:f4:5e:14:7f:cf:d3:8e:
         8e:ad:04:d7:5c:83:f5:9e:6a:de:92:e0:6e:0d:02:a5:e6:4d:
         37:60:06:08:19:38:c2:42:53:e4:3c:17:17:1e:58:7a:ac:85:
         52:88:8e:87:20:20:9c:43:38:e5:d8:94:00:f6:17:c0:cd:36:
         c7:f6:36:f0:8e:c7:0a:d9:45:a2:2f:14:1a:bb:1d:9f:5c:b3:
         a0:52:0c:94:20:8c:2d:40:b3:e1:34:f1:34:d3:d2:61:3c:ce:
         04:f1:a0:32:68:24:49:12:80:4d:4a:c3:9b:18:eb:25:5f:43:
         b1:7d:a4:69:56:2b:31:03:60:5e:ba:dd:45:b9:81:37:e2:35:
         bc:a9:f2:f6:88:8a:18:ba:c9:f1:91:1e:43:8a:77:09:a4:48:
         d6:dc:0e:bc:37:20:01:a7:eb:e8:7e:8b:9d:5f:41:db:13:d6:
         34:3b:86:a4:6f:28:c7:f4:cf:85:b6:21:ff:57:42:1b:0c:96:
         17:d7:6c:26:a8:42:13:ae:da:0e:fb:21:88:d1:9e:6e:89:70:
         ad:5d:c1:9b:e5:b6:a6:50:03:76:58:6d:ec:35:5f:04:ef:b4:
         30:56:db:7a:35:3a:79:60:67:9f:77:ac:6d:ad:a2:8a:d0:16:
         9b:44:ca:f3
-----BEGIN CERTIFICATE-----
MIIFNDCCBBygAwIBAgINDzhhgS7QSmBJ9Yqn4zANBgkqhkiG9w0BAQsFADBBMRUw
EwYDVQQDDAxUZXN0IFN1YkNBIDIxDTALBgNVBAsMBFRlc3QxDDAKBgNVBAoMA01U
RzELMAkGA1UEBhMCREUwHhcNMTkxMTAxMDgwMzAxWhcNMjAxMTAxMDgwMzAxWjBw
MQ0wCwYDVQQLDARUZXN0MQwwCgYDVQQKDANNVEcxEjAQBgNVBAcMCURhcm1zdGFk
dDEPMA0GA1UECAwGSGVzc2VuMQswCQYDVQQGEwJERTEfMB0GA1UEYQwWUFNEREUt
QkFGSU4tMTIzNDU2Nzg5MDCCASIwDQYJKoZIhvcNAQEBBQADggEPADCCAQoCggEB
AMINgXG0lAW8z5mKqmII8i5jsh5G+SuFmMOD0M4mrXaPXOdbBSAlJjIZwiSKummj
68oQpPPPtcYe9nBYlluIUmqIQjOFuMYWSE8BRTk/4Wq5BrXvN9t5nlCQV0Nbi8M1
DbNB9BvCSn8YPDktT78rpXEHczMA5Y02nv6PcsVyVgjMhrbvuuL9m1zGLZTtLWQk
d+ZnTWLblC4pjt0desq8aPsVLIBW093nOo+YGBRLEdnEAR+5etDZrWkRBfYOrl/8
zcazy02ujkUYCqjAQBEo3M2feiZnWkeAm9lM99pfbRODGpGS0blE93Jrl0d0cXCA
09Zzv3YzXHC4b4c3Pn6OdeUCAwEAAaOCAfowggH2MB8GA1UdIwQYMBaAFAxenP66
SyFsBB3CWrfjiF9Z3kwSMB0GA1UdDgQWBBQOa6qDqbJNXIXNsdIvh/cgyzZDOzAO
BgNVHQ8BAf8EBAMCBaAwDAYDVR0TAQH/BAIwADAaBgNVHREEEzARgg93d3cuZXhh
bXBsZS5jb20wYgYIKwYBBQUHAQEEVjBUMCgGCCsGAQUFBzAChhxodHRwOi8vY2Eu
ZXhhbXBsZS5jb20vY2EuY3J0MCgGCCsGAQUFBzABhhxodHRwOi8vb2NzcC5leGFt
cGxlLmNvbS9vY3NwMB8GA1UdIAQYMBYwCQYHBACL7EABBDAJBgcEAIGYJwMBMB0G
A1UdJQQWMBQGCCsGAQUFBwMBBggrBgEFBQcDAjCB1QYIKwYBBQUHAQMEgcgwgcUw
CAYGBACORgEBMBMGBgQAjkYBBjAJBgcEAI5GAQYDMBUGCCsGAQUFBwsCMAkGBwQA
i+xJAQIwgYwGBgQAgZgnAjCBgTBMMBEGBwQAgZgnAQMMBlBTUF9BSTARBgcEAIGY
JwECDAZQU1BfUEkwEQYHBACBmCcBAQwGUFNQX0FTMBEGBwQAgZgnAQQMBlBTUF9J
QwwnRmVkZXJhbCBGaW5hbmNpYWwgU3VwZXJ2aXNvcnkgQXV0aG9yaXR5DAhERS1C
QUZJTjANBgkqhkiG9w0BAQsFAAOCAQEAALA51+zr8sYy/wD0XhR/z9OOjq0E11yD
9Z5q3pLgbg0CpeZNN2AGCBk4wkJT5DwXFx5YeqyFUoiOhyAgnEM45diUAPYXwM02
x/Y28I7HCtlFoi8UGrsdn1yzoFIMlCCMLUCz4TTxNNPSYTzOBPGgMmgkSRKATUrD
mxjrJV9DsX2kaVYrMQNgXrrdRbmBN+I1vKny9oiKGLrJ8ZEeQ4p3CaRI1twOvDcg
Aafr6H6LnV9B2xPWNDuGpG8ox/TPhbYh/1dCGwyWF9dsJqhCE67aDvshiNGebolw
rV3Bm+W2plADdlht7DVfBO+0MFbbejU6eWBnn3esba2iitAWm0TK8w==
-----END CERTIFICATE-----
