Certificate:
    Data:
        Version: 3 (0x2)
        Serial Number:
            05:41:9b:15:b1:e1:90:4b:69:ec:78:10:92
        Signature Algorithm: sha256WithRSAEncryption
        Issuer: CN = Test SubCA 2, OU = Test, O = MTG, C = DE
        Validity
            Not Before: Nov  4 05:52:58 2019 GMT
            Not After : Nov  4 05:52:58 2020 GMT
        Subject: OU = Test, O = MTG, L = Darmstadt, ST = Hessen, C = DE
        Subject Public Key Info:
            Public Key Algorithm: rsaEncryption
                RSA Public-Key: (2048 bit)
                Modulus:
                    00:9d:52:43:fa:16:05:6a:f6:f0:48:8e:08:8d:66:
                    31:2f:28:ff:61:bf:61:d8:af:be:90:f9:03:ed:3f:
                    85:bc:68:ec:49:e1:96:a1:a4:14:14:e3:ff:a7:00:
                    a3:9c:36:3b:ed:e3:5a:15:4f:f9:85:7e:f5:fe:8e:
                    d6:f5:af:90:04:c6:dc:c3:22:89:26:2c:ce:67:e2:
                    d6:56:71:6b:60:19:33:5f:47:d9:9b:6d:40:7b:ee:
                    ae:5c:42:d7:8c:4b:1a:ed:4b:e9:31:ce:84:a8:f8:
                    27:91:59:09:a9:8a:7d:db:8c:f0:52:76:9f:57:24:
                    91:41:18:8e:e4:3d:51:ed:e8:67:c2:dc:92:39:fc:
                    87:64:03:f8:11:95:2b:ff:96:8c:4a:db:49:c2:5e:
                    bd:e8:16:2b:07:79:e2:64:b0:bc:e3:27:4d:db:f5:
                    59:ee:75:ff:60:9c:0b:f2:51:e7:54:c3:a2:06:14:
                    2a:ce:d8:a3:d2:fb:b0:6d:c3:00:74:b8:a1:c4:1d:
                    0d:83:d3:19:d6:8c:bd:e9:7b:65:2d:e3:59:c1:83:
                    f6:0e:b0:35:74:20:ec:59:67:71:7c:37:93:31:37:
                    64:47:75:a1:ab:0a:85:e2:23:94:37:22:69:44:91:
                    ea:86:6a:06:8f:56:89:8f:0b:80:ae:af:8c:9b:5a:
                    89:49
                Exponent: 65537 (0x10001)
        X509v3 extensions:
            X509v3 Authority Key Identifier: 
                keyid:17:B9:3C:44:F5:76:4B:60:42:6D:2C:09:9E:E2:5C:B3:CE:BC:C5:62

            X509v3 Subject Key Identifier: 
                CE:2A:D6:50:67:86:3B:EB:6D:70:81:F9:6B:C6:40:7E:4D:62:75:7D
            X509v3 Key Usage: critical
                Digital Signature, Key Encipherment
            X509v3 Basic Constraints: critical
                CA:FALSE
            X509v3 Subject Alternative Name: 
                DNS:www.example.com
            Authority Information Access: 
                CA Issuers - URI:http://ca.example.com/ca.crt
                OCSP - URI:http://ocsp.example.com/ocsp

            X509v3 Certificate Policies: 
                Policy: 0.4.0.194112.1.3

            X509v3 Extended Key Usage: 
                TLS Web Server Authentication, TLS Web Client Authentication
            qcStatements: 
                0.0......F..0......F..0......F...
    Signature Algorithm: sha256WithRSAEncryption
         6c:82:39:d0:e7:50:5c:11:ad:46:9f:0e:c2:7b:5f:33:48:16:
         9f:99:e8:0e:08:9b:50:67:db:ba:70:8c:d7:b9:48:8f:b5:9e:
         f3:85:9f:f4:c5:72:86:76:28:83:6c:5a:7b:d1:b7:a5:8a:eb:
         dc:43:5a:68:4b:a1:4f:4a:8a:58:e9:a1:d9:07:b9:07:8b:46:
         f0:ae:c6:3e:95:b1:f3:6f:d6:0f:87:89:0d:fd:1e:71:40:eb:
         70:8e:7f:2d:0c:97:c4:4f:d9:b3:24:46:b7:23:07:a2:5d:24:
         19:45:75:0e:1a:fe:ca:e0:ea:34:68:36:11:45:d9:c0:68:61:
         12:d7:02:e3:97:16:19:91:0b:3f:cc:e8:c9:51:72:dc:e8:36:
         7d:c6:6a:2d:db:72:59:98:b0:cd:0f:90:ce:98:5d:0a:2f:c1:
         1a:7f:5c:c1:e7:4b:a8:51:6e:02:5b:10:76:9c:ae:cf:50:f5:
         e9:65:78:f9:ed:d5:c8:bf:22:f9:63:e2:79:ea:68:cf:01:b5:
         f6:5f:bd:88:fd:1f:96:53:63:50:6b:cc:27:09:c0:16:af:50:
         c1:3d:d2:c4:e1:c2:6d:a0:ca:80:5e:ea:02:44:a0:70:3f:89:
         ef:2e:8e:fd:8c:f3:8c:99:1f:3e:20:39:d5:24:4b:f9:0f:0c:
         eb:d7:eb:85
-----BEGIN CERTIFICATE-----
MIIEXzCCA0egAwIBAgINBUGbFbHhkEtp7HgQkjANBgkqhkiG9w0BAQsFADBBMRUw
EwYDVQQDDAxUZXN0IFN1YkNBIDIxDTALBgNVBAsMBFRlc3QxDDAKBgNVBAoMA01U
RzELMAkGA1UEBhMCREUwHhcNMTkxMTA0MDU1MjU4WhcNMjAxMTA0MDU1MjU4WjBP
MQ0wCwYDVQQLDARUZXN0MQwwCgYDVQQKDANNVEcxEjAQBgNVBAcMCURhcm1zdGFk
dDEPMA0GA1UECAwGSGVzc2VuMQswCQYDVQQGEwJERTCCASIwDQYJKoZIhvcNAQEB
BQADggEPADCCAQoCggEBAJ1SQ/oWBWr28EiOCI1mMS8o/2G/YdivvpD5A+0/hbxo
7EnhlqGkFBTj/6cAo5w2O+3jWhVP+YV+9f6O1vWvkATG3MMiiSYszmfi1lZxa2AZ
M19H2ZttQHvurlxC14xLGu1L6THOhKj4J5FZCamKfduM8FJ2n1ckkUEYjuQ9Ue3o
Z8Lckjn8h2QD+BGVK/+WjErbScJevegWKwd54mSwvOMnTdv1We51/2CcC/JR51TD
ogYUKs7Yo9L7sG3DAHS4ocQdDYPTGdaMvel7ZS3jWcGD9g6wNXQg7FlncXw3kzE3
ZEd1oasKheIjlDciaUSR6oZqBo9WiY8LgK6vjJtaiUkCAwEAAaOCAUYwggFCMB8G
A1UdIwQYMBaAFBe5PET1dktgQm0sCZ7iXLPOvMViMB0GA1UdDgQWBBTOKtZQZ4Y7
621wgflrxkB+TWJ1fTAOBgNVHQ8BAf8EBAMCBaAwDAYDVR0TAQH/BAIwADAaBgNV
HREEEzARgg93d3cuZXhhbXBsZS5jb20wYgYIKwYBBQUHAQEEVjBUMCgGCCsGAQUF
BzAChhxodHRwOi8vY2EuZXhhbXBsZS5jb20vY2EuY3J0MCgGCCsGAQUFBzABhhxo
dHRwOi8vb2NzcC5leGFtcGxlLmNvbS9vY3NwMBQGA1UdIAQNMAswCQYHBACL7EAB
AzAdBgNVHSUEFjAUBggrBgEFBQcDAQYIKwYBBQUHAwIwLQYIKwYBBQUHAQMEITAf
MAgGBgQAjkYBATATBgYEAI5GAQYwCQYHBACORgEGAjANBgkqhkiG9w0BAQsFAAOC
AQEAbII50OdQXBGtRp8OwntfM0gWn5noDgibUGfbunCM17lIj7We84Wf9MVyhnYo
g2xae9G3pYrr3ENaaEuhT0qKWOmh2Qe5B4tG8K7GPpWx82/WD4eJDf0ecUDrcI5/
LQyXxE/ZsyRGtyMHol0kGUV1Dhr+yuDqNGg2EUXZwGhhEtcC45cWGZELP8zoyVFy
3Og2fcZqLdtyWZiwzQ+QzphdCi/BGn9cwedLqFFuAlsQdpyuz1D16WV4+e3VyL8i
+WPieepozwG19l+9iP0fllNjUGvMJwnAFq9QwT3SxOHCbaDKgF7qAkSgcD+J7y6O
/YzzjJkfPiA51SRL+Q8M69frhQ==
-----END CERTIFICATE-----
