Certificate:
    Data:
        Version: 3 (0x2)
        Serial Number:
            0d:3a:53:26:6d:47:e1:4a:77:f2:ab:fd:6f
        Signature Algorithm: sha256WithRSAEncryption
        Issuer: CN = Test SubCA 2, OU = Test, O = MTG, C = DE
        Validity
            Not Before: Nov  4 05:52:58 2019 GMT
            Not After : Nov  4 05:52:58 2020 GMT
        Subject: OU = Test, O = MTG, L = Darmstadt, ST = Hessen, C = DE
        Subject Public Key Info:
            Public Key Algorithm: rsaEncryption
                RSA Public-Key: (2048 bit)
                Modulus:
                    00:9d:52:43:fa:16:05:6a:f6:f0:48:8e:08:8d:66:
                    31:2f:28:ff:61:bf:61:d8:af:be:90:f9:03:ed:3f:
                    85:bc:68:ec:49:e1:96:a1:a4:14:14:e3:ff:a7:00:
                    a3:9c:36:3b:ed:e3:5a:15:4f:f9:85:7e:f5:fe:8e:
                    d6:f5:af:90:04:c6:dc:c3:22:89:26:2c:ce:67:e2:
                    d6:56:71:6b:60:19:33:5f:47:d9:9b:6d:40:7b:ee:
                    ae:5c:42:d7:8c:4b:1a:ed:4b:e9:31:ce:84:a8:f8:
                    27:91:59:09:a9:8a:7d:db:8c:f0:52:76:9f:57:24:
                    91:41:18:8e:e4:3d:51:ed:e8:67:c2:dc:92:39:fc:
                    87:64:03:f8:11:95:2b:ff:96:8c:4a:db:49:c2:5e:
                    bd:e8:16:2b:07:79:e2:64:b0:bc:e3:27:4d:db:f5:
                    59:ee:75:ff:60:9c:0b:f2:51:e7:54:c3:a2:06:14:
                    2a:ce:d8:a3:d2:fb:b0:6d:c3:00:74:b8:a1:c4:1d:
                    0d:83:d3:19:d6:8c:bd:e9:7b:65:2d:e3:59:c1:83:
                    f6:0e:b0:35:74:20:ec:59:67:71:7c:37:93:31:37:
                    64:47:75:a1:ab:0a:85:e2:23:94:37:22:69:44:91:
                    ea:86:6a:06:8f:56:89:8f:0b:80:ae:af:8c:9b:5a:
                    89:49
                Exponent: 65537 (0x10001)
        X509v3 extensions:
            X509v3 Authority Key Identifier: 
                keyid:17:B9:3C:44:F5:76:4B:60:42:6D:2C:09:9E:E2:5C:B3:CE:BC:C5:62

            X509v3 Subject Key Identifier: 
                CE:2A:D6:50:67:86:3B:EB:6D:70:81:F9:6B:C6:40:7E:4D:62:75:7D
            X509v3 Key Usage: critical
                Digital Signature, Key Encipherment
            X509v3 Basic Constraints: critical
                CA:FALSE
            X509v3 Subject Alternative Name: 
                DNS:www.example.com
            Authority Information Access: 
                CA Issuers - URI:http://ca.example.com/ca.crt
                OCSP - URI:http://ocsp.example.com/ocsp

            X509v3 Certificate Policies: 
                Policy: 0.4.0.194112.1.2

            X509v3 Extended Key Usage: 
                TLS Web Server Authentication, TLS Web Client Authentication
            qcStatements: 
                0.0......F..0......F..0......F...
    Signature Algorithm: sha256WithRSAEncryption
         15:ba:5d:f2:e9:28:a4:34:b4:c1:5a:1d:dc:5f:74:0c:23:f2:
         0a:51:c0:89:11:b4:d5:55:67:6e:4c:b5:94:f2:52:7b:10:ae:
         52:68:e8:07:25:5c:a1:87:05:ba:a9:62:3a:76:c2:dd:65:2b:
         3f:06:f3:76:73:4f:63:35:e6:28:7b:72:e1:3b:c7:f2:1e:33:
         2d:4a:34:26:d9:5b:88:3c:c0:fa:37:a0:aa:31:60:12:e8:97:
         16:e9:36:b8:66:87:ca:2c:01:41:b2:ee:b3:48:be:8e:6c:67:
         e9:e8:43:6f:e1:a3:8f:71:bf:82:e3:95:7e:c8:3a:50:c0:8a:
         05:8b:a5:10:05:50:02:c5:b3:6c:00:7a:85:f0:30:36:dd:33:
         c6:3b:2d:9c:8e:23:ef:9c:52:6f:26:4b:78:fd:6a:26:bf:e9:
         b7:9f:1c:2e:7e:c0:eb:96:a7:de:e4:28:ee:3f:b7:fd:75:99:
         f0:47:8e:bf:11:cc:cf:95:40:5f:0e:9a:3d:be:ff:a7:6c:9b:
         71:15:be:cd:b6:00:08:1a:98:dd:27:6d:0b:d4:bd:b5:58:bd:
         3a:56:93:dc:94:7e:17:2b:50:2b:33:cf:60:9f:aa:0f:20:12:
         72:41:4b:6c:16:7a:ec:49:fd:47:bd:d8:48:f8:22:1a:a4:7b:
         ab:23:ab:25
-----BEGIN CERTIFICATE-----
MIIEXzCCA0egAwIBAgINDTpTJm1H4Up38qv9bzANBgkqhkiG9w0BAQsFADBBMRUw
EwYDVQQDDAxUZXN0IFN1YkNBIDIxDTALBgNVBAsMBFRlc3QxDDAKBgNVBAoMA01U
RzELMAkGA1UEBhMCREUwHhcNMTkxMTA0MDU1MjU4WhcNMjAxMTA0MDU1MjU4WjBP
MQ0wCwYDVQQLDARUZXN0MQwwCgYDVQQKDANNVEcxEjAQBgNVBAcMCURhcm1zdGFk
dDEPMA0GA1UECAwGSGVzc2VuMQswCQYDVQQGEwJERTCCASIwDQYJKoZIhvcNAQEB
BQADggEPADCCAQoCggEBAJ1SQ/oWBWr28EiOCI1mMS8o/2G/YdivvpD5A+0/hbxo
7EnhlqGkFBTj/6cAo5w2O+3jWhVP+YV+9f6O1vWvkATG3MMiiSYszmfi1lZxa2AZ
M19H2ZttQHvurlxC14xLGu1L6THOhKj4J5FZCamKfduM8FJ2n1ckkUEYjuQ9Ue3o
Z8Lckjn8h2QD+BGVK/+WjErbScJevegWKwd54mSwvOMnTdv1We51/2CcC/JR51TD
ogYUKs7Yo9L7sG3DAHS4ocQdDYPTGdaMvel7ZS3jWcGD9g6wNXQg7FlncXw3kzE3
ZEd1oasKheIjlDciaUSR6oZqBo9WiY8LgK6vjJtaiUkCAwEAAaOCAUYwggFCMB8G
A1UdIwQYMBaAFBe5PET1dktgQm0sCZ7iXLPOvMViMB0GA1UdDgQWBBTOKtZQZ4Y7
621wgflrxkB+TWJ1fTAOBgNVHQ8BAf8EBAMCBaAwDAYDVR0TAQH/BAIwADAaBgNV
HREEEzARgg93d3cuZXhhbXBsZS5jb20wYgYIKwYBBQUHAQEEVjBUMCgGCCsGAQUF
BzAChhxodHRwOi8vY2EuZXhhbXBsZS5jb20vY2EuY3J0MCgGCCsGAQUFBzABhhxo
dHRwOi8vb2NzcC5leGFtcGxlLmNvbS9vY3NwMBQGA1UdIAQNMAswCQYHBACL7EAB
AjAdBgNVHSUEFjAUBggrBgEFBQcDAQYIKwYBBQUHAwIwLQYIKwYBBQUHAQMEITAf
MAgGBgQAjkYBATATBgYEAI5GAQYwCQYHBACORgEGAzANBgkqhkiG9w0BAQsFAAOC
AQEAFbpd8ukopDS0wVod3F90DCPyClHAiRG01VVnbky1lPJSexCuUmjoByVcoYcF
uqliOnbC3WUrPwbzdnNPYzXmKHty4TvH8h4zLUo0JtlbiDzA+jegqjFgEuiXFuk2
uGaHyiwBQbLus0i+jmxn6ehDb+Gjj3G/guOVfsg6UMCKBYulEAVQAsWzbAB6hfAw
Nt0zxjstnI4j75xSbyZLeP1qJr/pt58cLn7A65an3uQo7j+3/XWZ8EeOvxHMz5VA
Xw6aPb7/p2ybcRW+zbYACBqY3SdtC9S9tVi9OlaT3JR+FytQKzPPYJ+qDyASckFL
bBZ67En9R73YSPgiGqR7qyOrJQ==
-----END CERTIFICATE-----
