Certificate:
    Data:
        Version: 3 (0x2)
        Serial Number:
            06:8b:16:f1:13:3c:93:d6:0e:0a:ba:6c:54
        Signature Algorithm: sha256WithRSAEncryption
        Issuer: CN = Test SubCA 2, OU = Test, O = MTG, C = DE
        Validity
            Not Before: Nov  1 08:03:00 2019 GMT
            Not After : Nov  1 08:03:00 2020 GMT
        Subject: O = MTG, OU = Test, L = Darmstadt, ST = Hessen, C = DE, organizationIdentifier = PSDDE-Bafin-1234567890
        Subject Public Key Info:
            Public Key Algorithm: rsaEncryption
                RSA Public-Key: (2048 bit)
                Modulus:
                    00:c2:0d:81:71:b4:94:05:bc:cf:99:8a:aa:62:08:
                    f2:2e:63:b2:1e:46:f9:2b:85:98:c3:83:d0:ce:26:
                    ad:76:8f:5c:e7:5b:05:20:25:26:32:19:c2:24:8a:
                    ba:69:a3:eb:ca:10:a4:f3:cf:b5:c6:1e:f6:70:58:
                    96:5b:88:52:6a:88:42:33:85:b8:c6:16:48:4f:01:
                    45:39:3f:e1:6a:b9:06:b5:ef:37:db:79:9e:50:90:
                    57:43:5b:8b:c3:35:0d:b3:41:f4:1b:c2:4a:7f:18:
                    3c:39:2d:4f:bf:2b:a5:71:07:73:33:00:e5:8d:36:
                    9e:fe:8f:72:c5:72:56:08:cc:86:b6:ef:ba:e2:fd:
                    9b:5c:c6:2d:94:ed:2d:64:24:77:e6:67:4d:62:db:
                    94:2e:29:8e:dd:1d:7a:ca:bc:68:fb:15:2c:80:56:
                    d3:dd:e7:3a:8f:98:18:14:4b:11:d9:c4:01:1f:b9:
                    7a:d0:d9:ad:69:11:05:f6:0e:ae:5f:fc:cd:c6:b3:
                    cb:4d:ae:8e:45:18:0a:a8:c0:40:11:28:dc:cd:9f:
                    7a:26:67:5a:47:80:9b:d9:4c:f7:da:5f:6d:13:83:
                    1a:91:92:d1:b9:44:f7:72:6b:97:47:74:71:70:80:
                    d3:d6:73:bf:76:33:5c:70:b8:6f:87:37:3e:7e:8e:
                    75:e5
                Exponent: 65537 (0x10001)
        X509v3 extensions:
            X509v3 Authority Key Identifier: 
                keyid:0C:5E:9C:FE:BA:4B:21:6C:04:1D:C2:5A:B7:E3:88:5F:59:DE:4C:12

            X509v3 Subject Key Identifier: 
                0E:6B:AA:83:A9:B2:4D:5C:85:CD:B1:D2:2F:87:F7:20:CB:36:43:3B
            X509v3 Key Usage: critical
                Digital Signature, Key Encipherment
            X509v3 Basic Constraints: critical
                CA:FALSE
            X509v3 Subject Alternative Name: 
                DNS:www.example.com
            Authority Information Access: 
                CA Issuers - URI:http://ca.example.com/ca.crt
                OCSP - URI:http://ocsp.example.com/ocsp

            X509v3 Certificate Policies: 
                Policy: 0.4.0.194112.1.4
                Policy: 0.4.0.19495.3.1

            X509v3 Extended Key Usage: 
                TLS Web Server Authentication, TLS Web Client Authentication
            qcStatements: 
                0..0......F..0......F..0......F...0...+.......0.......I..0R......'.0H0.0.......'....PSP_IC.'Federal Financial Supervisory Authority..DE-Bafin
    Signature Algorithm: sha256WithRSAEncryption
         16:4b:ba:38:38:ca:37:2b:ee:16:55:00:9c:14:e7:5e:68:d1:
         4f:75:a3:d9:e0:a0:96:67:d0:b6:40:95:e5:9b:29:0a:53:e0:
         4a:9f:d8:de:1a:42:35:55:c5:7c:47:32:da:2e:54:73:1a:9b:
         f6:14:e6:99:33:6e:f6:6e:2a:86:03:fb:52:32:03:83:84:9d:
         29:80:9e:f8:39:a3:30:de:d4:96:54:9f:d6:f1:bd:13:35:ff:
         8b:ec:73:0a:0f:d3:9c:3d:df:9f:f0:a0:20:19:eb:73:55:4c:
         3f:e4:00:69:85:0a:15:bd:2e:bb:71:47:04:ee:57:35:e3:7b:
         2b:a2:dd:93:fa:0b:a2:03:44:9e:87:63:86:3d:6e:a0:82:92:
         33:d8:a2:f4:d5:6a:61:46:ca:ff:7b:74:53:cd:e5:58:c3:48:
         bc:d1:3e:73:06:4a:89:fd:45:e6:9a:37:df:5f:e1:45:6d:bb:
         11:dc:8d:e9:82:21:2b:eb:95:d7:bb:bb:9d:3f:3c:82:95:8f:
         74:bc:b5:b0:55:84:7c:f5:0e:0c:4f:af:4c:50:9c:ff:f6:fa:
         43:75:92:6a:69:23:3d:f2:f0:8e:cc:f8:3e:47:67:cb:ff:29:
         fd:db:d2:96:e7:79:38:95:01:74:de:6a:52:95:74:aa:38:85:
         d4:1b:bd:3a
-----BEGIN CERTIFICATE-----
MIIE+TCCA+GgAwIBAgINBosW8RM8k9YOCrpsVDANBgkqhkiG9w0BAQsFADBBMRUw
EwYDVQQDDAxUZXN0IFN1YkNBIDIxDTALBgNVBAsMBFRlc3QxDDAKBgNVBAoMA01U
RzELMAkGA1UEBhMCREUwHhcNMTkxMTAxMDgwMzAwWhcNMjAxMTAxMDgwMzAwWjBw
MQwwCgYDVQQKDANNVEcxDTALBgNVBAsMBFRlc3QxEjAQBgNVBAcMCURhcm1zdGFk
dDEPMA0GA1UECAwGSGVzc2VuMQswCQYDVQQGEwJERTEfMB0GA1UEYQwWUFNEREUt
QmFmaW4tMTIzNDU2Nzg5MDCCASIwDQYJKoZIhvcNAQEBBQADggEPADCCAQoCggEB
AMINgXG0lAW8z5mKqmII8i5jsh5G+SuFmMOD0M4mrXaPXOdbBSAlJjIZwiSKummj
68oQpPPPtcYe9nBYlluIUmqIQjOFuMYWSE8BRTk/4Wq5BrXvN9t5nlCQV0Nbi8M1
DbNB9BvCSn8YPDktT78rpXEHczMA5Y02nv6PcsVyVgjMhrbvuuL9m1zGLZTtLWQk
d+ZnTWLblC4pjt0desq8aPsVLIBW093nOo+YGBRLEdnEAR+5etDZrWkRBfYOrl/8
zcazy02ujkUYCqjAQBEo3M2feiZnWkeAm9lM99pfbRODGpGS0blE93Jrl0d0cXCA
09Zzv3YzXHC4b4c3Pn6OdeUCAwEAAaOCAb8wggG7MB8GA1UdIwQYMBaAFAxenP66
SyFsBB3CWrfjiF9Z3kwSMB0GA1UdDgQWBBQOa6qDqbJNXIXNsdIvh/cgyzZDOzAO
BgNVHQ8BAf8EBAMCBaAwDAYDVR0TAQH/BAIwADAaBgNVHREEEzARgg93d3cuZXhh
bXBsZS5jb20wYgYIKwYBBQUHAQEEVjBUMCgGCCsGAQUFBzAChhxodHRwOi8vY2Eu
ZXhhbXBsZS5jb20vY2EuY3J0MCgGCCsGAQUFBzABhhxodHRwOi8vb2NzcC5leGFt
cGxlLmNvbS9vY3NwMB8GA1UdIAQYMBYwCQYHBACL7EABBDAJBgcEAIGYJwMBMB0G
A1UdJQQWMBQGCCsGAQUFBwMBBggrBgEFBQcDAjCBmgYIKwYBBQUHAQMEgY0wgYow
CAYGBACORgEBMBMGBgQAjkYBBjAJBgcEAI5GAQYDMBUGCCsGAQUFBwsCMAkGBwQA
i+xJAQIwUgYGBACBmCcCMEgwEzARBgcEAIGYJwEEDAZQU1BfSUMMJ0ZlZGVyYWwg
RmluYW5jaWFsIFN1cGVydmlzb3J5IEF1dGhvcml0eQwIREUtQmFmaW4wDQYJKoZI
hvcNAQELBQADggEBABZLujg4yjcr7hZVAJwU515o0U91o9ngoJZn0LZAleWbKQpT
4Eqf2N4aQjVVxXxHMtouVHMam/YU5pkzbvZuKoYD+1IyA4OEnSmAnvg5ozDe1JZU
n9bxvRM1/4vscwoP05w935/woCAZ63NVTD/kAGmFChW9LrtxRwTuVzXjeyui3ZP6
C6IDRJ6HY4Y9bqCCkjPYovTVamFGyv97dFPN5VjDSLzRPnMGSon9ReaaN99f4UVt
uxHcjemCISvrlde7u50/PIKVj3S8tbBVhHz1DgxPr0xQnP/2+kN1kmppIz3y8I7M
+D5HZ8v/Kf3b0pbneTiVAXTealKVdKo4hdQbvTo=
-----END CERTIFICATE-----
