Certificate:
    Data:
        Version: 3 (0x2)
        Serial Number:
            04:b2:65:ab:e1:e0:c1:56:e0:41:66:38:96
        Signature Algorithm: sha256WithRSAEncryption
        Issuer: CN = Test SubCA 2, OU = Test, O = MTG, C = DE
        Validity
            Not Before: Nov  1 08:03:01 2019 GMT
            Not After : Nov  1 08:03:01 2020 GMT
        Subject: OU = Test, O = MTG, L = Darmstadt, ST = Hessen, C = DE, organizationIdentifier = PSDDE-BAFIN-1234567890
        Subject Public Key Info:
            Public Key Algorithm: rsaEncryption
                RSA Public-Key: (2048 bit)
                Modulus:
                    00:c2:0d:81:71:b4:94:05:bc:cf:99:8a:aa:62:08:
                    f2:2e:63:b2:1e:46:f9:2b:85:98:c3:83:d0:ce:26:
                    ad:76:8f:5c:e7:5b:05:20:25:26:32:19:c2:24:8a:
                    ba:69:a3:eb:ca:10:a4:f3:cf:b5:c6:1e:f6:70:58:
                    96:5b:88:52:6a:88:42:33:85:b8:c6:16:48:4f:01:
                    45:39:3f:e1:6a:b9:06:b5:ef:37:db:79:9e:50:90:
                    57:43:5b:8b:c3:35:0d:b3:41:f4:1b:c2:4a:7f:18:
                    3c:39:2d:4f:bf:2b:a5:71:07:73:33:00:e5:8d:36:
                    9e:fe:8f:72:c5:72:56:08:cc:86:b6:ef:ba:e2:fd:
                    9b:5c:c6:2d:94:ed:2d:64:24:77:e6:67:4d:62:db:
                    94:2e:29:8e:dd:1d:7a:ca:bc:68:fb:15:2c:80:56:
                    d3:dd:e7:3a:8f:98:18:14:4b:11:d9:c4:01:1f:b9:
                    7a:d0:d9:ad:69:11:05:f6:0e:ae:5f:fc:cd:c6:b3:
                    cb:4d:ae:8e:45:18:0a:a8:c0:40:11:28:dc:cd:9f:
                    7a:26:67:5a:47:80:9b:d9:4c:f7:da:5f:6d:13:83:
                    1a:91:92:d1:b9:44:f7:72:6b:97:47:74:71:70:80:
                    d3:d6:73:bf:76:33:5c:70:b8:6f:87:37:3e:7e:8e:
                    75:e5
                Exponent: 65537 (0x10001)
        X509v3 extensions:
            X509v3 Authority Key Identifier: 
                keyid:0C:5E:9C:FE:BA:4B:21:6C:04:1D:C2:5A:B7:E3:88:5F:59:DE:4C:12

            X509v3 Subject Key Identifier: 
                0E:6B:AA:83:A9:B2:4D:5C:85:CD:B1:D2:2F:87:F7:20:CB:36:43:3B
            X509v3 Key Usage: critical
                Digital Signature, Key Encipherment
            X509v3 Basic Constraints: critical
                CA:FALSE
            X509v3 Subject Alternative Name: 
                DNS:www.example.com
            Authority Information Access: 
                CA Issuers - URI:http://ca.example.com/ca.crt
                OCSP - URI:http://ocsp.example.com/ocsp

            X509v3 Certificate Policies: 
                Policy: 0.4.0.194112.1.4
                Policy: 0.4.0.19495.3.1

            X509v3 Extended Key Usage: 
                TLS Web Server Authentication, TLS Web Client Authentication
            qcStatements: 
                0..0......F..0......F..0......F...0...+.......0.......I..0Z......'.0P0.0...0.4.0.19495.1.1..PSP_AS.'Federal Financial Supervisory Authority..DE-BAFIN
    Signature Algorithm: sha256WithRSAEncryption
         0f:0a:fb:78:50:e3:ed:30:e9:f6:86:6f:2d:77:d0:e1:f3:87:
         18:d9:0f:4f:62:28:a4:66:40:5d:25:8e:54:44:29:4c:36:6b:
         99:46:c4:1b:d5:40:65:15:8f:41:6a:ec:54:90:4f:18:c2:95:
         4a:28:c6:7f:25:8e:a2:3c:3e:61:ba:ff:cd:fd:3a:b9:d6:1f:
         cd:4e:33:7e:85:f6:af:6a:79:55:c1:7b:45:a3:8f:d0:8d:08:
         bd:4b:bb:8a:65:4e:e4:21:b0:00:08:0d:c0:15:87:54:29:71:
         80:70:86:ec:7c:8f:09:5c:1f:86:e9:68:12:d0:58:a4:ca:18:
         33:06:48:3d:08:23:6e:94:2f:ed:ad:25:ee:c3:72:a3:05:20:
         be:8d:8b:12:7b:60:27:e0:26:62:f8:ed:88:ea:e2:97:a7:01:
         e7:55:63:b0:9b:c8:ce:12:86:a4:05:10:eb:05:3d:00:c6:5c:
         56:b3:71:28:1a:c1:0b:f6:6f:06:6a:4d:c1:75:a9:a9:94:34:
         86:df:19:2f:00:30:41:c1:61:95:db:aa:4e:3f:91:68:8b:ca:
         00:14:d3:39:d5:bc:fe:20:fc:2f:fd:39:b6:d8:33:51:89:3d:
         84:e0:4f:d2:7b:cc:a7:4a:bc:61:70:27:66:22:f2:8f:31:3f:
         6f:cc:70:74
-----BEGIN CERTIFICATE-----
MIIFATCCA+mgAwIBAgINBLJlq+HgwVbgQWY4ljANBgkqhkiG9w0BAQsFADBBMRUw
EwYDVQQDDAxUZXN0IFN1YkNBIDIxDTALBgNVBAsMBFRlc3QxDDAKBgNVBAoMA01U
RzELMAkGA1UEBhMCREUwHhcNMTkxMTAxMDgwMzAxWhcNMjAxMTAxMDgwMzAxWjBw
MQ0wCwYDVQQLDARUZXN0MQwwCgYDVQQKDANNVEcxEjAQBgNVBAcMCURhcm1zdGFk
dDEPMA0GA1UECAwGSGVzc2VuMQswCQYDVQQGEwJERTEfMB0GA1UEYQwWUFNEREUt
QkFGSU4tMTIzNDU2Nzg5MDCCASIwDQYJKoZIhvcNAQEBBQADggEPADCCAQoCggEB
AMINgXG0lAW8z5mKqmII8i5jsh5G+SuFmMOD0M4mrXaPXOdbBSAlJjIZwiSKummj
68oQpPPPtcYe9nBYlluIUmqIQjOFuMYWSE8BRTk/4Wq5BrXvN9t5nlCQV0Nbi8M1
DbNB9BvCSn8YPDktT78rpXEHczMA5Y02nv6PcsVyVgjMhrbvuuL9m1zGLZTtLWQk
d+ZnTWLblC4pjt0desq8aPsVLIBW093nOo+YGBRLEdnEAR+5etDZrWkRBfYOrl/8
zcazy02ujkUYCqjAQBEo3M2feiZnWkeAm9lM99pfbRODGpGS0blE93Jrl0d0cXCA
09Zzv3YzXHC4b4c3Pn6OdeUCAwEAAaOCAccwggHDMB8GA1UdIwQYMBaAFAxenP66
SyFsBB3CWrfjiF9Z3kwSMB0GA1UdDgQWBBQOa6qDqbJNXIXNsdIvh/cgyzZDOzAO
BgNVHQ8BAf8EBAMCBaAwDAYDVR0TAQH/BAIwADAaBgNVHREEEzARgg93d3cuZXhh
bXBsZS5jb20wYgYIKwYBBQUHAQEEVjBUMCgGCCsGAQUFBzAChhxodHRwOi8vY2Eu
ZXhhbXBsZS5jb20vY2EuY3J0MCgGCCsGAQUFBzABhhxodHRwOi8vb2NzcC5leGFt
cGxlLmNvbS9vY3NwMB8GA1UdIAQYMBYwCQYHBACL7EABBDAJBgcEAIGYJwMBMB0G
A1UdJQQWMBQGCCsGAQUFBwMBBggrBgEFBQcDAjCBogYIKwYBBQUHAQMEgZUwgZIw
CAYGBACORgEBMBMGBgQAjkYBBjAJBgcEAI5GAQYDMBUGCCsGAQUFBwsCMAkGBwQA
i+xJAQIwWgYGBACBmCcCMFAwGzAZDA8wLjQuMC4xOTQ5NS4xLjEMBlBTUF9BUwwn
RmVkZXJhbCBGaW5hbmNpYWwgU3VwZXJ2aXNvcnkgQXV0aG9yaXR5DAhERS1CQUZJ
TjANBgkqhkiG9w0BAQsFAAOCAQEADwr7eFDj7TDp9oZvLXfQ4fOHGNkPT2IopGZA
XSWOVEQpTDZrmUbEG9VAZRWPQWrsVJBPGMKVSijGfyWOojw+Ybr/zf06udYfzU4z
foX2r2p5VcF7RaOP0I0IvUu7imVO5CGwAAgNwBWHVClxgHCG7HyPCVwfhuloEtBY
pMoYMwZIPQgjbpQv7a0l7sNyowUgvo2LEntgJ+AmYvjtiOril6cB51VjsJvIzhKG
pAUQ6wU9AMZcVrNxKBrBC/ZvBmpNwXWpqZQ0ht8ZLwAwQcFhlduqTj+RaIvKABTT
OdW8/iD8L/05ttgzUYk9hOBP0nvMp0q8YXAnZiLyjzE/b8xwdA==
-----END CERTIFICATE-----
