Certificate:
    Data:
        Version: 3 (0x2)
        Serial Number:
            06:2d:2e:21:e6:59:61:18:df:7b:07:19:d3
        Signature Algorithm: sha256WithRSAEncryption
        Issuer: CN = Test SubCA 2, OU = Test, O = MTG, C = DE
        Validity
            Not Before: Nov  4 05:52:58 2019 GMT
            Not After : Nov  4 05:52:58 2020 GMT
        Subject: OU = Test, O = MTG, L = Darmstadt, ST = Hessen, C = DE
        Subject Public Key Info:
            Public Key Algorithm: rsaEncryption
                RSA Public-Key: (2048 bit)
                Modulus:
                    00:9d:52:43:fa:16:05:6a:f6:f0:48:8e:08:8d:66:
                    31:2f:28:ff:61:bf:61:d8:af:be:90:f9:03:ed:3f:
                    85:bc:68:ec:49:e1:96:a1:a4:14:14:e3:ff:a7:00:
                    a3:9c:36:3b:ed:e3:5a:15:4f:f9:85:7e:f5:fe:8e:
                    d6:f5:af:90:04:c6:dc:c3:22:89:26:2c:ce:67:e2:
                    d6:56:71:6b:60:19:33:5f:47:d9:9b:6d:40:7b:ee:
                    ae:5c:42:d7:8c:4b:1a:ed:4b:e9:31:ce:84:a8:f8:
                    27:91:59:09:a9:8a:7d:db:8c:f0:52:76:9f:57:24:
                    91:41:18:8e:e4:3d:51:ed:e8:67:c2:dc:92:39:fc:
                    87:64:03:f8:11:95:2b:ff:96:8c:4a:db:49:c2:5e:
                    bd:e8:16:2b:07:79:e2:64:b0:bc:e3:27:4d:db:f5:
                    59:ee:75:ff:60:9c:0b:f2:51:e7:54:c3:a2:06:14:
                    2a:ce:d8:a3:d2:fb:b0:6d:c3:00:74:b8:a1:c4:1d:
                    0d:83:d3:19:d6:8c:bd:e9:7b:65:2d:e3:59:c1:83:
                    f6:0e:b0:35:74:20:ec:59:67:71:7c:37:93:31:37:
                    64:47:75:a1:ab:0a:85:e2:23:94:37:22:69:44:91:
                    ea:86:6a:06:8f:56:89:8f:0b:80:ae:af:8c:9b:5a:
                    89:49
                Exponent: 65537 (0x10001)
        X509v3 extensions:
            X509v3 Authority Key Identifier: 
                keyid:17:B9:3C:44:F5:76:4B:60:42:6D:2C:09:9E:E2:5C:B3:CE:BC:C5:62

            X509v3 Subject Key Identifier: 
                CE:2A:D6:50:67:86:3B:EB:6D:70:81:F9:6B:C6:40:7E:4D:62:75:7D
            X509v3 Key Usage: critical
                Digital Signature, Key Encipherment
            X509v3 Basic Constraints: critical
                CA:FALSE
            X509v3 Subject Alternative Name: 
                DNS:www.example.com
            Authority Information Access: 
                CA Issuers - URI:http://ca.example.com/ca.crt
                OCSP - URI:http://ocsp.example.com/ocsp

            X509v3 Certificate Policies: 
                Policy: 0.4.0.194112.1.3

            X509v3 Extended Key Usage: 
                TLS Web Server Authentication, TLS Web Client Authentication
            qcStatements: 
                0)0......F..0......F..0......F..0......F...
    Signature Algorithm: sha256WithRSAEncryption
         58:d8:42:cc:a0:42:15:8b:49:d7:c3:df:be:e5:44:0a:3b:57:
         48:6b:a6:5c:b4:8f:7b:f1:11:79:8d:09:73:a9:2a:13:4b:18:
         25:49:2c:70:a9:8f:37:b5:c5:82:9c:3f:9f:09:a1:77:16:49:
         ad:2d:26:aa:de:9c:28:a5:64:6e:69:71:cc:e8:34:d7:04:42:
         a9:a2:e9:5a:3b:fb:28:79:dc:ef:03:12:52:f2:72:8f:21:ab:
         83:dd:94:ad:4f:b1:a8:c8:82:d9:30:36:5a:ef:09:f3:95:5f:
         fd:74:51:fe:0e:73:77:6e:b7:20:d8:26:1c:89:58:df:02:ca:
         bb:dd:bb:ef:a6:e3:b8:e8:60:8e:7c:cf:02:0e:db:5d:ea:80:
         1e:85:ed:df:85:7d:d9:e4:56:17:d5:93:06:41:22:ee:8c:9c:
         f8:74:55:15:c3:3b:0b:9e:c1:f5:d7:65:3d:35:fc:01:27:3a:
         84:76:5e:ba:a7:9a:fa:ef:50:7f:f0:7f:8c:f0:0c:5b:1b:88:
         33:a8:fd:75:9b:94:7a:9f:f2:33:49:67:17:68:f2:11:54:ac:
         51:b0:eb:2c:d6:56:29:27:1e:e2:aa:0d:fa:18:6f:44:4f:82:
         22:ae:40:b1:b6:76:6b:63:09:44:3d:2f:93:4c:f9:74:d1:c6:
         13:db:27:3d
-----BEGIN CERTIFICATE-----
MIIEaTCCA1GgAwIBAgINBi0uIeZZYRjfewcZ0zANBgkqhkiG9w0BAQsFADBBMRUw
EwYDVQQDDAxUZXN0IFN1YkNBIDIxDTALBgNVBAsMBFRlc3QxDDAKBgNVBAoMA01U
RzELMAkGA1UEBhMCREUwHhcNMTkxMTA0MDU1MjU4WhcNMjAxMTA0MDU1MjU4WjBP
MQ0wCwYDVQQLDARUZXN0MQwwCgYDVQQKDANNVEcxEjAQBgNVBAcMCURhcm1zdGFk
dDEPMA0GA1UECAwGSGVzc2VuMQswCQYDVQQGEwJERTCCASIwDQYJKoZIhvcNAQEB
BQADggEPADCCAQoCggEBAJ1SQ/oWBWr28EiOCI1mMS8o/2G/YdivvpD5A+0/hbxo
7EnhlqGkFBTj/6cAo5w2O+3jWhVP+YV+9f6O1vWvkATG3MMiiSYszmfi1lZxa2AZ
M19H2ZttQHvurlxC14xLGu1L6THOhKj4J5FZCamKfduM8FJ2n1ckkUEYjuQ9Ue3o
Z8Lckjn8h2QD+BGVK/+WjErbScJevegWKwd54mSwvOMnTdv1We51/2CcC/JR51TD
ogYUKs7Yo9L7sG3DAHS4ocQdDYPTGdaMvel7ZS3jWcGD9g6wNXQg7FlncXw3kzE3
ZEd1oasKheIjlDciaUSR6oZqBo9WiY8LgK6vjJtaiUkCAwEAAaOCAVAwggFMMB8G
A1UdIwQYMBaAFBe5PET1dktgQm0sCZ7iXLPOvMViMB0GA1UdDgQWBBTOKtZQZ4Y7
621wgflrxkB+TWJ1fTAOBgNVHQ8BAf8EBAMCBaAwDAYDVR0TAQH/BAIwADAaBgNV
HREEEzARgg93d3cuZXhhbXBsZS5jb20wYgYIKwYBBQUHAQEEVjBUMCgGCCsGAQUF
BzAChhxodHRwOi8vY2EuZXhhbXBsZS5jb20vY2EuY3J0MCgGCCsGAQUFBzABhhxo
dHRwOi8vb2NzcC5leGFtcGxlLmNvbS9vY3NwMBQGA1UdIAQNMAswCQYHBACL7EAB
AzAdBgNVHSUEFjAUBggrBgEFBQcDAQYIKwYBBQUHAwIwNwYIKwYBBQUHAQMEKzAp
MAgGBgQAjkYBATAIBgYEAI5GAQQwEwYGBACORgEGMAkGBwQAjkYBBgIwDQYJKoZI
hvcNAQELBQADggEBAFjYQsygQhWLSdfD377lRAo7V0hrply0j3vxEXmNCXOpKhNL
GCVJLHCpjze1xYKcP58JoXcWSa0tJqrenCilZG5pcczoNNcEQqmi6Vo7+yh53O8D
ElLyco8hq4PdlK1PsajIgtkwNlrvCfOVX/10Uf4Oc3dutyDYJhyJWN8Cyrvdu++m
47joYI58zwIO213qgB6F7d+FfdnkVhfVkwZBIu6MnPh0VRXDOwuewfXXZT01/AEn
OoR2XrqnmvrvUH/wf4zwDFsbiDOo/XWblHqf8jNJZxdo8hFUrFGw6yzWViknHuKq
DfoYb0RPgiKuQLG2dmtjCUQ9L5NM+XTRxhPbJz0=
-----END CERTIFICATE-----
