Certificate:
    Data:
        Version: 3 (0x2)
        Serial Number:
            0a:d7:d3:bf:20:5e:3b:d0:9b:4f:fb:52:5a
        Signature Algorithm: sha256WithRSAEncryption
        Issuer: CN = Test SubCA 2, OU = Test, O = MTG, C = DE
        Validity
            Not Before: Nov  1 08:03:01 2019 GMT
            Not After : Nov  1 08:03:01 2020 GMT
        Subject: OU = Test, O = MTG, L = Darmstadt, ST = Hessen, C = DE, organizationIdentifier = PSDDE-BAFIN-1234567890
        Subject Public Key Info:
            Public Key Algorithm: rsaEncryption
                RSA Public-Key: (2048 bit)
                Modulus:
                    00:c2:0d:81:71:b4:94:05:bc:cf:99:8a:aa:62:08:
                    f2:2e:63:b2:1e:46:f9:2b:85:98:c3:83:d0:ce:26:
                    ad:76:8f:5c:e7:5b:05:20:25:26:32:19:c2:24:8a:
                    ba:69:a3:eb:ca:10:a4:f3:cf:b5:c6:1e:f6:70:58:
                    96:5b:88:52:6a:88:42:33:85:b8:c6:16:48:4f:01:
                    45:39:3f:e1:6a:b9:06:b5:ef:37:db:79:9e:50:90:
                    57:43:5b:8b:c3:35:0d:b3:41:f4:1b:c2:4a:7f:18:
                    3c:39:2d:4f:bf:2b:a5:71:07:73:33:00:e5:8d:36:
                    9e:fe:8f:72:c5:72:56:08:cc:86:b6:ef:ba:e2:fd:
                    9b:5c:c6:2d:94:ed:2d:64:24:77:e6:67:4d:62:db:
                    94:2e:29:8e:dd:1d:7a:ca:bc:68:fb:15:2c:80:56:
                    d3:dd:e7:3a:8f:98:18:14:4b:11:d9:c4:01:1f:b9:
                    7a:d0:d9:ad:69:11:05:f6:0e:ae:5f:fc:cd:c6:b3:
                    cb:4d:ae:8e:45:18:0a:a8:c0:40:11:28:dc:cd:9f:
                    7a:26:67:5a:47:80:9b:d9:4c:f7:da:5f:6d:13:83:
                    1a:91:92:d1:b9:44:f7:72:6b:97:47:74:71:70:80:
                    d3:d6:73:bf:76:33:5c:70:b8:6f:87:37:3e:7e:8e:
                    75:e5
                Exponent: 65537 (0x10001)
        X509v3 extensions:
            X509v3 Authority Key Identifier: 
                keyid:0C:5E:9C:FE:BA:4B:21:6C:04:1D:C2:5A:B7:E3:88:5F:59:DE:4C:12

            X509v3 Subject Key Identifier: 
                0E:6B:AA:83:A9:B2:4D:5C:85:CD:B1:D2:2F:87:F7:20:CB:36:43:3B
            X509v3 Key Usage: critical
                Digital Signature, Key Encipherment
            X509v3 Basic Constraints: critical
                CA:FALSE
            X509v3 Subject Alternative Name: 
                DNS:www.example.com
            Authority Information Access: 
                CA Issuers - URI:http://ca.example.com/ca.crt
                OCSP - URI:http://ocsp.example.com/ocsp

            X509v3 Certificate Policies: 
                Policy: 0.4.0.194112.1.4
                Policy: 0.4.0.19495.3.1

            X509v3 Extended Key Usage: 
                TLS Web Server Authentication, TLS Web Client Authentication
            qcStatements: 
                0..0......F..0......F..0......F...0...+.......0.......I..0e......'.0[0&0.......'....PSP_AI0.......'....PSP_PI.'Federal Financial Supervisory Authority..DE-BAFIN
    Signature Algorithm: sha256WithRSAEncryption
         18:8a:fd:1c:12:9c:e1:92:49:cd:e1:1f:45:63:a4:47:b1:0e:
         7c:83:1c:a7:0f:68:18:bb:62:7c:86:fb:24:ca:19:44:42:57:
         01:11:bd:71:98:ec:28:1e:ff:bb:21:f0:ea:08:f9:88:f2:60:
         58:87:2a:bd:ef:30:06:ea:ac:fb:5b:0b:5a:4b:c7:f2:08:27:
         e9:47:75:d9:91:89:a1:ad:28:3b:dd:16:80:14:d8:fd:b6:58:
         cb:04:27:c7:18:0e:3d:31:ec:ed:67:90:9b:15:14:01:d3:9b:
         20:5c:21:61:d2:e8:a3:7f:40:37:7a:ff:34:36:34:07:51:53:
         f2:11:8d:3b:78:7a:9d:69:a8:a5:77:28:db:30:af:3d:e4:61:
         a9:34:c5:8d:c2:3d:95:9c:e4:ca:de:13:18:4f:c3:48:64:47:
         20:13:65:bb:fa:a5:5e:9e:2e:59:e3:e9:78:e8:61:eb:12:57:
         19:e8:a8:4b:ae:07:ed:e4:a3:e3:96:e9:69:3d:13:13:64:37:
         44:0e:46:1e:ef:8f:04:f8:a1:92:fe:db:b2:0c:71:ca:6c:eb:
         69:8a:ce:a4:d5:0c:93:0b:1a:9d:59:8d:6a:21:32:cf:e4:cd:
         f4:57:22:bd:80:ce:3c:42:36:c1:bb:a4:80:6f:8d:53:4e:c2:
         07:18:b7:a6
-----BEGIN CERTIFICATE-----
MIIFDDCCA/SgAwIBAgINCtfTvyBeO9CbT/tSWjANBgkqhkiG9w0BAQsFADBBMRUw
EwYDVQQDDAxUZXN0IFN1YkNBIDIxDTALBgNVBAsMBFRlc3QxDDAKBgNVBAoMA01U
RzELMAkGA1UEBhMCREUwHhcNMTkxMTAxMDgwMzAxWhcNMjAxMTAxMDgwMzAxWjBw
MQ0wCwYDVQQLDARUZXN0MQwwCgYDVQQKDANNVEcxEjAQBgNVBAcMCURhcm1zdGFk
dDEPMA0GA1UECAwGSGVzc2VuMQswCQYDVQQGEwJERTEfMB0GA1UEYQwWUFNEREUt
QkFGSU4tMTIzNDU2Nzg5MDCCASIwDQYJKoZIhvcNAQEBBQADggEPADCCAQoCggEB
AMINgXG0lAW8z5mKqmII8i5jsh5G+SuFmMOD0M4mrXaPXOdbBSAlJjIZwiSKummj
68oQpPPPtcYe9nBYlluIUmqIQjOFuMYWSE8BRTk/4Wq5BrXvN9t5nlCQV0Nbi8M1
DbNB9BvCSn8YPDktT78rpXEHczMA5Y02nv6PcsVyVgjMhrbvuuL9m1zGLZTtLWQk
d+ZnTWLblC4pjt0desq8aPsVLIBW093nOo+YGBRLEdnEAR+5etDZrWkRBfYOrl/8
zcazy02ujkUYCqjAQBEo3M2feiZnWkeAm9lM99pfbRODGpGS0blE93Jrl0d0cXCA
09Zzv3YzXHC4b4c3Pn6OdeUCAwEAAaOCAdIwggHOMB8GA1UdIwQYMBaAFAxenP66
SyFsBB3CWrfjiF9Z3kwSMB0GA1UdDgQWBBQOa6qDqbJNXIXNsdIvh/cgyzZDOzAO
BgNVHQ8BAf8EBAMCBaAwDAYDVR0TAQH/BAIwADAaBgNVHREEEzARgg93d3cuZXhh
bXBsZS5jb20wYgYIKwYBBQUHAQEEVjBUMCgGCCsGAQUFBzAChhxodHRwOi8vY2Eu
ZXhhbXBsZS5jb20vY2EuY3J0MCgGCCsGAQUFBzABhhxodHRwOi8vb2NzcC5leGFt
cGxlLmNvbS9vY3NwMB8GA1UdIAQYMBYwCQYHBACL7EABBDAJBgcEAIGYJwMBMB0G
A1UdJQQWMBQGCCsGAQUFBwMBBggrBgEFBQcDAjCBrQYIKwYBBQUHAQMEgaAwgZ0w
CAYGBACORgEBMBMGBgQAjkYBBjAJBgcEAI5GAQYDMBUGCCsGAQUFBwsCMAkGBwQA
i+xJAQIwZQYGBACBmCcCMFswJjARBgcEAIGYJwEDDAZQU1BfQUkwEQYHBACBmCcB
AgwGUFNQX1BJDCdGZWRlcmFsIEZpbmFuY2lhbCBTdXBlcnZpc29yeSBBdXRob3Jp
dHkMCERFLUJBRklOMA0GCSqGSIb3DQEBCwUAA4IBAQAYiv0cEpzhkknN4R9FY6RH
sQ58gxynD2gYu2J8hvskyhlEQlcBEb1xmOwoHv+7IfDqCPmI8mBYhyq97zAG6qz7
WwtaS8fyCCfpR3XZkYmhrSg73RaAFNj9tljLBCfHGA49MeztZ5CbFRQB05sgXCFh
0uijf0A3ev80NjQHUVPyEY07eHqdaaildyjbMK895GGpNMWNwj2VnOTK3hMYT8NI
ZEcgE2W7+qVeni5Z4+l46GHrElcZ6KhLrgft5KPjlulpPRMTZDdEDkYe748E+KGS
/tuyDHHKbOtpis6k1QyTCxqdWY1qITLP5M30VyK9gM48QjbBu6SAb41TTsIHGLem
-----END CERTIFICATE-----
