Certificate:
    Data:
        Version: 3 (0x2)
        Serial Number:
            cc:06:ac:1d:dc:b4:98:ba:88:5b:b9:0d
        Signature Algorithm: sha256WithRSAEncryption
        Issuer: CN = Test SubCA 2, OU = Test, O = MTG, C = DE
        Validity
            Not Before: Nov  4 05:52:58 2019 GMT
            Not After : Nov  4 05:52:58 2020 GMT
        Subject: OU = Test, O = MTG, L = Darmstadt, ST = Hessen, C = DE
        Subject Public Key Info:
            Public Key Algorithm: rsaEncryption
                RSA Public-Key: (2048 bit)
                Modulus:
                    00:9d:52:43:fa:16:05:6a:f6:f0:48:8e:08:8d:66:
                    31:2f:28:ff:61:bf:61:d8:af:be:90:f9:03:ed:3f:
                    85:bc:68:ec:49:e1:96:a1:a4:14:14:e3:ff:a7:00:
                    a3:9c:36:3b:ed:e3:5a:15:4f:f9:85:7e:f5:fe:8e:
                    d6:f5:af:90:04:c6:dc:c3:22:89:26:2c:ce:67:e2:
                    d6:56:71:6b:60:19:33:5f:47:d9:9b:6d:40:7b:ee:
                    ae:5c:42:d7:8c:4b:1a:ed:4b:e9:31:ce:84:a8:f8:
                    27:91:59:09:a9:8a:7d:db:8c:f0:52:76:9f:57:24:
                    91:41:18:8e:e4:3d:51:ed:e8:67:c2:dc:92:39:fc:
                    87:64:03:f8:11:95:2b:ff:96:8c:4a:db:49:c2:5e:
                    bd:e8:16:2b:07:79:e2:64:b0:bc:e3:27:4d:db:f5:
                    59:ee:75:ff:60:9c:0b:f2:51:e7:54:c3:a2:06:14:
                    2a:ce:d8:a3:d2:fb:b0:6d:c3:00:74:b8:a1:c4:1d:
                    0d:83:d3:19:d6:8c:bd:e9:7b:65:2d:e3:59:c1:83:
                    f6:0e:b0:35:74:20:ec:59:67:71:7c:37:93:31:37:
                    64:47:75:a1:ab:0a:85:e2:23:94:37:22:69:44:91:
                    ea:86:6a:06:8f:56:89:8f:0b:80:ae:af:8c:9b:5a:
                    89:49
                Exponent: 65537 (0x10001)
        X509v3 extensions:
            X509v3 Authority Key Identifier: 
                keyid:17:B9:3C:44:F5:76:4B:60:42:6D:2C:09:9E:E2:5C:B3:CE:BC:C5:62

            X509v3 Subject Key Identifier: 
                CE:2A:D6:50:67:86:3B:EB:6D:70:81:F9:6B:C6:40:7E:4D:62:75:7D
            X509v3 Key Usage: critical
                Digital Signature, Key Encipherment
            X509v3 Basic Constraints: critical
                CA:FALSE
            X509v3 Subject Alternative Name: 
                DNS:www.example.com
            Authority Information Access: 
                CA Issuers - URI:http://ca.example.com/ca.crt
                OCSP - URI:http://ocsp.example.com/ocsp

            X509v3 Certificate Policies: 
                Policy: 0.4.0.194112.1.2

            X509v3 Extended Key Usage: 
                TLS Web Server Authentication, TLS Web Client Authentication
            qcStatements: 
                0)0......F..0......F..0......F..0......F...
    Signature Algorithm: sha256WithRSAEncryption
         6c:b0:93:8e:b4:c8:81:de:1d:12:73:8e:96:c6:b2:63:86:99:
         43:ac:95:4a:14:ca:19:20:71:31:09:b2:4b:c4:50:56:af:eb:
         76:a8:2a:12:89:70:8a:4c:b6:dd:63:79:45:ca:cb:a7:b9:9a:
         12:1a:05:b2:6c:11:92:67:bb:39:3e:9b:3f:16:c1:e6:be:b6:
         5f:2b:e4:81:d4:2c:77:99:a4:ca:b9:5a:27:d3:4b:d7:25:54:
         ea:fa:1b:36:70:74:72:e5:47:20:36:25:83:1f:57:80:ff:90:
         ef:10:58:e8:a5:7e:6e:93:1c:99:ec:54:df:bd:ff:c2:88:c1:
         a2:83:3c:94:56:82:b2:08:7d:dd:95:98:8e:53:41:d4:d8:7d:
         ac:07:f2:7e:0e:b0:0f:86:28:b1:1a:cf:1c:99:21:b9:c2:1c:
         9c:0e:fa:b3:fd:e9:28:8a:14:ce:f3:fa:93:e1:bf:e4:59:42:
         2b:34:d2:82:7e:03:10:be:89:c0:1a:31:e7:95:89:19:20:22:
         10:3a:d1:c1:b4:86:80:9a:00:1c:8f:9c:54:ff:c2:9d:5b:98:
         25:21:1b:00:5f:dd:8d:dc:3f:11:4a:3e:d9:de:0a:6b:a7:99:
         5f:9f:1e:bd:3c:f9:10:c3:16:f3:00:a4:73:e0:50:bf:3f:01:
         cf:be:b1:24
-----BEGIN CERTIFICATE-----
MIIEaTCCA1GgAwIBAgINAMwGrB3ctJi6iFu5DTANBgkqhkiG9w0BAQsFADBBMRUw
EwYDVQQDDAxUZXN0IFN1YkNBIDIxDTALBgNVBAsMBFRlc3QxDDAKBgNVBAoMA01U
RzELMAkGA1UEBhMCREUwHhcNMTkxMTA0MDU1MjU4WhcNMjAxMTA0MDU1MjU4WjBP
MQ0wCwYDVQQLDARUZXN0MQwwCgYDVQQKDANNVEcxEjAQBgNVBAcMCURhcm1zdGFk
dDEPMA0GA1UECAwGSGVzc2VuMQswCQYDVQQGEwJERTCCASIwDQYJKoZIhvcNAQEB
BQADggEPADCCAQoCggEBAJ1SQ/oWBWr28EiOCI1mMS8o/2G/YdivvpD5A+0/hbxo
7EnhlqGkFBTj/6cAo5w2O+3jWhVP+YV+9f6O1vWvkATG3MMiiSYszmfi1lZxa2AZ
M19H2ZttQHvurlxC14xLGu1L6THOhKj4J5FZCamKfduM8FJ2n1ckkUEYjuQ9Ue3o
Z8Lckjn8h2QD+BGVK/+WjErbScJevegWKwd54mSwvOMnTdv1We51/2CcC/JR51TD
ogYUKs7Yo9L7sG3DAHS4ocQdDYPTGdaMvel7ZS3jWcGD9g6wNXQg7FlncXw3kzE3
ZEd1oasKheIjlDciaUSR6oZqBo9WiY8LgK6vjJtaiUkCAwEAAaOCAVAwggFMMB8G
A1UdIwQYMBaAFBe5PET1dktgQm0sCZ7iXLPOvMViMB0GA1UdDgQWBBTOKtZQZ4Y7
621wgflrxkB+TWJ1fTAOBgNVHQ8BAf8EBAMCBaAwDAYDVR0TAQH/BAIwADAaBgNV
HREEEzARgg93d3cuZXhhbXBsZS5jb20wYgYIKwYBBQUHAQEEVjBUMCgGCCsGAQUF
BzAChhxodHRwOi8vY2EuZXhhbXBsZS5jb20vY2EuY3J0MCgGCCsGAQUFBzABhhxo
dHRwOi8vb2NzcC5leGFtcGxlLmNvbS9vY3NwMBQGA1UdIAQNMAswCQYHBACL7EAB
AjAdBgNVHSUEFjAUBggrBgEFBQcDAQYIKwYBBQUHAwIwNwYIKwYBBQUHAQMEKzAp
MAgGBgQAjkYBATAIBgYEAI5GAQQwEwYGBACORgEGMAkGBwQAjkYBBgEwDQYJKoZI
hvcNAQELBQADggEBAGywk460yIHeHRJzjpbGsmOGmUOslUoUyhkgcTEJskvEUFav
63aoKhKJcIpMtt1jeUXKy6e5mhIaBbJsEZJnuzk+mz8Wwea+tl8r5IHULHeZpMq5
WifTS9clVOr6GzZwdHLlRyA2JYMfV4D/kO8QWOilfm6THJnsVN+9/8KIwaKDPJRW
grIIfd2VmI5TQdTYfawH8n4OsA+GKLEazxyZIbnCHJwO+rP96SiKFM7z+pPhv+RZ
Qis00oJ+AxC+icAaMeeViRkgIhA60cG0hoCaAByPnFT/wp1bmCUhGwBf3Y3cPxFK
PtneCmunmV+fHr08+RDDFvMApHPgUL8/Ac++sSQ=
-----END CERTIFICATE-----
