Certificate:
    Data:
        Version: 3 (0x2)
        Serial Number:
            0c:d7:03:df:cc:28:96:34:d0:5a:04:18:3e
        Signature Algorithm: sha256WithRSAEncryption
        Issuer: CN = Test SubCA 2, OU = Test, O = MTG, C = DE
        Validity
            Not Before: Nov  4 05:52:58 2019 GMT
            Not After : Nov  4 05:52:58 2020 GMT
        Subject: OU = Test, O = MTG, L = Darmstadt, ST = Hessen, C = DE
        Subject Public Key Info:
            Public Key Algorithm: rsaEncryption
                RSA Public-Key: (2048 bit)
                Modulus:
                    00:9d:52:43:fa:16:05:6a:f6:f0:48:8e:08:8d:66:
                    31:2f:28:ff:61:bf:61:d8:af:be:90:f9:03:ed:3f:
                    85:bc:68:ec:49:e1:96:a1:a4:14:14:e3:ff:a7:00:
                    a3:9c:36:3b:ed:e3:5a:15:4f:f9:85:7e:f5:fe:8e:
                    d6:f5:af:90:04:c6:dc:c3:22:89:26:2c:ce:67:e2:
                    d6:56:71:6b:60:19:33:5f:47:d9:9b:6d:40:7b:ee:
                    ae:5c:42:d7:8c:4b:1a:ed:4b:e9:31:ce:84:a8:f8:
                    27:91:59:09:a9:8a:7d:db:8c:f0:52:76:9f:57:24:
                    91:41:18:8e:e4:3d:51:ed:e8:67:c2:dc:92:39:fc:
                    87:64:03:f8:11:95:2b:ff:96:8c:4a:db:49:c2:5e:
                    bd:e8:16:2b:07:79:e2:64:b0:bc:e3:27:4d:db:f5:
                    59:ee:75:ff:60:9c:0b:f2:51:e7:54:c3:a2:06:14:
                    2a:ce:d8:a3:d2:fb:b0:6d:c3:00:74:b8:a1:c4:1d:
                    0d:83:d3:19:d6:8c:bd:e9:7b:65:2d:e3:59:c1:83:
                    f6:0e:b0:35:74:20:ec:59:67:71:7c:37:93:31:37:
                    64:47:75:a1:ab:0a:85:e2:23:94:37:22:69:44:91:
                    ea:86:6a:06:8f:56:89:8f:0b:80:ae:af:8c:9b:5a:
                    89:49
                Exponent: 65537 (0x10001)
        X509v3 extensions:
            X509v3 Authority Key Identifier: 
                keyid:17:B9:3C:44:F5:76:4B:60:42:6D:2C:09:9E:E2:5C:B3:CE:BC:C5:62

            X509v3 Subject Key Identifier: 
                CE:2A:D6:50:67:86:3B:EB:6D:70:81:F9:6B:C6:40:7E:4D:62:75:7D
            X509v3 Key Usage: critical
                Digital Signature, Key Encipherment
            X509v3 Basic Constraints: critical
                CA:FALSE
            X509v3 Subject Alternative Name: 
                DNS:www.example.com
            Authority Information Access: 
                CA Issuers - URI:http://ca.example.com/ca.crt
                OCSP - URI:http://ocsp.example.com/ocsp

            X509v3 Certificate Policies: 
                Policy: 0.4.0.194112.1.2

            X509v3 Extended Key Usage: 
                TLS Web Server Authentication, TLS Web Client Authentication
            qcStatements: 
                0.0......F..0......F..0......F...
    Signature Algorithm: sha256WithRSAEncryption
         7f:aa:ff:ac:ec:88:67:99:5b:98:e4:99:58:24:70:97:9a:46:
         c3:c1:c5:4e:44:b5:fe:92:36:cb:4d:d7:28:5a:e2:a1:a8:70:
         8a:8a:f4:c7:33:91:ff:7a:9b:c8:2d:e0:99:ec:13:f9:d3:e5:
         ae:d2:3f:12:a0:4b:66:66:c7:4b:ed:69:e5:25:66:b4:5c:bb:
         8a:9b:97:52:61:ee:24:e9:0f:6a:08:d5:7b:40:dd:01:b8:3d:
         f2:1d:52:6f:e5:de:b8:a0:c1:c6:2a:ca:bf:5d:ff:8c:90:3f:
         d7:8e:c1:d0:a5:21:fe:c1:0c:fe:78:ef:b0:b8:92:00:b2:3a:
         74:2c:bf:99:41:22:13:2a:aa:e1:9d:1f:01:a6:63:66:a2:b9:
         b3:f1:fa:4c:f0:8e:ff:28:a8:2f:9f:15:d9:f6:21:97:0c:dd:
         e8:cb:84:e8:c9:58:6b:71:ad:26:ab:21:fe:61:41:37:96:6c:
         5c:29:b4:78:8a:80:97:fd:7f:0a:02:40:b7:6f:8c:43:bd:52:
         f7:63:86:01:a6:d2:be:33:e7:63:07:a5:b5:a6:cb:fb:55:ab:
         24:b0:36:19:64:62:04:6a:1f:e6:55:23:11:f4:fe:5b:2a:fd:
         a3:e3:75:c2:e4:e6:22:e0:42:f6:21:b8:a0:24:e4:ec:c5:f5:
         3d:7f:62:44
-----BEGIN CERTIFICATE-----
MIIEXzCCA0egAwIBAgINDNcD38woljTQWgQYPjANBgkqhkiG9w0BAQsFADBBMRUw
EwYDVQQDDAxUZXN0IFN1YkNBIDIxDTALBgNVBAsMBFRlc3QxDDAKBgNVBAoMA01U
RzELMAkGA1UEBhMCREUwHhcNMTkxMTA0MDU1MjU4WhcNMjAxMTA0MDU1MjU4WjBP
MQ0wCwYDVQQLDARUZXN0MQwwCgYDVQQKDANNVEcxEjAQBgNVBAcMCURhcm1zdGFk
dDEPMA0GA1UECAwGSGVzc2VuMQswCQYDVQQGEwJERTCCASIwDQYJKoZIhvcNAQEB
BQADggEPADCCAQoCggEBAJ1SQ/oWBWr28EiOCI1mMS8o/2G/YdivvpD5A+0/hbxo
7EnhlqGkFBTj/6cAo5w2O+3jWhVP+YV+9f6O1vWvkATG3MMiiSYszmfi1lZxa2AZ
M19H2ZttQHvurlxC14xLGu1L6THOhKj4J5FZCamKfduM8FJ2n1ckkUEYjuQ9Ue3o
Z8Lckjn8h2QD+BGVK/+WjErbScJevegWKwd54mSwvOMnTdv1We51/2CcC/JR51TD
ogYUKs7Yo9L7sG3DAHS4ocQdDYPTGdaMvel7ZS3jWcGD9g6wNXQg7FlncXw3kzE3
ZEd1oasKheIjlDciaUSR6oZqBo9WiY8LgK6vjJtaiUkCAwEAAaOCAUYwggFCMB8G
A1UdIwQYMBaAFBe5PET1dktgQm0sCZ7iXLPOvMViMB0GA1UdDgQWBBTOKtZQZ4Y7
621wgflrxkB+TWJ1fTAOBgNVHQ8BAf8EBAMCBaAwDAYDVR0TAQH/BAIwADAaBgNV
HREEEzARgg93d3cuZXhhbXBsZS5jb20wYgYIKwYBBQUHAQEEVjBUMCgGCCsGAQUF
BzAChhxodHRwOi8vY2EuZXhhbXBsZS5jb20vY2EuY3J0MCgGCCsGAQUFBzABhhxo
dHRwOi8vb2NzcC5leGFtcGxlLmNvbS9vY3NwMBQGA1UdIAQNMAswCQYHBACL7EAB
AjAdBgNVHSUEFjAUBggrBgEFBQcDAQYIKwYBBQUHAwIwLQYIKwYBBQUHAQMEITAf
MAgGBgQAjkYBATATBgYEAI5GAQYwCQYHBACORgEGATANBgkqhkiG9w0BAQsFAAOC
AQEAf6r/rOyIZ5lbmOSZWCRwl5pGw8HFTkS1/pI2y03XKFrioahwior0xzOR/3qb
yC3gmewT+dPlrtI/EqBLZmbHS+1p5SVmtFy7ipuXUmHuJOkPagjVe0DdAbg98h1S
b+XeuKDBxirKv13/jJA/147B0KUh/sEM/njvsLiSALI6dCy/mUEiEyqq4Z0fAaZj
ZqK5s/H6TPCO/yioL58V2fYhlwzd6MuE6MlYa3GtJqsh/mFBN5ZsXCm0eIqAl/1/
CgJAt2+MQ71S92OGAabSvjPnYweltabL+1WrJLA2GWRiBGof5lUjEfT+Wyr9o+N1
wuTmIuBC9iG4oCTk7MX1PX9iRA==
-----END CERTIFICATE-----
