Certificate:
    Data:
        Version: 3 (0x2)
        Serial Number:
            03:09:9c:9f:64:9a:cc:f9:8a:f4:ba:3c:ec
        Signature Algorithm: sha256WithRSAEncryption
        Issuer: CN = Test SubCA 2, OU = Test, O = MTG, C = DE
        Validity
            Not Before: Nov 11 07:00:26 2019 GMT
            Not After : Nov 11 07:00:26 2020 GMT
        Subject: CN = www.example.com, OU = Test, O = MTG, L = Darmstadt, ST = Hessen, C = DE
        Subject Public Key Info:
            Public Key Algorithm: rsaEncryption
                RSA Public-Key: (2048 bit)
                Modulus:
                    00:98:94:da:72:b3:a7:8f:b0:8c:32:89:b2:67:f1:
                    d6:ef:b0:56:0a:3b:e8:05:55:24:a8:5f:2a:87:8c:
                    d0:bf:9a:e9:3c:c8:61:3d:2f:34:49:e4:3b:d8:ea:
                    19:47:8c:99:99:2b:42:5b:02:dc:d3:5b:96:4e:cb:
                    f5:0f:0e:f0:70:73:2d:49:cd:ce:8c:65:a4:1d:92:
                    cf:05:f6:67:67:93:ad:b9:1b:1c:e6:e9:3b:fc:53:
                    42:d4:b0:9d:5d:7e:56:4f:fd:d0:bc:2c:ea:be:3d:
                    2d:4d:6e:e8:52:2b:5d:94:24:3c:17:cb:54:4e:61:
                    74:57:6e:be:b7:13:d2:b0:c1:f1:37:f7:74:51:39:
                    d5:4c:ec:6a:af:5b:8c:1a:3e:e3:34:b0:88:15:46:
                    25:a6:4d:9f:5e:36:af:5d:c6:d3:ac:e2:42:85:4c:
                    c7:83:0f:7e:ef:c0:ac:6e:8c:62:f7:20:ae:bc:e1:
                    2c:92:c3:9a:78:be:b9:15:eb:22:33:10:b7:32:20:
                    a5:2d:87:20:9c:68:51:e5:22:f9:88:dc:16:2f:85:
                    ba:aa:f7:c8:bb:ab:8e:04:11:6a:dc:df:08:8f:a7:
                    9f:53:e8:21:10:69:d1:8a:49:f5:4c:26:aa:f9:19:
                    48:af:b4:bd:13:11:88:2f:ca:25:be:58:57:bc:c5:
                    47:ab
                Exponent: 65537 (0x10001)
        X509v3 extensions:
            X509v3 Authority Key Identifier: 
                keyid:E4:1F:AD:99:FF:E4:AF:78:6D:AC:DD:52:33:D8:D2:B7:37:86:E2:97

            X509v3 Subject Key Identifier: 
                77:4E:75:4A:3D:86:F4:83:83:27:55:8C:E9:8D:13:A9:4A:60:F9:C4
            X509v3 Key Usage: critical
                Digital Signature, Key Encipherment
            X509v3 Basic Constraints: critical
                CA:FALSE
            X509v3 Subject Alternative Name: 
                DNS:www.example.com
            Authority Information Access: 
                CA Issuers - URI:http://ca.example.com/ca.crt
                OCSP - URI:http://ocsp.example.com/ocsp

            X509v3 Certificate Policies: 
                Policy: 1.2.3.4.5

            X509v3 Extended Key Usage: 
                TLS Web Server Authentication, TLS Web Client Authentication
            qcStatements: 
                0..0......F..0V.....F..0L0$..http://example.com/en/test.pdf..en0$..http://example.com/de/test.pdf..de0......F..0......F...0V.....F..0L0$..http://example.com/en/test.pdf..en0$..http://example.com/de/test.pdf..de
    Signature Algorithm: sha256WithRSAEncryption
         15:aa:c0:46:3e:29:03:45:7e:cd:dd:96:37:9c:3c:28:d8:98:
         27:37:d0:11:6d:03:75:00:73:d1:f6:95:ee:57:6b:ac:9f:93:
         57:dd:37:1b:6c:e3:62:78:fb:04:04:17:6f:ab:f9:25:ed:e9:
         36:36:d4:35:8c:f7:ea:36:42:9a:cc:10:16:0e:6f:a8:e3:01:
         f6:95:7a:4f:93:9d:fc:fb:7d:34:f8:6d:ac:e0:88:56:8c:99:
         e3:6b:ca:d7:65:96:6b:eb:47:bb:d5:52:5d:66:70:cc:b1:66:
         55:c2:54:08:85:51:d5:8d:76:b9:3b:9b:62:3d:85:cd:a0:72:
         4c:68:ef:33:8f:60:e6:5b:1f:98:9a:ac:86:af:d5:2b:e0:b1:
         87:76:e2:f5:5f:a7:b5:bb:33:34:60:c4:50:c6:5e:17:3c:1a:
         c1:8e:09:b6:a3:9a:5b:95:ff:74:7f:ea:fc:0c:91:ac:1a:a6:
         d7:6b:4b:ef:c4:cb:5e:58:dd:11:11:a6:25:93:0c:68:ed:ad:
         98:64:cd:8b:25:ac:d4:c5:26:fc:e7:92:17:9b:96:16:f9:09:
         73:ae:fa:32:89:83:a4:36:7d:87:b8:03:76:9e:fc:0c:89:32:
         0e:37:75:3b:8a:1b:a5:ae:71:11:47:98:a4:46:fa:f1:d3:81:
         c7:af:4d:85
-----BEGIN CERTIFICATE-----
MIIFKTCCBBGgAwIBAgINAwmcn2SazPmK9Lo87DANBgkqhkiG9w0BAQsFADBBMRUw
EwYDVQQDDAxUZXN0IFN1YkNBIDIxDTALBgNVBAsMBFRlc3QxDDAKBgNVBAoMA01U
RzELMAkGA1UEBhMCREUwHhcNMTkxMTExMDcwMDI2WhcNMjAxMTExMDcwMDI2WjBp
MRgwFgYDVQQDDA93d3cuZXhhbXBsZS5jb20xDTALBgNVBAsMBFRlc3QxDDAKBgNV
BAoMA01URzESMBAGA1UEBwwJRGFybXN0YWR0MQ8wDQYDVQQIDAZIZXNzZW4xCzAJ
BgNVBAYTAkRFMIIBIjANBgkqhkiG9w0BAQEFAAOCAQ8AMIIBCgKCAQEAmJTacrOn
j7CMMomyZ/HW77BWCjvoBVUkqF8qh4zQv5rpPMhhPS80SeQ72OoZR4yZmStCWwLc
01uWTsv1Dw7wcHMtSc3OjGWkHZLPBfZnZ5OtuRsc5uk7/FNC1LCdXX5WT/3QvCzq
vj0tTW7oUitdlCQ8F8tUTmF0V26+txPSsMHxN/d0UTnVTOxqr1uMGj7jNLCIFUYl
pk2fXjavXcbTrOJChUzHgw9+78Csboxi9yCuvOEsksOaeL65FesiMxC3MiClLYcg
nGhR5SL5iNwWL4W6qvfIu6uOBBFq3N8Ij6efU+ghEGnRikn1TCaq+RlIr7S9ExGI
L8olvlhXvMVHqwIDAQABo4IB9jCCAfIwHwYDVR0jBBgwFoAU5B+tmf/kr3htrN1S
M9jStzeG4pcwHQYDVR0OBBYEFHdOdUo9hvSDgydVjOmNE6lKYPnEMA4GA1UdDwEB
/wQEAwIFoDAMBgNVHRMBAf8EAjAAMBoGA1UdEQQTMBGCD3d3dy5leGFtcGxlLmNv
bTBiBggrBgEFBQcBAQRWMFQwKAYIKwYBBQUHMAKGHGh0dHA6Ly9jYS5leGFtcGxl
LmNvbS9jYS5jcnQwKAYIKwYBBQUHMAGGHGh0dHA6Ly9vY3NwLmV4YW1wbGUuY29t
L29jc3AwEQYDVR0gBAowCDAGBgQqAwQFMB0GA1UdJQQWMBQGCCsGAQUFBwMBBggr
BgEFBQcDAjCB3wYIKwYBBQUHAQMEgdIwgc8wCAYGBACORgEBMFYGBgQAjkYBBTBM
MCQWHmh0dHA6Ly9leGFtcGxlLmNvbS9lbi90ZXN0LnBkZhMCZW4wJBYeaHR0cDov
L2V4YW1wbGUuY29tL2RlL3Rlc3QucGRmEwJkZTATBgYEAI5GAQYwCQYHBACORgEG
AzBWBgYEAI5GAQUwTDAkFh5odHRwOi8vZXhhbXBsZS5jb20vZW4vdGVzdC5wZGYT
AmVuMCQWHmh0dHA6Ly9leGFtcGxlLmNvbS9kZS90ZXN0LnBkZhMCZGUwDQYJKoZI
hvcNAQELBQADggEBABWqwEY+KQNFfs3dljecPCjYmCc30BFtA3UAc9H2le5Xa6yf
k1fdNxts42J4+wQEF2+r+SXt6TY21DWM9+o2QprMEBYOb6jjAfaVek+Tnfz7fTT4
bazgiFaMmeNrytdllmvrR7vVUl1mcMyxZlXCVAiFUdWNdrk7m2I9hc2gckxo7zOP
YOZbH5iarIav1SvgsYd24vVfp7W7MzRgxFDGXhc8GsGOCbajmluV/3R/6vwMkawa
ptdrS+/Ey15Y3RERpiWTDGjtrZhkzYslrNTFJvznkheblhb5CXOu+jKJg6Q2fYe4
A3ae/AyJMg43dTuKG6WucRFHmKRG+vHTgcevTYU=
-----END CERTIFICATE-----
