Certificate:
    Data:
        Version: 3 (0x2)
        Serial Number:
            03:1c:76:40:22:97:21:41:b4:85:58:aa:78
        Signature Algorithm: sha256WithRSAEncryption
        Issuer: CN = Test SubCA 2, OU = Test, O = MTG, C = DE
        Validity
            Not Before: Nov  7 03:51:24 2019 GMT
            Not After : Nov  7 03:51:24 2020 GMT
        Subject: OU = Test, O = MTG, L = Darmstadt, ST = Hessen, C = DE
        Subject Public Key Info:
            Public Key Algorithm: rsaEncryption
                RSA Public-Key: (2048 bit)
                Modulus:
                    00:85:02:40:0e:6a:99:49:ca:4f:c3:62:d1:ff:6f:
                    c4:1a:28:17:32:f4:f1:6f:a4:86:5d:5f:08:97:04:
                    c9:b4:89:87:71:7d:51:d2:0f:d8:9c:ff:7e:c3:c0:
                    5c:9c:c4:91:5f:da:f2:f5:a4:c0:90:ac:88:81:eb:
                    ff:b9:ad:8c:5c:1b:31:57:ec:1f:7a:8f:30:96:18:
                    e4:33:14:d1:66:ad:ab:5a:a0:9c:5d:34:4f:84:8e:
                    10:d0:cb:58:b8:d1:91:b1:8d:8e:71:5b:60:97:e6:
                    57:4b:18:d9:8d:1c:ba:2f:f1:c9:61:f7:00:1a:48:
                    c7:a2:3b:d8:f1:9d:ac:3c:bf:fb:08:2e:ac:3b:42:
                    91:21:85:1f:40:82:36:3b:df:b1:d5:b7:f1:51:33:
                    cb:16:c4:6a:38:10:1b:2d:18:2e:e0:c8:cb:46:57:
                    91:74:7d:6c:2b:8b:6f:44:97:ed:b0:a9:41:3d:78:
                    9a:99:a2:fb:70:1f:5b:6b:60:0e:8f:56:ec:ec:6d:
                    e9:40:f6:1a:c2:2f:42:6f:69:29:99:3f:4c:83:eb:
                    a0:9e:02:d7:49:b4:c5:b8:8b:08:4a:d0:aa:db:4d:
                    dd:f0:07:c5:72:70:61:d5:7f:1e:a4:83:b2:5e:2c:
                    79:6f:b1:ed:7b:ce:77:af:38:06:90:d9:ce:2f:11:
                    ec:a3
                Exponent: 65537 (0x10001)
        X509v3 extensions:
            X509v3 Authority Key Identifier: 
                keyid:D6:8F:89:58:16:39:4F:4C:33:95:21:C9:F6:72:F7:1C:EC:5A:AB:FE

            X509v3 Subject Key Identifier: 
                9B:86:2F:05:71:BA:0D:AA:FE:1B:3C:73:8A:DA:F9:66:BA:D6:82:D3
            X509v3 Key Usage: critical
                Digital Signature, Key Encipherment
            X509v3 Basic Constraints: critical
                CA:FALSE
            X509v3 Subject Alternative Name: 
                DNS:www.example.com
            Authority Information Access: 
                CA Issuers - URI:http://ca.example.com/ca.crt
                OCSP - URI:http://ocsp.example.com/ocsp

            X509v3 Extended Key Usage: 
                TLS Web Server Authentication, TLS Web Client Authentication
            qcStatements: 
                0
0......F..
    Signature Algorithm: sha256WithRSAEncryption
         18:a0:cc:f9:06:cf:0d:1b:08:94:97:10:6c:7e:15:83:4a:31:
         53:f6:e7:92:c9:e5:af:18:48:c1:9f:43:36:70:77:0b:89:12:
         ed:2e:03:28:a6:f6:ca:4d:1b:77:94:3f:6f:22:1a:30:3c:6e:
         47:e4:ec:f7:65:11:52:ff:f6:f2:be:f3:cf:e8:d4:0d:9d:47:
         f2:64:a2:78:d7:e7:7e:eb:38:c4:b8:2b:54:44:82:9a:d4:92:
         35:fa:02:75:79:ef:32:bb:a8:e2:f2:09:c0:e8:1a:83:34:73:
         48:a7:17:35:e9:90:7b:98:9a:03:41:11:a5:51:cf:78:1b:22:
         05:89:85:e8:32:18:1f:88:0c:08:5e:bd:65:63:43:43:a8:d2:
         57:95:8f:e9:52:73:e2:f3:9a:7b:e2:dc:2d:15:8b:11:8a:41:
         b8:19:0a:f9:29:d8:12:71:37:ad:d0:fb:3b:d0:ff:9f:07:cb:
         40:11:29:7a:ec:43:a2:b5:90:99:f2:39:e6:2e:a1:30:0d:e0:
         53:76:18:b6:e1:5b:c9:d8:71:d6:f1:7e:d8:92:b5:0b:28:aa:
         7b:fe:55:cd:7c:2f:ed:12:ba:3c:b4:73:3b:51:97:84:53:58:
         7c:cd:84:9b:2d:3d:2a:02:b6:7c:5e:7b:c2:07:33:56:ab:82:
         e9:07:06:15
-----BEGIN CERTIFICATE-----
MIIENDCCAxygAwIBAgINAxx2QCKXIUG0hViqeDANBgkqhkiG9w0BAQsFADBBMRUw
EwYDVQQDDAxUZXN0IFN1YkNBIDIxDTALBgNVBAsMBFRlc3QxDDAKBgNVBAoMA01U
RzELMAkGA1UEBhMCREUwHhcNMTkxMTA3MDM1MTI0WhcNMjAxMTA3MDM1MTI0WjBP
MQ0wCwYDVQQLDARUZXN0MQwwCgYDVQQKDANNVEcxEjAQBgNVBAcMCURhcm1zdGFk
dDEPMA0GA1UECAwGSGVzc2VuMQswCQYDVQQGEwJERTCCASIwDQYJKoZIhvcNAQEB
BQADggEPADCCAQoCggEBAIUCQA5qmUnKT8Ni0f9vxBooFzL08W+khl1fCJcEybSJ
h3F9UdIP2Jz/fsPAXJzEkV/a8vWkwJCsiIHr/7mtjFwbMVfsH3qPMJYY5DMU0Wat
q1qgnF00T4SOENDLWLjRkbGNjnFbYJfmV0sY2Y0cui/xyWH3ABpIx6I72PGdrDy/
+wgurDtCkSGFH0CCNjvfsdW38VEzyxbEajgQGy0YLuDIy0ZXkXR9bCuLb0SX7bCp
QT14mpmi+3AfW2tgDo9W7Oxt6UD2GsIvQm9pKZk/TIProJ4C10m0xbiLCErQqttN
3fAHxXJwYdV/HqSDsl4seW+x7XvOd684BpDZzi8R7KMCAwEAAaOCARswggEXMB8G
A1UdIwQYMBaAFNaPiVgWOU9MM5UhyfZy9xzsWqv+MB0GA1UdDgQWBBSbhi8FcboN
qv4bPHOK2vlmutaC0zAOBgNVHQ8BAf8EBAMCBaAwDAYDVR0TAQH/BAIwADAaBgNV
HREEEzARgg93d3cuZXhhbXBsZS5jb20wYgYIKwYBBQUHAQEEVjBUMCgGCCsGAQUF
BzAChhxodHRwOi8vY2EuZXhhbXBsZS5jb20vY2EuY3J0MCgGCCsGAQUFBzABhhxo
dHRwOi8vb2NzcC5leGFtcGxlLmNvbS9vY3NwMB0GA1UdJQQWMBQGCCsGAQUFBwMB
BggrBgEFBQcDAjAYBggrBgEFBQcBAwQMMAowCAYGBACORgEBMA0GCSqGSIb3DQEB
CwUAA4IBAQAYoMz5Bs8NGwiUlxBsfhWDSjFT9ueSyeWvGEjBn0M2cHcLiRLtLgMo
pvbKTRt3lD9vIhowPG5H5Oz3ZRFS//byvvPP6NQNnUfyZKJ41+d+6zjEuCtURIKa
1JI1+gJ1ee8yu6ji8gnA6BqDNHNIpxc16ZB7mJoDQRGlUc94GyIFiYXoMhgfiAwI
Xr1lY0NDqNJXlY/pUnPi85p74twtFYsRikG4GQr5KdgScTet0Ps70P+fB8tAESl6
7EOitZCZ8jnmLqEwDeBTdhi24VvJ2HHW8X7YkrULKKp7/lXNfC/tEro8tHM7UZeE
U1h8zYSbLT0qArZ8XnvCBzNWq4LpBwYV
-----END CERTIFICATE-----
