Certificate:
    Data:
        Version: 3 (0x2)
        Serial Number:
            06:05:99:f3:6e:27:11:1a:b8:2f:e5:b5:bc
        Signature Algorithm: sha256WithRSAEncryption
        Issuer: CN = Test SubCA 2, OU = Test, O = MTG, C = DE
        Validity
            Not Before: Nov  4 05:52:58 2019 GMT
            Not After : Nov  4 05:52:58 2020 GMT
        Subject: OU = Test, O = MTG, L = Darmstadt, ST = Hessen, C = DE
        Subject Public Key Info:
            Public Key Algorithm: rsaEncryption
                RSA Public-Key: (2048 bit)
                Modulus:
                    00:9d:52:43:fa:16:05:6a:f6:f0:48:8e:08:8d:66:
                    31:2f:28:ff:61:bf:61:d8:af:be:90:f9:03:ed:3f:
                    85:bc:68:ec:49:e1:96:a1:a4:14:14:e3:ff:a7:00:
                    a3:9c:36:3b:ed:e3:5a:15:4f:f9:85:7e:f5:fe:8e:
                    d6:f5:af:90:04:c6:dc:c3:22:89:26:2c:ce:67:e2:
                    d6:56:71:6b:60:19:33:5f:47:d9:9b:6d:40:7b:ee:
                    ae:5c:42:d7:8c:4b:1a:ed:4b:e9:31:ce:84:a8:f8:
                    27:91:59:09:a9:8a:7d:db:8c:f0:52:76:9f:57:24:
                    91:41:18:8e:e4:3d:51:ed:e8:67:c2:dc:92:39:fc:
                    87:64:03:f8:11:95:2b:ff:96:8c:4a:db:49:c2:5e:
                    bd:e8:16:2b:07:79:e2:64:b0:bc:e3:27:4d:db:f5:
                    59:ee:75:ff:60:9c:0b:f2:51:e7:54:c3:a2:06:14:
                    2a:ce:d8:a3:d2:fb:b0:6d:c3:00:74:b8:a1:c4:1d:
                    0d:83:d3:19:d6:8c:bd:e9:7b:65:2d:e3:59:c1:83:
                    f6:0e:b0:35:74:20:ec:59:67:71:7c:37:93:31:37:
                    64:47:75:a1:ab:0a:85:e2:23:94:37:22:69:44:91:
                    ea:86:6a:06:8f:56:89:8f:0b:80:ae:af:8c:9b:5a:
                    89:49
                Exponent: 65537 (0x10001)
        X509v3 extensions:
            X509v3 Authority Key Identifier: 
                keyid:17:B9:3C:44:F5:76:4B:60:42:6D:2C:09:9E:E2:5C:B3:CE:BC:C5:62

            X509v3 Subject Key Identifier: 
                CE:2A:D6:50:67:86:3B:EB:6D:70:81:F9:6B:C6:40:7E:4D:62:75:7D
            X509v3 Key Usage: critical
                Digital Signature, Key Encipherment
            X509v3 Basic Constraints: critical
                CA:FALSE
            X509v3 Subject Alternative Name: 
                DNS:www.example.com
            Authority Information Access: 
                CA Issuers - URI:http://ca.example.com/ca.crt
                OCSP - URI:http://ocsp.example.com/ocsp

            X509v3 Certificate Policies: 
                Policy: 0.4.0.194112.1.1

            X509v3 Extended Key Usage: 
                TLS Web Server Authentication, TLS Web Client Authentication
            qcStatements: 
                0.0......F..0......F..0......F...
    Signature Algorithm: sha256WithRSAEncryption
         4e:c6:83:83:fb:de:45:db:b0:7e:f9:ab:0d:54:67:47:f3:3e:
         af:39:b2:91:58:4b:7c:04:ab:f3:fc:67:19:56:94:b6:a4:44:
         5f:cf:ee:cd:11:48:f0:37:f9:85:49:84:01:c6:be:d4:01:92:
         3b:ce:8c:e9:99:ca:cf:fa:88:6c:b3:9a:52:69:ff:1d:d0:18:
         32:e7:62:a0:ec:80:0b:8a:55:0d:e2:81:3e:dc:6d:e3:87:77:
         3b:b8:cf:92:51:79:de:f6:f2:40:e2:aa:fc:35:f0:fa:07:58:
         99:b6:60:65:e0:9f:fd:6b:db:6c:9c:a6:51:33:f2:4a:d8:68:
         bf:4a:24:55:f3:9e:6f:b5:2e:b7:2b:9e:39:0b:6f:9c:0b:3b:
         f8:fe:7f:7d:34:de:6d:52:26:34:53:fc:8e:b9:ac:6b:ee:2a:
         fd:00:4c:dc:e9:e1:0b:cc:f1:fe:50:cd:61:e1:75:a5:a2:df:
         e7:e5:7b:94:a1:c0:b3:92:5d:d7:9c:35:f0:21:84:35:6e:33:
         49:71:a0:60:03:5d:e1:bf:61:ae:e6:8d:9f:ed:08:04:3f:ca:
         b2:12:ab:88:c9:fb:12:5f:71:f7:66:8c:80:e4:11:1f:62:b4:
         02:11:2f:80:d2:2d:d3:0e:59:f0:52:bc:35:7d:bf:42:6f:29:
         8c:04:48:f7
-----BEGIN CERTIFICATE-----
MIIEXzCCA0egAwIBAgINBgWZ824nERq4L+W1vDANBgkqhkiG9w0BAQsFADBBMRUw
EwYDVQQDDAxUZXN0IFN1YkNBIDIxDTALBgNVBAsMBFRlc3QxDDAKBgNVBAoMA01U
RzELMAkGA1UEBhMCREUwHhcNMTkxMTA0MDU1MjU4WhcNMjAxMTA0MDU1MjU4WjBP
MQ0wCwYDVQQLDARUZXN0MQwwCgYDVQQKDANNVEcxEjAQBgNVBAcMCURhcm1zdGFk
dDEPMA0GA1UECAwGSGVzc2VuMQswCQYDVQQGEwJERTCCASIwDQYJKoZIhvcNAQEB
BQADggEPADCCAQoCggEBAJ1SQ/oWBWr28EiOCI1mMS8o/2G/YdivvpD5A+0/hbxo
7EnhlqGkFBTj/6cAo5w2O+3jWhVP+YV+9f6O1vWvkATG3MMiiSYszmfi1lZxa2AZ
M19H2ZttQHvurlxC14xLGu1L6THOhKj4J5FZCamKfduM8FJ2n1ckkUEYjuQ9Ue3o
Z8Lckjn8h2QD+BGVK/+WjErbScJevegWKwd54mSwvOMnTdv1We51/2CcC/JR51TD
ogYUKs7Yo9L7sG3DAHS4ocQdDYPTGdaMvel7ZS3jWcGD9g6wNXQg7FlncXw3kzE3
ZEd1oasKheIjlDciaUSR6oZqBo9WiY8LgK6vjJtaiUkCAwEAAaOCAUYwggFCMB8G
A1UdIwQYMBaAFBe5PET1dktgQm0sCZ7iXLPOvMViMB0GA1UdDgQWBBTOKtZQZ4Y7
621wgflrxkB+TWJ1fTAOBgNVHQ8BAf8EBAMCBaAwDAYDVR0TAQH/BAIwADAaBgNV
HREEEzARgg93d3cuZXhhbXBsZS5jb20wYgYIKwYBBQUHAQEEVjBUMCgGCCsGAQUF
BzAChhxodHRwOi8vY2EuZXhhbXBsZS5jb20vY2EuY3J0MCgGCCsGAQUFBzABhhxo
dHRwOi8vb2NzcC5leGFtcGxlLmNvbS9vY3NwMBQGA1UdIAQNMAswCQYHBACL7EAB
ATAdBgNVHSUEFjAUBggrBgEFBQcDAQYIKwYBBQUHAwIwLQYIKwYBBQUHAQMEITAf
MAgGBgQAjkYBATATBgYEAI5GAQYwCQYHBACORgEGAzANBgkqhkiG9w0BAQsFAAOC
AQEATsaDg/veRduwfvmrDVRnR/M+rzmykVhLfASr8/xnGVaUtqREX8/uzRFI8Df5
hUmEAca+1AGSO86M6ZnKz/qIbLOaUmn/HdAYMudioOyAC4pVDeKBPtxt44d3O7jP
klF53vbyQOKq/DXw+gdYmbZgZeCf/WvbbJymUTPySthov0okVfOeb7UutyueOQtv
nAs7+P5/fTTebVImNFP8jrmsa+4q/QBM3OnhC8zx/lDNYeF1paLf5+V7lKHAs5Jd
15w18CGENW4zSXGgYANd4b9hruaNn+0IBD/KshKriMn7El9x92aMgOQRH2K0AhEv
gNIt0w5Z8FK8NX2/Qm8pjARI9w==
-----END CERTIFICATE-----
