Certificate:
    Data:
        Version: 3 (0x2)
        Serial Number:
            01:60:f1:2e:b2:29:9c:29:88:33:db:4c:43
        Signature Algorithm: sha256WithRSAEncryption
        Issuer: CN = Test SubCA 2, OU = Test, O = MTG, C = DE
        Validity
            Not Before: Nov  1 08:03:00 2019 GMT
            Not After : Nov  1 08:03:00 2020 GMT
        Subject: O = MTG, OU = Test, L = Darmstadt, ST = Hessen, C = DE, organizationIdentifier = LEIXG-1234-1234
        Subject Public Key Info:
            Public Key Algorithm: rsaEncryption
                RSA Public-Key: (2048 bit)
                Modulus:
                    00:c2:0d:81:71:b4:94:05:bc:cf:99:8a:aa:62:08:
                    f2:2e:63:b2:1e:46:f9:2b:85:98:c3:83:d0:ce:26:
                    ad:76:8f:5c:e7:5b:05:20:25:26:32:19:c2:24:8a:
                    ba:69:a3:eb:ca:10:a4:f3:cf:b5:c6:1e:f6:70:58:
                    96:5b:88:52:6a:88:42:33:85:b8:c6:16:48:4f:01:
                    45:39:3f:e1:6a:b9:06:b5:ef:37:db:79:9e:50:90:
                    57:43:5b:8b:c3:35:0d:b3:41:f4:1b:c2:4a:7f:18:
                    3c:39:2d:4f:bf:2b:a5:71:07:73:33:00:e5:8d:36:
                    9e:fe:8f:72:c5:72:56:08:cc:86:b6:ef:ba:e2:fd:
                    9b:5c:c6:2d:94:ed:2d:64:24:77:e6:67:4d:62:db:
                    94:2e:29:8e:dd:1d:7a:ca:bc:68:fb:15:2c:80:56:
                    d3:dd:e7:3a:8f:98:18:14:4b:11:d9:c4:01:1f:b9:
                    7a:d0:d9:ad:69:11:05:f6:0e:ae:5f:fc:cd:c6:b3:
                    cb:4d:ae:8e:45:18:0a:a8:c0:40:11:28:dc:cd:9f:
                    7a:26:67:5a:47:80:9b:d9:4c:f7:da:5f:6d:13:83:
                    1a:91:92:d1:b9:44:f7:72:6b:97:47:74:71:70:80:
                    d3:d6:73:bf:76:33:5c:70:b8:6f:87:37:3e:7e:8e:
                    75:e5
                Exponent: 65537 (0x10001)
        X509v3 extensions:
            X509v3 Authority Key Identifier: 
                keyid:0C:5E:9C:FE:BA:4B:21:6C:04:1D:C2:5A:B7:E3:88:5F:59:DE:4C:12

            X509v3 Subject Key Identifier: 
                0E:6B:AA:83:A9:B2:4D:5C:85:CD:B1:D2:2F:87:F7:20:CB:36:43:3B
            X509v3 Key Usage: critical
                Digital Signature, Key Encipherment
            X509v3 Basic Constraints: critical
                CA:FALSE
            X509v3 Subject Alternative Name: 
                DNS:www.example.com
            Authority Information Access: 
                CA Issuers - URI:http://ca.example.com/ca.crt
                OCSP - URI:http://ocsp.example.com/ocsp

            X509v3 Certificate Policies: 
                Policy: 0.4.0.194112.1.4
                Policy: 0.4.0.19495.3.1

            X509v3 Extended Key Usage: 
                TLS Web Server Authentication, TLS Web Client Authentication
            qcStatements: 
                0..0......F..0......F..0......F...0...+.......0.......I..0O......'.0E0.0.......'....PSP_IC.'Federal Financial Supervisory Authority..ES-BE
    Signature Algorithm: sha256WithRSAEncryption
         23:13:cc:09:bd:54:53:65:d8:45:12:59:e4:96:dd:88:4c:bb:
         87:5b:f7:e9:70:e6:b5:17:73:22:6e:e6:61:25:42:a8:e4:39:
         8a:48:70:27:3e:8e:63:c7:b2:7c:a3:b3:39:4b:aa:21:f5:46:
         cf:6e:d4:b7:d1:42:43:e4:2b:fa:85:f7:3d:80:c8:6d:2d:b3:
         4d:c8:f5:d0:b4:b3:b4:5d:fb:74:0c:95:42:b9:60:2b:39:70:
         5a:33:19:c0:14:f1:f4:34:ed:9a:d5:15:1d:89:a3:f7:88:04:
         1d:90:ea:29:ad:fe:38:e1:6c:02:7a:d1:a2:43:6f:2a:23:2f:
         23:6f:af:d4:c4:5a:af:7a:29:3f:98:28:c0:a5:68:db:d6:6a:
         44:41:92:fc:7c:3a:d7:17:ad:55:b2:c4:15:62:fa:e5:2b:32:
         bf:8b:00:5c:09:b8:23:05:3c:f0:7c:ad:09:6e:3f:76:e0:dd:
         36:ce:2a:15:93:3e:75:71:7c:16:5b:e9:b3:97:9e:af:6f:3e:
         5f:82:79:53:3a:41:00:a0:86:dc:b6:75:a9:5d:a3:6e:25:68:
         b6:40:ea:01:dd:3d:df:fd:7b:ec:ff:d2:63:e5:e3:05:16:d8:
         d6:1c:2f:b5:e0:44:29:d9:0f:3f:08:a9:43:23:c3:87:5b:f8:
         93:54:c6:0f
-----BEGIN CERTIFICATE-----
MIIE7zCCA9egAwIBAgINAWDxLrIpnCmIM9tMQzANBgkqhkiG9w0BAQsFADBBMRUw
EwYDVQQDDAxUZXN0IFN1YkNBIDIxDTALBgNVBAsMBFRlc3QxDDAKBgNVBAoMA01U
RzELMAkGA1UEBhMCREUwHhcNMTkxMTAxMDgwMzAwWhcNMjAxMTAxMDgwMzAwWjBp
MQwwCgYDVQQKDANNVEcxDTALBgNVBAsMBFRlc3QxEjAQBgNVBAcMCURhcm1zdGFk
dDEPMA0GA1UECAwGSGVzc2VuMQswCQYDVQQGEwJERTEYMBYGA1UEYQwPTEVJWEct
MTIzNC0xMjM0MIIBIjANBgkqhkiG9w0BAQEFAAOCAQ8AMIIBCgKCAQEAwg2BcbSU
BbzPmYqqYgjyLmOyHkb5K4WYw4PQziatdo9c51sFICUmMhnCJIq6aaPryhCk88+1
xh72cFiWW4hSaohCM4W4xhZITwFFOT/harkGte8323meUJBXQ1uLwzUNs0H0G8JK
fxg8OS1PvyulcQdzMwDljTae/o9yxXJWCMyGtu+64v2bXMYtlO0tZCR35mdNYtuU
LimO3R16yrxo+xUsgFbT3ec6j5gYFEsR2cQBH7l60NmtaREF9g6uX/zNxrPLTa6O
RRgKqMBAESjczZ96JmdaR4Cb2Uz32l9tE4MakZLRuUT3cmuXR3RxcIDT1nO/djNc
cLhvhzc+fo515QIDAQABo4IBvDCCAbgwHwYDVR0jBBgwFoAUDF6c/rpLIWwEHcJa
t+OIX1neTBIwHQYDVR0OBBYEFA5rqoOpsk1chc2x0i+H9yDLNkM7MA4GA1UdDwEB
/wQEAwIFoDAMBgNVHRMBAf8EAjAAMBoGA1UdEQQTMBGCD3d3dy5leGFtcGxlLmNv
bTBiBggrBgEFBQcBAQRWMFQwKAYIKwYBBQUHMAKGHGh0dHA6Ly9jYS5leGFtcGxl
LmNvbS9jYS5jcnQwKAYIKwYBBQUHMAGGHGh0dHA6Ly9vY3NwLmV4YW1wbGUuY29t
L29jc3AwHwYDVR0gBBgwFjAJBgcEAIvsQAEEMAkGBwQAgZgnAwEwHQYDVR0lBBYw
FAYIKwYBBQUHAwEGCCsGAQUFBwMCMIGXBggrBgEFBQcBAwSBijCBhzAIBgYEAI5G
AQEwEwYGBACORgEGMAkGBwQAjkYBBgMwFQYIKwYBBQUHCwIwCQYHBACL7EkBAjBP
BgYEAIGYJwIwRTATMBEGBwQAgZgnAQQMBlBTUF9JQwwnRmVkZXJhbCBGaW5hbmNp
YWwgU3VwZXJ2aXNvcnkgQXV0aG9yaXR5DAVFUy1CRTANBgkqhkiG9w0BAQsFAAOC
AQEAIxPMCb1UU2XYRRJZ5JbdiEy7h1v36XDmtRdzIm7mYSVCqOQ5ikhwJz6OY8ey
fKOzOUuqIfVGz27Ut9FCQ+Qr+oX3PYDIbS2zTcj10LSztF37dAyVQrlgKzlwWjMZ
wBTx9DTtmtUVHYmj94gEHZDqKa3+OOFsAnrRokNvKiMvI2+v1MRar3opP5gowKVo
29ZqREGS/Hw61xetVbLEFWL65Ssyv4sAXAm4IwU88HytCW4/duDdNs4qFZM+dXF8
Flvps5eer28+X4J5UzpBAKCG3LZ1qV2jbiVotkDqAd093/177P/SY+XjBRbY1hwv
teBEKdkPPwipQyPDh1v4k1TGDw==
-----END CERTIFICATE-----
