Certificate:
    Data:
        Version: 3 (0x2)
        Serial Number:
            09:3a:19:54:ae:4a:cd:ca:65:12:aa:1f:46
        Signature Algorithm: sha256WithRSAEncryption
        Issuer: CN = Test SubCA 2, OU = Test, O = MTG, C = DE
        Validity
            Not Before: Nov  1 08:03:01 2019 GMT
            Not After : Nov  1 08:03:01 2020 GMT
        Subject: O = MTG, OU = Test, L = Darmstadt, ST = Hessen, C = DE, organizationIdentifier = ABCDE-1234567890
        Subject Public Key Info:
            Public Key Algorithm: rsaEncryption
                RSA Public-Key: (2048 bit)
                Modulus:
                    00:c2:0d:81:71:b4:94:05:bc:cf:99:8a:aa:62:08:
                    f2:2e:63:b2:1e:46:f9:2b:85:98:c3:83:d0:ce:26:
                    ad:76:8f:5c:e7:5b:05:20:25:26:32:19:c2:24:8a:
                    ba:69:a3:eb:ca:10:a4:f3:cf:b5:c6:1e:f6:70:58:
                    96:5b:88:52:6a:88:42:33:85:b8:c6:16:48:4f:01:
                    45:39:3f:e1:6a:b9:06:b5:ef:37:db:79:9e:50:90:
                    57:43:5b:8b:c3:35:0d:b3:41:f4:1b:c2:4a:7f:18:
                    3c:39:2d:4f:bf:2b:a5:71:07:73:33:00:e5:8d:36:
                    9e:fe:8f:72:c5:72:56:08:cc:86:b6:ef:ba:e2:fd:
                    9b:5c:c6:2d:94:ed:2d:64:24:77:e6:67:4d:62:db:
                    94:2e:29:8e:dd:1d:7a:ca:bc:68:fb:15:2c:80:56:
                    d3:dd:e7:3a:8f:98:18:14:4b:11:d9:c4:01:1f:b9:
                    7a:d0:d9:ad:69:11:05:f6:0e:ae:5f:fc:cd:c6:b3:
                    cb:4d:ae:8e:45:18:0a:a8:c0:40:11:28:dc:cd:9f:
                    7a:26:67:5a:47:80:9b:d9:4c:f7:da:5f:6d:13:83:
                    1a:91:92:d1:b9:44:f7:72:6b:97:47:74:71:70:80:
                    d3:d6:73:bf:76:33:5c:70:b8:6f:87:37:3e:7e:8e:
                    75:e5
                Exponent: 65537 (0x10001)
        X509v3 extensions:
            X509v3 Authority Key Identifier: 
                keyid:0C:5E:9C:FE:BA:4B:21:6C:04:1D:C2:5A:B7:E3:88:5F:59:DE:4C:12

            X509v3 Subject Key Identifier: 
                0E:6B:AA:83:A9:B2:4D:5C:85:CD:B1:D2:2F:87:F7:20:CB:36:43:3B
            X509v3 Key Usage: critical
                Digital Signature, Key Encipherment
            X509v3 Basic Constraints: critical
                CA:FALSE
            X509v3 Subject Alternative Name: 
                DNS:www.example.com
            Authority Information Access: 
                CA Issuers - URI:http://ca.example.com/ca.crt
                OCSP - URI:http://ocsp.example.com/ocsp

            X509v3 Certificate Policies: 
                Policy: 0.4.0.194112.1.4
                Policy: 0.4.0.19495.3.1

            X509v3 Extended Key Usage: 
                TLS Web Server Authentication, TLS Web Client Authentication
            qcStatements: 
                0..0......F..0......F..0......F...0...+.......0.......I..0R......'.0H0.0.......'....PSP_IC.'Federal Financial Supervisory Authority..DE-BAFIN
    Signature Algorithm: sha256WithRSAEncryption
         1b:41:ff:37:0c:55:a7:50:b1:d0:fd:d9:39:64:8a:27:b8:2c:
         fe:ab:61:71:61:1f:20:8f:6e:ef:32:b5:15:22:b9:f3:24:01:
         03:6d:f5:97:bb:54:15:a2:38:09:02:45:56:31:49:95:9d:7e:
         1e:98:61:d5:c1:bb:d6:1a:42:11:37:3d:83:cf:29:e0:09:5e:
         46:0a:42:1e:88:32:90:f7:4d:de:b6:f0:92:ca:b3:2b:c6:45:
         09:e1:99:13:1a:01:5f:dc:57:07:47:6d:77:26:eb:a7:e6:c1:
         a6:7c:fa:0d:28:d5:e0:e6:1b:29:d0:f1:a5:06:f3:ef:76:34:
         2c:32:a6:a5:9e:96:b5:f0:eb:55:2f:77:61:77:a5:6e:68:ba:
         fc:d6:ef:ea:87:69:75:da:6b:71:33:cd:fe:19:6d:27:99:c9:
         e8:77:cf:fb:4b:99:f6:05:3e:a0:fd:a8:56:53:9b:91:d4:90:
         05:c8:17:55:10:b4:4e:74:34:86:eb:cd:0a:04:6c:69:72:f3:
         9c:c0:53:85:aa:8b:19:7c:84:e2:49:37:32:56:8a:63:0a:27:
         50:d6:cf:e2:25:21:c0:07:67:cd:8c:02:c3:88:46:f3:63:a5:
         48:93:93:70:eb:6f:d7:6e:6c:fe:2a:6e:cd:b8:46:43:54:77:
         f7:4e:1c:51
-----BEGIN CERTIFICATE-----
MIIE8zCCA9ugAwIBAgINCToZVK5KzcplEqofRjANBgkqhkiG9w0BAQsFADBBMRUw
EwYDVQQDDAxUZXN0IFN1YkNBIDIxDTALBgNVBAsMBFRlc3QxDDAKBgNVBAoMA01U
RzELMAkGA1UEBhMCREUwHhcNMTkxMTAxMDgwMzAxWhcNMjAxMTAxMDgwMzAxWjBq
MQwwCgYDVQQKDANNVEcxDTALBgNVBAsMBFRlc3QxEjAQBgNVBAcMCURhcm1zdGFk
dDEPMA0GA1UECAwGSGVzc2VuMQswCQYDVQQGEwJERTEZMBcGA1UEYQwQQUJDREUt
MTIzNDU2Nzg5MDCCASIwDQYJKoZIhvcNAQEBBQADggEPADCCAQoCggEBAMINgXG0
lAW8z5mKqmII8i5jsh5G+SuFmMOD0M4mrXaPXOdbBSAlJjIZwiSKummj68oQpPPP
tcYe9nBYlluIUmqIQjOFuMYWSE8BRTk/4Wq5BrXvN9t5nlCQV0Nbi8M1DbNB9BvC
Sn8YPDktT78rpXEHczMA5Y02nv6PcsVyVgjMhrbvuuL9m1zGLZTtLWQkd+ZnTWLb
lC4pjt0desq8aPsVLIBW093nOo+YGBRLEdnEAR+5etDZrWkRBfYOrl/8zcazy02u
jkUYCqjAQBEo3M2feiZnWkeAm9lM99pfbRODGpGS0blE93Jrl0d0cXCA09Zzv3Yz
XHC4b4c3Pn6OdeUCAwEAAaOCAb8wggG7MB8GA1UdIwQYMBaAFAxenP66SyFsBB3C
WrfjiF9Z3kwSMB0GA1UdDgQWBBQOa6qDqbJNXIXNsdIvh/cgyzZDOzAOBgNVHQ8B
Af8EBAMCBaAwDAYDVR0TAQH/BAIwADAaBgNVHREEEzARgg93d3cuZXhhbXBsZS5j
b20wYgYIKwYBBQUHAQEEVjBUMCgGCCsGAQUFBzAChhxodHRwOi8vY2EuZXhhbXBs
ZS5jb20vY2EuY3J0MCgGCCsGAQUFBzABhhxodHRwOi8vb2NzcC5leGFtcGxlLmNv
bS9vY3NwMB8GA1UdIAQYMBYwCQYHBACL7EABBDAJBgcEAIGYJwMBMB0GA1UdJQQW
MBQGCCsGAQUFBwMBBggrBgEFBQcDAjCBmgYIKwYBBQUHAQMEgY0wgYowCAYGBACO
RgEBMBMGBgQAjkYBBjAJBgcEAI5GAQYDMBUGCCsGAQUFBwsCMAkGBwQAi+xJAQIw
UgYGBACBmCcCMEgwEzARBgcEAIGYJwEEDAZQU1BfSUMMJ0ZlZGVyYWwgRmluYW5j
aWFsIFN1cGVydmlzb3J5IEF1dGhvcml0eQwIREUtQkFGSU4wDQYJKoZIhvcNAQEL
BQADggEBABtB/zcMVadQsdD92Tlkiie4LP6rYXFhHyCPbu8ytRUiufMkAQNt9Ze7
VBWiOAkCRVYxSZWdfh6YYdXBu9YaQhE3PYPPKeAJXkYKQh6IMpD3Td628JLKsyvG
RQnhmRMaAV/cVwdHbXcm66fmwaZ8+g0o1eDmGynQ8aUG8+92NCwypqWelrXw61Uv
d2F3pW5ouvzW7+qHaXXaa3Ezzf4ZbSeZyeh3z/tLmfYFPqD9qFZTm5HUkAXIF1UQ
tE50NIbrzQoEbGly85zAU4Wqixl8hOJJNzJWimMKJ1DWz+IlIcAHZ82MAsOIRvNj
pUiTk3Drb9dubP4qbs24RkNUd/dOHFE=
-----END CERTIFICATE-----
