Certificate:
    Data:
        Version: 3 (0x2)
        Serial Number:
            06:c1:18:ed:42:69:ad:4d:65:5d:09:ce:6a
        Signature Algorithm: sha256WithRSAEncryption
        Issuer: CN = Test SubCA 2, OU = Test, O = MTG, C = DE
        Validity
            Not Before: Nov  4 05:52:58 2019 GMT
            Not After : Nov  4 05:52:58 2020 GMT
        Subject: OU = Test, O = MTG, L = Darmstadt, ST = Hessen, C = DE
        Subject Public Key Info:
            Public Key Algorithm: rsaEncryption
                RSA Public-Key: (2048 bit)
                Modulus:
                    00:9d:52:43:fa:16:05:6a:f6:f0:48:8e:08:8d:66:
                    31:2f:28:ff:61:bf:61:d8:af:be:90:f9:03:ed:3f:
                    85:bc:68:ec:49:e1:96:a1:a4:14:14:e3:ff:a7:00:
                    a3:9c:36:3b:ed:e3:5a:15:4f:f9:85:7e:f5:fe:8e:
                    d6:f5:af:90:04:c6:dc:c3:22:89:26:2c:ce:67:e2:
                    d6:56:71:6b:60:19:33:5f:47:d9:9b:6d:40:7b:ee:
                    ae:5c:42:d7:8c:4b:1a:ed:4b:e9:31:ce:84:a8:f8:
                    27:91:59:09:a9:8a:7d:db:8c:f0:52:76:9f:57:24:
                    91:41:18:8e:e4:3d:51:ed:e8:67:c2:dc:92:39:fc:
                    87:64:03:f8:11:95:2b:ff:96:8c:4a:db:49:c2:5e:
                    bd:e8:16:2b:07:79:e2:64:b0:bc:e3:27:4d:db:f5:
                    59:ee:75:ff:60:9c:0b:f2:51:e7:54:c3:a2:06:14:
                    2a:ce:d8:a3:d2:fb:b0:6d:c3:00:74:b8:a1:c4:1d:
                    0d:83:d3:19:d6:8c:bd:e9:7b:65:2d:e3:59:c1:83:
                    f6:0e:b0:35:74:20:ec:59:67:71:7c:37:93:31:37:
                    64:47:75:a1:ab:0a:85:e2:23:94:37:22:69:44:91:
                    ea:86:6a:06:8f:56:89:8f:0b:80:ae:af:8c:9b:5a:
                    89:49
                Exponent: 65537 (0x10001)
        X509v3 extensions:
            X509v3 Authority Key Identifier: 
                keyid:17:B9:3C:44:F5:76:4B:60:42:6D:2C:09:9E:E2:5C:B3:CE:BC:C5:62

            X509v3 Subject Key Identifier: 
                CE:2A:D6:50:67:86:3B:EB:6D:70:81:F9:6B:C6:40:7E:4D:62:75:7D
            X509v3 Key Usage: critical
                Digital Signature, Key Encipherment
            X509v3 Basic Constraints: critical
                CA:FALSE
            X509v3 Subject Alternative Name: 
                DNS:www.example.com
            Authority Information Access: 
                CA Issuers - URI:http://ca.example.com/ca.crt
                OCSP - URI:http://ocsp.example.com/ocsp

            X509v3 Certificate Policies: 
                Policy: 0.4.0.194112.1.0

            X509v3 Extended Key Usage: 
                TLS Web Server Authentication, TLS Web Client Authentication
            qcStatements: 
                0.0......F..0......F..0......F...
    Signature Algorithm: sha256WithRSAEncryption
         65:82:19:7f:aa:6f:44:4e:75:af:ad:90:1a:3e:68:42:aa:a5:
         0a:3f:33:05:2c:a4:8c:14:c9:e7:5d:e5:66:33:6d:93:b4:9e:
         49:8d:19:5c:68:7a:ef:bb:72:79:76:8a:68:4c:94:3b:87:00:
         95:10:9a:ce:8b:bf:13:e9:4b:2f:6d:79:67:8a:eb:da:e6:07:
         1e:66:d6:2b:e5:fc:8a:61:08:b7:98:50:8f:43:fd:a1:5b:e7:
         0c:ef:fc:e0:b9:77:8a:89:a9:98:1d:34:e8:6a:3c:92:ca:e6:
         3a:0c:39:b1:70:c1:e4:75:b2:f0:88:a9:66:54:65:2b:8e:18:
         ca:e7:09:2f:e9:ad:07:8a:e9:15:f6:ec:53:c3:51:b3:0f:48:
         43:53:30:36:f8:a7:27:07:f8:f1:09:a9:9a:79:74:42:92:4d:
         7a:91:b8:09:17:d5:26:d9:b4:5d:23:5a:e9:62:47:9d:66:7b:
         3d:8d:4f:df:6d:2c:27:92:32:2b:a2:24:f2:75:7f:cd:5b:da:
         c0:c3:bb:3b:4a:db:e0:ac:b1:42:1d:e2:a0:1f:a5:02:0f:20:
         7b:54:0d:e0:dc:84:b0:e8:65:eb:12:5b:73:c9:c2:cf:93:01:
         17:d1:f7:90:cb:93:30:88:75:98:9d:95:f9:8e:b6:cb:08:64:
         7a:11:35:10
-----BEGIN CERTIFICATE-----
MIIEXzCCA0egAwIBAgINBsEY7UJprU1lXQnOajANBgkqhkiG9w0BAQsFADBBMRUw
EwYDVQQDDAxUZXN0IFN1YkNBIDIxDTALBgNVBAsMBFRlc3QxDDAKBgNVBAoMA01U
RzELMAkGA1UEBhMCREUwHhcNMTkxMTA0MDU1MjU4WhcNMjAxMTA0MDU1MjU4WjBP
MQ0wCwYDVQQLDARUZXN0MQwwCgYDVQQKDANNVEcxEjAQBgNVBAcMCURhcm1zdGFk
dDEPMA0GA1UECAwGSGVzc2VuMQswCQYDVQQGEwJERTCCASIwDQYJKoZIhvcNAQEB
BQADggEPADCCAQoCggEBAJ1SQ/oWBWr28EiOCI1mMS8o/2G/YdivvpD5A+0/hbxo
7EnhlqGkFBTj/6cAo5w2O+3jWhVP+YV+9f6O1vWvkATG3MMiiSYszmfi1lZxa2AZ
M19H2ZttQHvurlxC14xLGu1L6THOhKj4J5FZCamKfduM8FJ2n1ckkUEYjuQ9Ue3o
Z8Lckjn8h2QD+BGVK/+WjErbScJevegWKwd54mSwvOMnTdv1We51/2CcC/JR51TD
ogYUKs7Yo9L7sG3DAHS4ocQdDYPTGdaMvel7ZS3jWcGD9g6wNXQg7FlncXw3kzE3
ZEd1oasKheIjlDciaUSR6oZqBo9WiY8LgK6vjJtaiUkCAwEAAaOCAUYwggFCMB8G
A1UdIwQYMBaAFBe5PET1dktgQm0sCZ7iXLPOvMViMB0GA1UdDgQWBBTOKtZQZ4Y7
621wgflrxkB+TWJ1fTAOBgNVHQ8BAf8EBAMCBaAwDAYDVR0TAQH/BAIwADAaBgNV
HREEEzARgg93d3cuZXhhbXBsZS5jb20wYgYIKwYBBQUHAQEEVjBUMCgGCCsGAQUF
BzAChhxodHRwOi8vY2EuZXhhbXBsZS5jb20vY2EuY3J0MCgGCCsGAQUFBzABhhxo
dHRwOi8vb2NzcC5leGFtcGxlLmNvbS9vY3NwMBQGA1UdIAQNMAswCQYHBACL7EAB
ADAdBgNVHSUEFjAUBggrBgEFBQcDAQYIKwYBBQUHAwIwLQYIKwYBBQUHAQMEITAf
MAgGBgQAjkYBATATBgYEAI5GAQYwCQYHBACORgEGAzANBgkqhkiG9w0BAQsFAAOC
AQEAZYIZf6pvRE51r62QGj5oQqqlCj8zBSykjBTJ513lZjNtk7SeSY0ZXGh677ty
eXaKaEyUO4cAlRCazou/E+lLL215Z4rr2uYHHmbWK+X8imEIt5hQj0P9oVvnDO/8
4Ll3iompmB006Go8ksrmOgw5sXDB5HWy8IipZlRlK44YyucJL+mtB4rpFfbsU8NR
sw9IQ1MwNvinJwf48Qmpmnl0QpJNepG4CRfVJtm0XSNa6WJHnWZ7PY1P320sJ5Iy
K6Ik8nV/zVvawMO7O0rb4KyxQh3ioB+lAg8ge1QN4NyEsOhl6xJbc8nCz5MBF9H3
kMuTMIh1mJ2V+Y62ywhkehE1EA==
-----END CERTIFICATE-----
