Certificate:
    Data:
        Version: 3 (0x2)
        Serial Number:
            01:cd:3d:18:d6:13:7f:f8:4b:b5:c9:b2:b1
        Signature Algorithm: sha256WithRSAEncryption
        Issuer: CN = Test SubCA 2, OU = Test, O = MTG, C = DE
        Validity
            Not Before: Nov  4 05:52:58 2019 GMT
            Not After : Nov  4 05:52:58 2020 GMT
        Subject: OU = Test, O = MTG, L = Darmstadt, ST = Hessen, C = DE
        Subject Public Key Info:
            Public Key Algorithm: rsaEncryption
                RSA Public-Key: (2048 bit)
                Modulus:
                    00:9d:52:43:fa:16:05:6a:f6:f0:48:8e:08:8d:66:
                    31:2f:28:ff:61:bf:61:d8:af:be:90:f9:03:ed:3f:
                    85:bc:68:ec:49:e1:96:a1:a4:14:14:e3:ff:a7:00:
                    a3:9c:36:3b:ed:e3:5a:15:4f:f9:85:7e:f5:fe:8e:
                    d6:f5:af:90:04:c6:dc:c3:22:89:26:2c:ce:67:e2:
                    d6:56:71:6b:60:19:33:5f:47:d9:9b:6d:40:7b:ee:
                    ae:5c:42:d7:8c:4b:1a:ed:4b:e9:31:ce:84:a8:f8:
                    27:91:59:09:a9:8a:7d:db:8c:f0:52:76:9f:57:24:
                    91:41:18:8e:e4:3d:51:ed:e8:67:c2:dc:92:39:fc:
                    87:64:03:f8:11:95:2b:ff:96:8c:4a:db:49:c2:5e:
                    bd:e8:16:2b:07:79:e2:64:b0:bc:e3:27:4d:db:f5:
                    59:ee:75:ff:60:9c:0b:f2:51:e7:54:c3:a2:06:14:
                    2a:ce:d8:a3:d2:fb:b0:6d:c3:00:74:b8:a1:c4:1d:
                    0d:83:d3:19:d6:8c:bd:e9:7b:65:2d:e3:59:c1:83:
                    f6:0e:b0:35:74:20:ec:59:67:71:7c:37:93:31:37:
                    64:47:75:a1:ab:0a:85:e2:23:94:37:22:69:44:91:
                    ea:86:6a:06:8f:56:89:8f:0b:80:ae:af:8c:9b:5a:
                    89:49
                Exponent: 65537 (0x10001)
        X509v3 extensions:
            X509v3 Authority Key Identifier: 
                keyid:17:B9:3C:44:F5:76:4B:60:42:6D:2C:09:9E:E2:5C:B3:CE:BC:C5:62

            X509v3 Subject Key Identifier: 
                CE:2A:D6:50:67:86:3B:EB:6D:70:81:F9:6B:C6:40:7E:4D:62:75:7D
            X509v3 Key Usage: critical
                Digital Signature, Key Encipherment
            X509v3 Basic Constraints: critical
                CA:FALSE
            X509v3 Subject Alternative Name: 
                DNS:www.example.com
            Authority Information Access: 
                CA Issuers - URI:http://ca.example.com/ca.crt
                OCSP - URI:http://ocsp.example.com/ocsp

            X509v3 Certificate Policies: 
                Policy: 1.2.3.4.5.6

            X509v3 Extended Key Usage: 
                TLS Web Server Authentication, TLS Web Client Authentication
            qcStatements: 
                0.0......F..0......F..0......F...
    Signature Algorithm: sha256WithRSAEncryption
         1e:7b:91:ac:22:20:b2:70:62:20:bb:36:f8:1f:70:18:ef:27:
         35:4a:a4:b6:23:3f:cf:71:60:a2:50:8b:6c:aa:99:b0:38:1b:
         94:db:41:85:13:a8:1c:76:1a:70:55:71:41:e3:fd:94:10:f1:
         9a:5f:64:09:03:db:04:e2:7b:5f:70:67:79:9e:ef:f7:df:c4:
         3f:a9:7e:83:4c:37:93:df:90:e1:bd:5f:fb:6c:6d:bd:f3:d0:
         17:78:4b:75:0a:62:71:9d:c2:aa:27:5d:39:b7:a1:20:24:f2:
         64:00:d6:d3:29:fe:72:ea:5b:6c:b2:ef:6a:66:fc:66:ce:44:
         a9:26:8c:cc:9f:0a:95:bf:79:22:bf:46:4c:9b:f3:df:02:8e:
         71:cc:2c:bc:3b:a5:3c:7e:d2:8d:c7:03:14:4e:3d:61:ed:09:
         cf:9b:35:15:da:c2:3d:b3:84:2b:a6:c9:b2:9f:94:f2:c9:bf:
         56:37:47:e6:31:48:38:16:6c:9e:5c:44:ce:84:c3:3f:32:0b:
         af:ec:78:63:e3:da:6a:a9:4f:f5:f1:0a:7f:e3:4c:7a:b8:82:
         f5:f4:5c:1c:2c:53:67:2b:0a:ef:79:b6:f2:d3:45:b1:87:45:
         c9:46:a8:a4:4d:7e:5d:cb:69:32:b6:44:e7:b6:b0:27:8e:c4:
         78:53:4d:f0
-----BEGIN CERTIFICATE-----
MIIEXTCCA0WgAwIBAgINAc09GNYTf/hLtcmysTANBgkqhkiG9w0BAQsFADBBMRUw
EwYDVQQDDAxUZXN0IFN1YkNBIDIxDTALBgNVBAsMBFRlc3QxDDAKBgNVBAoMA01U
RzELMAkGA1UEBhMCREUwHhcNMTkxMTA0MDU1MjU4WhcNMjAxMTA0MDU1MjU4WjBP
MQ0wCwYDVQQLDARUZXN0MQwwCgYDVQQKDANNVEcxEjAQBgNVBAcMCURhcm1zdGFk
dDEPMA0GA1UECAwGSGVzc2VuMQswCQYDVQQGEwJERTCCASIwDQYJKoZIhvcNAQEB
BQADggEPADCCAQoCggEBAJ1SQ/oWBWr28EiOCI1mMS8o/2G/YdivvpD5A+0/hbxo
7EnhlqGkFBTj/6cAo5w2O+3jWhVP+YV+9f6O1vWvkATG3MMiiSYszmfi1lZxa2AZ
M19H2ZttQHvurlxC14xLGu1L6THOhKj4J5FZCamKfduM8FJ2n1ckkUEYjuQ9Ue3o
Z8Lckjn8h2QD+BGVK/+WjErbScJevegWKwd54mSwvOMnTdv1We51/2CcC/JR51TD
ogYUKs7Yo9L7sG3DAHS4ocQdDYPTGdaMvel7ZS3jWcGD9g6wNXQg7FlncXw3kzE3
ZEd1oasKheIjlDciaUSR6oZqBo9WiY8LgK6vjJtaiUkCAwEAAaOCAUQwggFAMB8G
A1UdIwQYMBaAFBe5PET1dktgQm0sCZ7iXLPOvMViMB0GA1UdDgQWBBTOKtZQZ4Y7
621wgflrxkB+TWJ1fTAOBgNVHQ8BAf8EBAMCBaAwDAYDVR0TAQH/BAIwADAaBgNV
HREEEzARgg93d3cuZXhhbXBsZS5jb20wYgYIKwYBBQUHAQEEVjBUMCgGCCsGAQUF
BzAChhxodHRwOi8vY2EuZXhhbXBsZS5jb20vY2EuY3J0MCgGCCsGAQUFBzABhhxo
dHRwOi8vb2NzcC5leGFtcGxlLmNvbS9vY3NwMBIGA1UdIAQLMAkwBwYFKgMEBQYw
HQYDVR0lBBYwFAYIKwYBBQUHAwEGCCsGAQUFBwMCMC0GCCsGAQUFBwEDBCEwHzAI
BgYEAI5GAQEwEwYGBACORgEGMAkGBwQAjkYBBgMwDQYJKoZIhvcNAQELBQADggEB
AB57kawiILJwYiC7NvgfcBjvJzVKpLYjP89xYKJQi2yqmbA4G5TbQYUTqBx2GnBV
cUHj/ZQQ8ZpfZAkD2wTie19wZ3me7/ffxD+pfoNMN5PfkOG9X/tsbb3z0Bd4S3UK
YnGdwqonXTm3oSAk8mQA1tMp/nLqW2yy72pm/GbORKkmjMyfCpW/eSK/Rkyb898C
jnHMLLw7pTx+0o3HAxROPWHtCc+bNRXawj2zhCumybKflPLJv1Y3R+YxSDgWbJ5c
RM6Ewz8yC6/seGPj2mqpT/XxCn/jTHq4gvX0XBwsU2crCu95tvLTRbGHRclGqKRN
fl3LaTK2ROe2sCeOxHhTTfA=
-----END CERTIFICATE-----
