Certificate:
    Data:
        Version: 3 (0x2)
        Serial Number:
            05:ed:56:dc:c7:2e:6c:8b:2d:46:d2:50:db
        Signature Algorithm: sha256WithRSAEncryption
        Issuer: CN = Test SubCA 2, OU = Test, O = MTG, C = DE
        Validity
            Not Before: Nov  1 08:03:00 2019 GMT
            Not After : Nov  1 08:03:00 2020 GMT
        Subject: O = MTG, OU = Test, L = Darmstadt, ST = Hessen, C = DE, organizationIdentifier = PSDMT-MFSA-A 12345
        Subject Public Key Info:
            Public Key Algorithm: rsaEncryption
                RSA Public-Key: (2048 bit)
                Modulus:
                    00:c2:0d:81:71:b4:94:05:bc:cf:99:8a:aa:62:08:
                    f2:2e:63:b2:1e:46:f9:2b:85:98:c3:83:d0:ce:26:
                    ad:76:8f:5c:e7:5b:05:20:25:26:32:19:c2:24:8a:
                    ba:69:a3:eb:ca:10:a4:f3:cf:b5:c6:1e:f6:70:58:
                    96:5b:88:52:6a:88:42:33:85:b8:c6:16:48:4f:01:
                    45:39:3f:e1:6a:b9:06:b5:ef:37:db:79:9e:50:90:
                    57:43:5b:8b:c3:35:0d:b3:41:f4:1b:c2:4a:7f:18:
                    3c:39:2d:4f:bf:2b:a5:71:07:73:33:00:e5:8d:36:
                    9e:fe:8f:72:c5:72:56:08:cc:86:b6:ef:ba:e2:fd:
                    9b:5c:c6:2d:94:ed:2d:64:24:77:e6:67:4d:62:db:
                    94:2e:29:8e:dd:1d:7a:ca:bc:68:fb:15:2c:80:56:
                    d3:dd:e7:3a:8f:98:18:14:4b:11:d9:c4:01:1f:b9:
                    7a:d0:d9:ad:69:11:05:f6:0e:ae:5f:fc:cd:c6:b3:
                    cb:4d:ae:8e:45:18:0a:a8:c0:40:11:28:dc:cd:9f:
                    7a:26:67:5a:47:80:9b:d9:4c:f7:da:5f:6d:13:83:
                    1a:91:92:d1:b9:44:f7:72:6b:97:47:74:71:70:80:
                    d3:d6:73:bf:76:33:5c:70:b8:6f:87:37:3e:7e:8e:
                    75:e5
                Exponent: 65537 (0x10001)
        X509v3 extensions:
            X509v3 Authority Key Identifier: 
                keyid:0C:5E:9C:FE:BA:4B:21:6C:04:1D:C2:5A:B7:E3:88:5F:59:DE:4C:12

            X509v3 Subject Key Identifier: 
                0E:6B:AA:83:A9:B2:4D:5C:85:CD:B1:D2:2F:87:F7:20:CB:36:43:3B
            X509v3 Key Usage: critical
                Digital Signature, Key Encipherment
            X509v3 Basic Constraints: critical
                CA:FALSE
            X509v3 Subject Alternative Name: 
                DNS:www.example.com
            Authority Information Access: 
                CA Issuers - URI:http://ca.example.com/ca.crt
                OCSP - URI:http://ocsp.example.com/ocsp

            X509v3 Certificate Policies: 
                Policy: 0.4.0.194112.1.4
                Policy: 0.4.0.19495.3.1

            X509v3 Extended Key Usage: 
                TLS Web Server Authentication, TLS Web Client Authentication
            qcStatements: 
                0..0......F..0......F..0......F...0...+.......0.......I..0Q......'.0G0.0.......'....PSP_IC.'Federal Financial Supervisory Authority..MT-MFSA
    Signature Algorithm: sha256WithRSAEncryption
         38:75:31:6e:6d:b4:07:1f:f2:39:d8:aa:a6:64:7e:65:70:f1:
         0b:40:e5:c8:ca:51:b1:7c:04:31:8c:c7:96:96:45:ac:35:86:
         ad:64:0e:45:02:4b:9c:3f:b2:98:b6:6e:0a:38:83:10:47:ec:
         4c:ad:e3:06:aa:60:46:bb:47:12:f0:72:26:06:08:ee:95:dd:
         8d:ea:c2:20:75:4b:54:81:62:63:3d:63:f6:7f:c7:57:62:6b:
         7b:08:cc:5e:57:8a:cf:96:4e:8e:03:70:3b:93:9c:a6:04:ef:
         8d:b4:ad:d1:0a:21:e5:bb:17:fc:27:eb:c1:7f:93:ad:b8:80:
         85:f7:14:e4:02:a6:e5:6c:61:4c:6a:43:94:cb:ab:3e:80:2d:
         3c:e4:16:ef:1b:98:00:e1:6f:3b:f3:c5:9e:40:b2:a5:3c:93:
         a8:97:37:f6:d5:b5:a9:35:7f:90:81:6b:a0:8c:73:c0:24:84:
         5d:ca:50:47:a7:09:91:ec:08:20:ef:e9:86:b0:f9:c3:81:8d:
         3d:e7:98:7f:ba:98:36:4c:7e:35:a9:46:70:f2:f9:30:dc:b3:
         70:ec:88:fe:44:b9:75:64:bf:c4:9e:2e:05:a3:cc:6d:a0:b9:
         1a:70:fd:a0:59:ca:f6:93:89:a4:24:6e:2e:29:5c:95:02:c9:
         cf:22:b3:c6
-----BEGIN CERTIFICATE-----
MIIE9DCCA9ygAwIBAgINBe1W3McubIstRtJQ2zANBgkqhkiG9w0BAQsFADBBMRUw
EwYDVQQDDAxUZXN0IFN1YkNBIDIxDTALBgNVBAsMBFRlc3QxDDAKBgNVBAoMA01U
RzELMAkGA1UEBhMCREUwHhcNMTkxMTAxMDgwMzAwWhcNMjAxMTAxMDgwMzAwWjBs
MQwwCgYDVQQKDANNVEcxDTALBgNVBAsMBFRlc3QxEjAQBgNVBAcMCURhcm1zdGFk
dDEPMA0GA1UECAwGSGVzc2VuMQswCQYDVQQGEwJERTEbMBkGA1UEYQwSUFNETVQt
TUZTQS1BIDEyMzQ1MIIBIjANBgkqhkiG9w0BAQEFAAOCAQ8AMIIBCgKCAQEAwg2B
cbSUBbzPmYqqYgjyLmOyHkb5K4WYw4PQziatdo9c51sFICUmMhnCJIq6aaPryhCk
88+1xh72cFiWW4hSaohCM4W4xhZITwFFOT/harkGte8323meUJBXQ1uLwzUNs0H0
G8JKfxg8OS1PvyulcQdzMwDljTae/o9yxXJWCMyGtu+64v2bXMYtlO0tZCR35mdN
YtuULimO3R16yrxo+xUsgFbT3ec6j5gYFEsR2cQBH7l60NmtaREF9g6uX/zNxrPL
Ta6ORRgKqMBAESjczZ96JmdaR4Cb2Uz32l9tE4MakZLRuUT3cmuXR3RxcIDT1nO/
djNccLhvhzc+fo515QIDAQABo4IBvjCCAbowHwYDVR0jBBgwFoAUDF6c/rpLIWwE
HcJat+OIX1neTBIwHQYDVR0OBBYEFA5rqoOpsk1chc2x0i+H9yDLNkM7MA4GA1Ud
DwEB/wQEAwIFoDAMBgNVHRMBAf8EAjAAMBoGA1UdEQQTMBGCD3d3dy5leGFtcGxl
LmNvbTBiBggrBgEFBQcBAQRWMFQwKAYIKwYBBQUHMAKGHGh0dHA6Ly9jYS5leGFt
cGxlLmNvbS9jYS5jcnQwKAYIKwYBBQUHMAGGHGh0dHA6Ly9vY3NwLmV4YW1wbGUu
Y29tL29jc3AwHwYDVR0gBBgwFjAJBgcEAIvsQAEEMAkGBwQAgZgnAwEwHQYDVR0l
BBYwFAYIKwYBBQUHAwEGCCsGAQUFBwMCMIGZBggrBgEFBQcBAwSBjDCBiTAIBgYE
AI5GAQEwEwYGBACORgEGMAkGBwQAjkYBBgMwFQYIKwYBBQUHCwIwCQYHBACL7EkB
AjBRBgYEAIGYJwIwRzATMBEGBwQAgZgnAQQMBlBTUF9JQwwnRmVkZXJhbCBGaW5h
bmNpYWwgU3VwZXJ2aXNvcnkgQXV0aG9yaXR5DAdNVC1NRlNBMA0GCSqGSIb3DQEB
CwUAA4IBAQA4dTFubbQHH/I52KqmZH5lcPELQOXIylGxfAQxjMeWlkWsNYatZA5F
AkucP7KYtm4KOIMQR+xMreMGqmBGu0cS8HImBgjuld2N6sIgdUtUgWJjPWP2f8dX
Ymt7CMxeV4rPlk6OA3A7k5ymBO+NtK3RCiHluxf8J+vBf5OtuICF9xTkAqblbGFM
akOUy6s+gC085BbvG5gA4W8788WeQLKlPJOolzf21bWpNX+QgWugjHPAJIRdylBH
pwmR7Agg7+mGsPnDgY0955h/upg2TH41qUZw8vkw3LNw7Ij+RLl1ZL/Eni4Fo8xt
oLkacP2gWcr2k4mkJG4uKVyVAsnPIrPG
-----END CERTIFICATE-----
