Certificate:
    Data:
        Version: 3 (0x2)
        Serial Number:
            05:58:31:94:87:34:53:b5:3f:85:7a:39:ea
        Signature Algorithm: sha256WithRSAEncryption
        Issuer: CN = Test SubCA 2, OU = Test, O = MTG, C = DE
        Validity
            Not Before: Nov  4 05:52:58 2019 GMT
            Not After : Nov  4 05:52:58 2020 GMT
        Subject: OU = Test, O = MTG, L = Darmstadt, ST = Hessen, C = DE
        Subject Public Key Info:
            Public Key Algorithm: rsaEncryption
                RSA Public-Key: (2048 bit)
                Modulus:
                    00:9d:52:43:fa:16:05:6a:f6:f0:48:8e:08:8d:66:
                    31:2f:28:ff:61:bf:61:d8:af:be:90:f9:03:ed:3f:
                    85:bc:68:ec:49:e1:96:a1:a4:14:14:e3:ff:a7:00:
                    a3:9c:36:3b:ed:e3:5a:15:4f:f9:85:7e:f5:fe:8e:
                    d6:f5:af:90:04:c6:dc:c3:22:89:26:2c:ce:67:e2:
                    d6:56:71:6b:60:19:33:5f:47:d9:9b:6d:40:7b:ee:
                    ae:5c:42:d7:8c:4b:1a:ed:4b:e9:31:ce:84:a8:f8:
                    27:91:59:09:a9:8a:7d:db:8c:f0:52:76:9f:57:24:
                    91:41:18:8e:e4:3d:51:ed:e8:67:c2:dc:92:39:fc:
                    87:64:03:f8:11:95:2b:ff:96:8c:4a:db:49:c2:5e:
                    bd:e8:16:2b:07:79:e2:64:b0:bc:e3:27:4d:db:f5:
                    59:ee:75:ff:60:9c:0b:f2:51:e7:54:c3:a2:06:14:
                    2a:ce:d8:a3:d2:fb:b0:6d:c3:00:74:b8:a1:c4:1d:
                    0d:83:d3:19:d6:8c:bd:e9:7b:65:2d:e3:59:c1:83:
                    f6:0e:b0:35:74:20:ec:59:67:71:7c:37:93:31:37:
                    64:47:75:a1:ab:0a:85:e2:23:94:37:22:69:44:91:
                    ea:86:6a:06:8f:56:89:8f:0b:80:ae:af:8c:9b:5a:
                    89:49
                Exponent: 65537 (0x10001)
        X509v3 extensions:
            X509v3 Authority Key Identifier: 
                keyid:17:B9:3C:44:F5:76:4B:60:42:6D:2C:09:9E:E2:5C:B3:CE:BC:C5:62

            X509v3 Subject Key Identifier: 
                CE:2A:D6:50:67:86:3B:EB:6D:70:81:F9:6B:C6:40:7E:4D:62:75:7D
            X509v3 Key Usage: critical
                Digital Signature, Key Encipherment
            X509v3 Basic Constraints: critical
                CA:FALSE
            X509v3 Subject Alternative Name: 
                DNS:www.example.com
            Authority Information Access: 
                CA Issuers - URI:http://ca.example.com/ca.crt
                OCSP - URI:http://ocsp.example.com/ocsp

            X509v3 Certificate Policies: 
                Policy: 0.4.0.194112.1.4
                Policy: 0.4.0.19495.3.1

            X509v3 Extended Key Usage: 
                TLS Web Server Authentication, TLS Web Client Authentication
            qcStatements: 
                0.0......F..0......F..0......F...
    Signature Algorithm: sha256WithRSAEncryption
         58:4d:67:9c:7b:0b:73:95:4c:57:34:f0:36:98:4d:e4:8e:d6:
         2d:26:35:98:9f:16:44:11:cd:a2:07:18:e5:91:67:3c:d1:8a:
         51:80:c4:49:15:35:47:1c:2c:b8:b5:a6:3d:ca:a1:fd:a8:c5:
         72:59:9b:f3:41:45:a3:fd:b0:49:5c:a5:68:e6:c7:b0:0e:2c:
         cc:9e:80:56:5a:81:05:91:98:aa:25:b5:97:c0:0d:43:35:38:
         18:aa:91:21:71:fc:6b:5d:cb:28:ce:7b:d6:e4:76:b4:da:00:
         a8:57:c5:34:57:f3:b5:2a:2c:d0:8f:c7:b8:9f:61:c8:dc:7b:
         39:8b:c4:d6:3d:ec:c4:a2:cf:3b:0f:3e:7d:3a:43:83:ab:c0:
         57:c3:f1:04:2d:d4:1e:f7:e8:4c:75:b4:cf:ce:cf:1b:9a:c8:
         e3:6c:2a:b1:00:50:58:4e:f2:f9:be:9d:bd:a6:a4:f7:94:f9:
         a7:ea:03:87:5b:b5:7f:6a:8a:ab:8c:6c:45:3f:00:d3:30:d0:
         23:40:99:94:26:0c:e8:c1:e4:73:22:b7:21:07:6d:93:77:07:
         cd:9a:4c:93:e1:03:e3:d8:1d:cf:5c:17:87:28:e1:42:fa:bd:
         50:a5:13:c5:b3:09:79:4d:1d:b6:5c:32:2b:dd:b9:25:b6:53:
         b3:2d:6d:38
-----BEGIN CERTIFICATE-----
MIIEajCCA1KgAwIBAgINBVgxlIc0U7U/hXo56jANBgkqhkiG9w0BAQsFADBBMRUw
EwYDVQQDDAxUZXN0IFN1YkNBIDIxDTALBgNVBAsMBFRlc3QxDDAKBgNVBAoMA01U
RzELMAkGA1UEBhMCREUwHhcNMTkxMTA0MDU1MjU4WhcNMjAxMTA0MDU1MjU4WjBP
MQ0wCwYDVQQLDARUZXN0MQwwCgYDVQQKDANNVEcxEjAQBgNVBAcMCURhcm1zdGFk
dDEPMA0GA1UECAwGSGVzc2VuMQswCQYDVQQGEwJERTCCASIwDQYJKoZIhvcNAQEB
BQADggEPADCCAQoCggEBAJ1SQ/oWBWr28EiOCI1mMS8o/2G/YdivvpD5A+0/hbxo
7EnhlqGkFBTj/6cAo5w2O+3jWhVP+YV+9f6O1vWvkATG3MMiiSYszmfi1lZxa2AZ
M19H2ZttQHvurlxC14xLGu1L6THOhKj4J5FZCamKfduM8FJ2n1ckkUEYjuQ9Ue3o
Z8Lckjn8h2QD+BGVK/+WjErbScJevegWKwd54mSwvOMnTdv1We51/2CcC/JR51TD
ogYUKs7Yo9L7sG3DAHS4ocQdDYPTGdaMvel7ZS3jWcGD9g6wNXQg7FlncXw3kzE3
ZEd1oasKheIjlDciaUSR6oZqBo9WiY8LgK6vjJtaiUkCAwEAAaOCAVEwggFNMB8G
A1UdIwQYMBaAFBe5PET1dktgQm0sCZ7iXLPOvMViMB0GA1UdDgQWBBTOKtZQZ4Y7
621wgflrxkB+TWJ1fTAOBgNVHQ8BAf8EBAMCBaAwDAYDVR0TAQH/BAIwADAaBgNV
HREEEzARgg93d3cuZXhhbXBsZS5jb20wYgYIKwYBBQUHAQEEVjBUMCgGCCsGAQUF
BzAChhxodHRwOi8vY2EuZXhhbXBsZS5jb20vY2EuY3J0MCgGCCsGAQUFBzABhhxo
dHRwOi8vb2NzcC5leGFtcGxlLmNvbS9vY3NwMB8GA1UdIAQYMBYwCQYHBACL7EAB
BDAJBgcEAIGYJwMBMB0GA1UdJQQWMBQGCCsGAQUFBwMBBggrBgEFBQcDAjAtBggr
BgEFBQcBAwQhMB8wCAYGBACORgEBMBMGBgQAjkYBBjAJBgcEAI5GAQYDMA0GCSqG
SIb3DQEBCwUAA4IBAQBYTWecewtzlUxXNPA2mE3kjtYtJjWYnxZEEc2iBxjlkWc8
0YpRgMRJFTVHHCy4taY9yqH9qMVyWZvzQUWj/bBJXKVo5sewDizMnoBWWoEFkZiq
JbWXwA1DNTgYqpEhcfxrXcsoznvW5Ha02gCoV8U0V/O1KizQj8e4n2HI3Hs5i8TW
PezEos87Dz59OkODq8BXw/EELdQe9+hMdbTPzs8bmsjjbCqxAFBYTvL5vp29pqT3
lPmn6gOHW7V/aoqrjGxFPwDTMNAjQJmUJgzoweRzIrchB22TdwfNmkyT4QPj2B3P
XBeHKOFC+r1QpRPFswl5TR22XDIr3bkltlOzLW04
-----END CERTIFICATE-----
