Certificate:
    Data:
        Version: 3 (0x2)
        Serial Number:
            06:c1:95:6d:13:5c:63:45:d1:a5:ef:61:57
        Signature Algorithm: sha256WithRSAEncryption
        Issuer: CN = Test SubCA 2, OU = Test, O = MTG, C = DE
        Validity
            Not Before: Nov  4 05:52:58 2019 GMT
            Not After : Nov  4 05:52:58 2020 GMT
        Subject: OU = Test, O = MTG, L = Darmstadt, ST = Hessen, C = DE
        Subject Public Key Info:
            Public Key Algorithm: rsaEncryption
                RSA Public-Key: (2048 bit)
                Modulus:
                    00:9d:52:43:fa:16:05:6a:f6:f0:48:8e:08:8d:66:
                    31:2f:28:ff:61:bf:61:d8:af:be:90:f9:03:ed:3f:
                    85:bc:68:ec:49:e1:96:a1:a4:14:14:e3:ff:a7:00:
                    a3:9c:36:3b:ed:e3:5a:15:4f:f9:85:7e:f5:fe:8e:
                    d6:f5:af:90:04:c6:dc:c3:22:89:26:2c:ce:67:e2:
                    d6:56:71:6b:60:19:33:5f:47:d9:9b:6d:40:7b:ee:
                    ae:5c:42:d7:8c:4b:1a:ed:4b:e9:31:ce:84:a8:f8:
                    27:91:59:09:a9:8a:7d:db:8c:f0:52:76:9f:57:24:
                    91:41:18:8e:e4:3d:51:ed:e8:67:c2:dc:92:39:fc:
                    87:64:03:f8:11:95:2b:ff:96:8c:4a:db:49:c2:5e:
                    bd:e8:16:2b:07:79:e2:64:b0:bc:e3:27:4d:db:f5:
                    59:ee:75:ff:60:9c:0b:f2:51:e7:54:c3:a2:06:14:
                    2a:ce:d8:a3:d2:fb:b0:6d:c3:00:74:b8:a1:c4:1d:
                    0d:83:d3:19:d6:8c:bd:e9:7b:65:2d:e3:59:c1:83:
                    f6:0e:b0:35:74:20:ec:59:67:71:7c:37:93:31:37:
                    64:47:75:a1:ab:0a:85:e2:23:94:37:22:69:44:91:
                    ea:86:6a:06:8f:56:89:8f:0b:80:ae:af:8c:9b:5a:
                    89:49
                Exponent: 65537 (0x10001)
        X509v3 extensions:
            X509v3 Authority Key Identifier: 
                keyid:17:B9:3C:44:F5:76:4B:60:42:6D:2C:09:9E:E2:5C:B3:CE:BC:C5:62

            X509v3 Subject Key Identifier: 
                CE:2A:D6:50:67:86:3B:EB:6D:70:81:F9:6B:C6:40:7E:4D:62:75:7D
            X509v3 Key Usage: critical
                Digital Signature, Key Encipherment
            X509v3 Basic Constraints: critical
                CA:FALSE
            X509v3 Subject Alternative Name: 
                DNS:www.example.com
            Authority Information Access: 
                CA Issuers - URI:http://ca.example.com/ca.crt
                OCSP - URI:http://ocsp.example.com/ocsp

            X509v3 Certificate Policies: 
                Policy: 0.4.0.194112.1.4
                Policy: 0.4.0.19495.3.1

            X509v3 Extended Key Usage: 
                TLS Web Server Authentication, TLS Web Client Authentication
            qcStatements: 
                0.0......F..0......F..0......F...
    Signature Algorithm: sha256WithRSAEncryption
         83:fa:c3:4e:6b:d7:f4:b6:af:af:ff:c5:c7:57:50:94:cb:49:
         78:43:5d:dd:0d:d3:2b:08:c7:e8:7d:29:4d:4c:d6:a1:7a:82:
         19:16:24:b4:a4:03:9c:92:a2:8a:f8:59:b4:9e:4c:59:ca:f9:
         b5:e2:d4:bb:56:82:88:93:dc:c8:29:4b:27:53:ba:09:7d:3a:
         45:32:cf:df:d8:1c:d2:75:8c:e5:51:f9:73:7c:a4:70:bf:3c:
         ee:90:7f:94:f5:e2:e6:c3:25:14:65:fd:6a:c0:28:4e:3f:86:
         2e:55:93:11:8f:96:27:b4:b7:74:b7:3c:f6:e6:0c:a1:68:e2:
         bd:78:5a:2a:45:bd:08:55:01:18:ee:d9:3f:e8:6f:f3:e8:c4:
         14:00:77:76:ae:f3:cf:f0:73:c9:38:27:d1:d2:2f:d9:e4:a1:
         b9:34:38:67:79:cd:f5:28:3c:a8:71:4a:32:9b:38:99:d1:53:
         40:70:00:a3:44:c0:ae:f0:5d:ba:3b:31:4d:4a:5d:4e:36:aa:
         b3:60:99:a5:07:63:cd:30:8a:e8:47:95:06:28:96:5d:f3:9f:
         39:ca:a6:79:fa:d5:6c:4c:99:a0:00:f1:aa:c0:17:4f:c5:88:
         d2:28:a7:76:1f:0a:fb:39:3b:8d:a2:1b:43:72:22:0b:37:d7:
         ec:26:20:e0
-----BEGIN CERTIFICATE-----
MIIEajCCA1KgAwIBAgINBsGVbRNcY0XRpe9hVzANBgkqhkiG9w0BAQsFADBBMRUw
EwYDVQQDDAxUZXN0IFN1YkNBIDIxDTALBgNVBAsMBFRlc3QxDDAKBgNVBAoMA01U
RzELMAkGA1UEBhMCREUwHhcNMTkxMTA0MDU1MjU4WhcNMjAxMTA0MDU1MjU4WjBP
MQ0wCwYDVQQLDARUZXN0MQwwCgYDVQQKDANNVEcxEjAQBgNVBAcMCURhcm1zdGFk
dDEPMA0GA1UECAwGSGVzc2VuMQswCQYDVQQGEwJERTCCASIwDQYJKoZIhvcNAQEB
BQADggEPADCCAQoCggEBAJ1SQ/oWBWr28EiOCI1mMS8o/2G/YdivvpD5A+0/hbxo
7EnhlqGkFBTj/6cAo5w2O+3jWhVP+YV+9f6O1vWvkATG3MMiiSYszmfi1lZxa2AZ
M19H2ZttQHvurlxC14xLGu1L6THOhKj4J5FZCamKfduM8FJ2n1ckkUEYjuQ9Ue3o
Z8Lckjn8h2QD+BGVK/+WjErbScJevegWKwd54mSwvOMnTdv1We51/2CcC/JR51TD
ogYUKs7Yo9L7sG3DAHS4ocQdDYPTGdaMvel7ZS3jWcGD9g6wNXQg7FlncXw3kzE3
ZEd1oasKheIjlDciaUSR6oZqBo9WiY8LgK6vjJtaiUkCAwEAAaOCAVEwggFNMB8G
A1UdIwQYMBaAFBe5PET1dktgQm0sCZ7iXLPOvMViMB0GA1UdDgQWBBTOKtZQZ4Y7
621wgflrxkB+TWJ1fTAOBgNVHQ8BAf8EBAMCBaAwDAYDVR0TAQH/BAIwADAaBgNV
HREEEzARgg93d3cuZXhhbXBsZS5jb20wYgYIKwYBBQUHAQEEVjBUMCgGCCsGAQUF
BzAChhxodHRwOi8vY2EuZXhhbXBsZS5jb20vY2EuY3J0MCgGCCsGAQUFBzABhhxo
dHRwOi8vb2NzcC5leGFtcGxlLmNvbS9vY3NwMB8GA1UdIAQYMBYwCQYHBACL7EAB
BDAJBgcEAIGYJwMBMB0GA1UdJQQWMBQGCCsGAQUFBwMBBggrBgEFBQcDAjAtBggr
BgEFBQcBAwQhMB8wCAYGBACORgEBMBMGBgQAjkYBBjAJBgcEAI5GAQYCMA0GCSqG
SIb3DQEBCwUAA4IBAQCD+sNOa9f0tq+v/8XHV1CUy0l4Q13dDdMrCMfofSlNTNah
eoIZFiS0pAOckqKK+Fm0nkxZyvm14tS7VoKIk9zIKUsnU7oJfTpFMs/f2BzSdYzl
UflzfKRwvzzukH+U9eLmwyUUZf1qwChOP4YuVZMRj5YntLd0tzz25gyhaOK9eFoq
Rb0IVQEY7tk/6G/z6MQUAHd2rvPP8HPJOCfR0i/Z5KG5NDhnec31KDyocUoymziZ
0VNAcACjRMCu8F26OzFNSl1ONqqzYJmlB2PNMIroR5UGKJZd8585yqZ5+tVsTJmg
APGqwBdPxYjSKKd2Hwr7OTuNohtDciILN9fsJiDg
-----END CERTIFICATE-----
