Certificate:
    Data:
        Version: 3 (0x2)
        Serial Number:
            03:92:54:ad:21:86:de:40:10:1b:36:18:57
        Signature Algorithm: sha256WithRSAEncryption
        Issuer: CN = Test SubCA 2, OU = Test, O = MTG, C = DE
        Validity
            Not Before: Nov  4 05:52:58 2019 GMT
            Not After : Nov  4 05:52:58 2020 GMT
        Subject: OU = Test, O = MTG, L = Darmstadt, ST = Hessen, C = DE
        Subject Public Key Info:
            Public Key Algorithm: rsaEncryption
                RSA Public-Key: (2048 bit)
                Modulus:
                    00:9d:52:43:fa:16:05:6a:f6:f0:48:8e:08:8d:66:
                    31:2f:28:ff:61:bf:61:d8:af:be:90:f9:03:ed:3f:
                    85:bc:68:ec:49:e1:96:a1:a4:14:14:e3:ff:a7:00:
                    a3:9c:36:3b:ed:e3:5a:15:4f:f9:85:7e:f5:fe:8e:
                    d6:f5:af:90:04:c6:dc:c3:22:89:26:2c:ce:67:e2:
                    d6:56:71:6b:60:19:33:5f:47:d9:9b:6d:40:7b:ee:
                    ae:5c:42:d7:8c:4b:1a:ed:4b:e9:31:ce:84:a8:f8:
                    27:91:59:09:a9:8a:7d:db:8c:f0:52:76:9f:57:24:
                    91:41:18:8e:e4:3d:51:ed:e8:67:c2:dc:92:39:fc:
                    87:64:03:f8:11:95:2b:ff:96:8c:4a:db:49:c2:5e:
                    bd:e8:16:2b:07:79:e2:64:b0:bc:e3:27:4d:db:f5:
                    59:ee:75:ff:60:9c:0b:f2:51:e7:54:c3:a2:06:14:
                    2a:ce:d8:a3:d2:fb:b0:6d:c3:00:74:b8:a1:c4:1d:
                    0d:83:d3:19:d6:8c:bd:e9:7b:65:2d:e3:59:c1:83:
                    f6:0e:b0:35:74:20:ec:59:67:71:7c:37:93:31:37:
                    64:47:75:a1:ab:0a:85:e2:23:94:37:22:69:44:91:
                    ea:86:6a:06:8f:56:89:8f:0b:80:ae:af:8c:9b:5a:
                    89:49
                Exponent: 65537 (0x10001)
        X509v3 extensions:
            X509v3 Authority Key Identifier: 
                keyid:17:B9:3C:44:F5:76:4B:60:42:6D:2C:09:9E:E2:5C:B3:CE:BC:C5:62

            X509v3 Subject Key Identifier: 
                CE:2A:D6:50:67:86:3B:EB:6D:70:81:F9:6B:C6:40:7E:4D:62:75:7D
            X509v3 Key Usage: critical
                Digital Signature, Key Encipherment
            X509v3 Basic Constraints: critical
                CA:FALSE
            X509v3 Subject Alternative Name: 
                DNS:www.example.com
            Authority Information Access: 
                CA Issuers - URI:http://ca.example.com/ca.crt
                OCSP - URI:http://ocsp.example.com/ocsp

            X509v3 Certificate Policies: 
                Policy: 1.2.3.4.5.6

            X509v3 Extended Key Usage: 
                TLS Web Server Authentication, TLS Web Client Authentication
            qcStatements: 
                0.0......F..0......F..0......F...
    Signature Algorithm: sha256WithRSAEncryption
         22:fb:d5:c4:da:ff:a4:25:3c:ae:75:7a:c5:8b:3f:a1:84:ea:
         cf:dd:b7:4d:2a:dc:6b:48:dd:6a:ce:36:77:fd:1f:60:e0:91:
         d4:f0:df:60:0a:75:a2:94:bb:10:61:a3:70:58:ca:d0:02:cb:
         97:f4:87:04:15:a7:26:55:73:37:e4:2e:b7:6d:52:41:fd:9d:
         bb:08:98:3a:78:17:1f:51:89:b8:80:31:58:a3:75:6c:3a:30:
         ae:a2:24:db:8e:8e:b8:a8:70:d6:fb:d6:35:8e:0d:c9:f4:cd:
         43:2b:bf:c9:03:a8:2d:70:64:d5:6b:b0:ee:39:a2:47:26:e1:
         47:07:f1:a4:34:14:f5:0d:50:28:49:a2:f7:d9:5a:ce:9e:89:
         24:cd:db:9d:d8:0f:11:06:c0:e3:ff:d1:08:e2:67:78:7e:49:
         23:7d:81:8d:b3:4b:79:f5:f6:6c:63:c8:ea:ab:75:fe:cc:2a:
         89:24:65:ef:1b:80:f4:0c:5c:d1:c2:9a:0d:0b:45:29:21:b4:
         a0:12:0d:09:10:26:4f:f8:de:85:fa:c0:1a:56:f7:73:d6:5b:
         4c:f3:ae:f5:6d:37:9d:ab:2f:72:62:3d:0c:f5:f0:f9:2a:35:
         91:f1:e9:41:8c:93:0a:3d:77:75:ad:47:0b:6b:d4:30:56:65:
         88:ff:d2:74
-----BEGIN CERTIFICATE-----
MIIEXTCCA0WgAwIBAgINA5JUrSGG3kAQGzYYVzANBgkqhkiG9w0BAQsFADBBMRUw
EwYDVQQDDAxUZXN0IFN1YkNBIDIxDTALBgNVBAsMBFRlc3QxDDAKBgNVBAoMA01U
RzELMAkGA1UEBhMCREUwHhcNMTkxMTA0MDU1MjU4WhcNMjAxMTA0MDU1MjU4WjBP
MQ0wCwYDVQQLDARUZXN0MQwwCgYDVQQKDANNVEcxEjAQBgNVBAcMCURhcm1zdGFk
dDEPMA0GA1UECAwGSGVzc2VuMQswCQYDVQQGEwJERTCCASIwDQYJKoZIhvcNAQEB
BQADggEPADCCAQoCggEBAJ1SQ/oWBWr28EiOCI1mMS8o/2G/YdivvpD5A+0/hbxo
7EnhlqGkFBTj/6cAo5w2O+3jWhVP+YV+9f6O1vWvkATG3MMiiSYszmfi1lZxa2AZ
M19H2ZttQHvurlxC14xLGu1L6THOhKj4J5FZCamKfduM8FJ2n1ckkUEYjuQ9Ue3o
Z8Lckjn8h2QD+BGVK/+WjErbScJevegWKwd54mSwvOMnTdv1We51/2CcC/JR51TD
ogYUKs7Yo9L7sG3DAHS4ocQdDYPTGdaMvel7ZS3jWcGD9g6wNXQg7FlncXw3kzE3
ZEd1oasKheIjlDciaUSR6oZqBo9WiY8LgK6vjJtaiUkCAwEAAaOCAUQwggFAMB8G
A1UdIwQYMBaAFBe5PET1dktgQm0sCZ7iXLPOvMViMB0GA1UdDgQWBBTOKtZQZ4Y7
621wgflrxkB+TWJ1fTAOBgNVHQ8BAf8EBAMCBaAwDAYDVR0TAQH/BAIwADAaBgNV
HREEEzARgg93d3cuZXhhbXBsZS5jb20wYgYIKwYBBQUHAQEEVjBUMCgGCCsGAQUF
BzAChhxodHRwOi8vY2EuZXhhbXBsZS5jb20vY2EuY3J0MCgGCCsGAQUFBzABhhxo
dHRwOi8vb2NzcC5leGFtcGxlLmNvbS9vY3NwMBIGA1UdIAQLMAkwBwYFKgMEBQYw
HQYDVR0lBBYwFAYIKwYBBQUHAwEGCCsGAQUFBwMCMC0GCCsGAQUFBwEDBCEwHzAI
BgYEAI5GAQEwEwYGBACORgEGMAkGBwQAjkYBBgIwDQYJKoZIhvcNAQELBQADggEB
ACL71cTa/6QlPK51esWLP6GE6s/dt00q3GtI3WrONnf9H2DgkdTw32AKdaKUuxBh
o3BYytACy5f0hwQVpyZVczfkLrdtUkH9nbsImDp4Fx9RibiAMVijdWw6MK6iJNuO
jriocNb71jWODcn0zUMrv8kDqC1wZNVrsO45okcm4UcH8aQ0FPUNUChJovfZWs6e
iSTN253YDxEGwOP/0QjiZ3h+SSN9gY2zS3n19mxjyOqrdf7MKokkZe8bgPQMXNHC
mg0LRSkhtKASDQkQJk/43oX6wBpW93PWW0zzrvVtN52rL3JiPQz18PkqNZHx6UGM
kwo9d3WtRwtr1DBWZYj/0nQ=
-----END CERTIFICATE-----
