Certificate:
    Data:
        Version: 3 (0x2)
        Serial Number:
            08:b0:df:35:6e:18:d6:29:4d:c3:4b:38:f3
        Signature Algorithm: sha256WithRSAEncryption
        Issuer: CN = Test SubCA 2, OU = Test, O = MTG, C = DE
        Validity
            Not Before: Nov  1 08:03:00 2019 GMT
            Not After : Nov  1 08:03:00 2020 GMT
        Subject: O = MTG, OU = Test, L = Darmstadt, ST = Hessen, C = DE, organizationIdentifier = PSDde-BAFIN-1234567890
        Subject Public Key Info:
            Public Key Algorithm: rsaEncryption
                RSA Public-Key: (2048 bit)
                Modulus:
                    00:c2:0d:81:71:b4:94:05:bc:cf:99:8a:aa:62:08:
                    f2:2e:63:b2:1e:46:f9:2b:85:98:c3:83:d0:ce:26:
                    ad:76:8f:5c:e7:5b:05:20:25:26:32:19:c2:24:8a:
                    ba:69:a3:eb:ca:10:a4:f3:cf:b5:c6:1e:f6:70:58:
                    96:5b:88:52:6a:88:42:33:85:b8:c6:16:48:4f:01:
                    45:39:3f:e1:6a:b9:06:b5:ef:37:db:79:9e:50:90:
                    57:43:5b:8b:c3:35:0d:b3:41:f4:1b:c2:4a:7f:18:
                    3c:39:2d:4f:bf:2b:a5:71:07:73:33:00:e5:8d:36:
                    9e:fe:8f:72:c5:72:56:08:cc:86:b6:ef:ba:e2:fd:
                    9b:5c:c6:2d:94:ed:2d:64:24:77:e6:67:4d:62:db:
                    94:2e:29:8e:dd:1d:7a:ca:bc:68:fb:15:2c:80:56:
                    d3:dd:e7:3a:8f:98:18:14:4b:11:d9:c4:01:1f:b9:
                    7a:d0:d9:ad:69:11:05:f6:0e:ae:5f:fc:cd:c6:b3:
                    cb:4d:ae:8e:45:18:0a:a8:c0:40:11:28:dc:cd:9f:
                    7a:26:67:5a:47:80:9b:d9:4c:f7:da:5f:6d:13:83:
                    1a:91:92:d1:b9:44:f7:72:6b:97:47:74:71:70:80:
                    d3:d6:73:bf:76:33:5c:70:b8:6f:87:37:3e:7e:8e:
                    75:e5
                Exponent: 65537 (0x10001)
        X509v3 extensions:
            X509v3 Authority Key Identifier: 
                keyid:0C:5E:9C:FE:BA:4B:21:6C:04:1D:C2:5A:B7:E3:88:5F:59:DE:4C:12

            X509v3 Subject Key Identifier: 
                0E:6B:AA:83:A9:B2:4D:5C:85:CD:B1:D2:2F:87:F7:20:CB:36:43:3B
            X509v3 Key Usage: critical
                Digital Signature, Key Encipherment
            X509v3 Basic Constraints: critical
                CA:FALSE
            X509v3 Subject Alternative Name: 
                DNS:www.example.com
            Authority Information Access: 
                CA Issuers - URI:http://ca.example.com/ca.crt
                OCSP - URI:http://ocsp.example.com/ocsp

            X509v3 Certificate Policies: 
                Policy: 0.4.0.194112.1.4
                Policy: 0.4.0.19495.3.1

            X509v3 Extended Key Usage: 
                TLS Web Server Authentication, TLS Web Client Authentication
            qcStatements: 
                0..0......F..0......F..0......F...0...+.......0.......I..0R......'.0H0.0.......'....PSP_IC.'Federal Financial Supervisory Authority..DE-BAFIN
    Signature Algorithm: sha256WithRSAEncryption
         47:ec:dc:88:a3:aa:09:2e:23:15:c7:4d:32:24:f7:6b:64:49:
         4f:64:7d:3d:af:22:62:0c:a5:ca:31:81:9a:e9:d4:9d:f6:f9:
         a9:6f:2e:14:0b:d3:b5:f0:b9:45:09:ee:20:72:b3:11:48:ee:
         07:d0:ed:99:48:1d:26:3f:62:41:0c:31:0f:ca:6d:43:0a:a8:
         e3:58:65:72:92:1a:de:4d:e3:01:bd:e8:89:60:82:aa:a8:93:
         0a:3a:69:84:d6:81:0c:a4:e9:6d:67:a6:64:fd:00:0e:1e:cc:
         c0:fa:a9:00:d6:9a:88:e3:48:0c:d7:99:3a:ff:45:e0:6c:c1:
         28:28:df:5d:74:58:15:f6:dd:4f:17:ea:04:3e:bc:72:d1:d6:
         96:02:05:83:ae:01:82:ef:b7:6a:ed:b7:f3:6f:c3:72:63:ac:
         07:81:e6:f8:e8:44:b9:0a:dd:29:11:a5:59:d6:6e:79:74:82:
         b2:f8:49:bc:e3:79:6c:5e:f2:69:e6:c9:e0:5a:5a:31:50:d1:
         30:6a:88:9f:d3:56:83:a8:7e:79:61:b0:2c:7e:0b:cb:8d:5a:
         97:66:29:bc:a4:08:d6:47:76:1e:16:92:0c:a0:fe:1f:e0:03:
         22:a9:22:4d:9b:77:6a:96:aa:e9:cb:a6:51:a6:00:4d:1d:16:
         26:13:50:07
-----BEGIN CERTIFICATE-----
MIIE+TCCA+GgAwIBAgINCLDfNW4Y1ilNw0s48zANBgkqhkiG9w0BAQsFADBBMRUw
EwYDVQQDDAxUZXN0IFN1YkNBIDIxDTALBgNVBAsMBFRlc3QxDDAKBgNVBAoMA01U
RzELMAkGA1UEBhMCREUwHhcNMTkxMTAxMDgwMzAwWhcNMjAxMTAxMDgwMzAwWjBw
MQwwCgYDVQQKDANNVEcxDTALBgNVBAsMBFRlc3QxEjAQBgNVBAcMCURhcm1zdGFk
dDEPMA0GA1UECAwGSGVzc2VuMQswCQYDVQQGEwJERTEfMB0GA1UEYQwWUFNEZGUt
QkFGSU4tMTIzNDU2Nzg5MDCCASIwDQYJKoZIhvcNAQEBBQADggEPADCCAQoCggEB
AMINgXG0lAW8z5mKqmII8i5jsh5G+SuFmMOD0M4mrXaPXOdbBSAlJjIZwiSKummj
68oQpPPPtcYe9nBYlluIUmqIQjOFuMYWSE8BRTk/4Wq5BrXvN9t5nlCQV0Nbi8M1
DbNB9BvCSn8YPDktT78rpXEHczMA5Y02nv6PcsVyVgjMhrbvuuL9m1zGLZTtLWQk
d+ZnTWLblC4pjt0desq8aPsVLIBW093nOo+YGBRLEdnEAR+5etDZrWkRBfYOrl/8
zcazy02ujkUYCqjAQBEo3M2feiZnWkeAm9lM99pfbRODGpGS0blE93Jrl0d0cXCA
09Zzv3YzXHC4b4c3Pn6OdeUCAwEAAaOCAb8wggG7MB8GA1UdIwQYMBaAFAxenP66
SyFsBB3CWrfjiF9Z3kwSMB0GA1UdDgQWBBQOa6qDqbJNXIXNsdIvh/cgyzZDOzAO
BgNVHQ8BAf8EBAMCBaAwDAYDVR0TAQH/BAIwADAaBgNVHREEEzARgg93d3cuZXhh
bXBsZS5jb20wYgYIKwYBBQUHAQEEVjBUMCgGCCsGAQUFBzAChhxodHRwOi8vY2Eu
ZXhhbXBsZS5jb20vY2EuY3J0MCgGCCsGAQUFBzABhhxodHRwOi8vb2NzcC5leGFt
cGxlLmNvbS9vY3NwMB8GA1UdIAQYMBYwCQYHBACL7EABBDAJBgcEAIGYJwMBMB0G
A1UdJQQWMBQGCCsGAQUFBwMBBggrBgEFBQcDAjCBmgYIKwYBBQUHAQMEgY0wgYow
CAYGBACORgEBMBMGBgQAjkYBBjAJBgcEAI5GAQYDMBUGCCsGAQUFBwsCMAkGBwQA
i+xJAQIwUgYGBACBmCcCMEgwEzARBgcEAIGYJwEEDAZQU1BfSUMMJ0ZlZGVyYWwg
RmluYW5jaWFsIFN1cGVydmlzb3J5IEF1dGhvcml0eQwIREUtQkFGSU4wDQYJKoZI
hvcNAQELBQADggEBAEfs3IijqgkuIxXHTTIk92tkSU9kfT2vImIMpcoxgZrp1J32
+alvLhQL07XwuUUJ7iBysxFI7gfQ7ZlIHSY/YkEMMQ/KbUMKqONYZXKSGt5N4wG9
6Ilggqqokwo6aYTWgQyk6W1npmT9AA4ezMD6qQDWmojjSAzXmTr/ReBswSgo3110
WBX23U8X6gQ+vHLR1pYCBYOuAYLvt2rtt/Nvw3JjrAeB5vjoRLkK3SkRpVnWbnl0
grL4SbzjeWxe8mnmyeBaWjFQ0TBqiJ/TVoOofnlhsCx+C8uNWpdmKbykCNZHdh4W
kgyg/h/gAyKpIk2bd2qWqunLplGmAE0dFiYTUAc=
-----END CERTIFICATE-----
