Certificate:
    Data:
        Version: 3 (0x2)
        Serial Number:
            0a:43:ff:9b:1c:ec:ab:50:6e:36:a1:71:60
        Signature Algorithm: sha256WithRSAEncryption
        Issuer: CN = Test SubCA 2, OU = Test, O = MTG, C = DE
        Validity
            Not Before: Nov  1 08:03:00 2019 GMT
            Not After : Nov  1 08:03:00 2020 GMT
        Subject: O = MTG, OU = Test, L = Darmstadt, ST = Hessen, C = DE, organizationIdentifier = PSDPL-PFSA-1234567890
        Subject Public Key Info:
            Public Key Algorithm: rsaEncryption
                RSA Public-Key: (2048 bit)
                Modulus:
                    00:c2:0d:81:71:b4:94:05:bc:cf:99:8a:aa:62:08:
                    f2:2e:63:b2:1e:46:f9:2b:85:98:c3:83:d0:ce:26:
                    ad:76:8f:5c:e7:5b:05:20:25:26:32:19:c2:24:8a:
                    ba:69:a3:eb:ca:10:a4:f3:cf:b5:c6:1e:f6:70:58:
                    96:5b:88:52:6a:88:42:33:85:b8:c6:16:48:4f:01:
                    45:39:3f:e1:6a:b9:06:b5:ef:37:db:79:9e:50:90:
                    57:43:5b:8b:c3:35:0d:b3:41:f4:1b:c2:4a:7f:18:
                    3c:39:2d:4f:bf:2b:a5:71:07:73:33:00:e5:8d:36:
                    9e:fe:8f:72:c5:72:56:08:cc:86:b6:ef:ba:e2:fd:
                    9b:5c:c6:2d:94:ed:2d:64:24:77:e6:67:4d:62:db:
                    94:2e:29:8e:dd:1d:7a:ca:bc:68:fb:15:2c:80:56:
                    d3:dd:e7:3a:8f:98:18:14:4b:11:d9:c4:01:1f:b9:
                    7a:d0:d9:ad:69:11:05:f6:0e:ae:5f:fc:cd:c6:b3:
                    cb:4d:ae:8e:45:18:0a:a8:c0:40:11:28:dc:cd:9f:
                    7a:26:67:5a:47:80:9b:d9:4c:f7:da:5f:6d:13:83:
                    1a:91:92:d1:b9:44:f7:72:6b:97:47:74:71:70:80:
                    d3:d6:73:bf:76:33:5c:70:b8:6f:87:37:3e:7e:8e:
                    75:e5
                Exponent: 65537 (0x10001)
        X509v3 extensions:
            X509v3 Authority Key Identifier: 
                keyid:0C:5E:9C:FE:BA:4B:21:6C:04:1D:C2:5A:B7:E3:88:5F:59:DE:4C:12

            X509v3 Subject Key Identifier: 
                0E:6B:AA:83:A9:B2:4D:5C:85:CD:B1:D2:2F:87:F7:20:CB:36:43:3B
            X509v3 Key Usage: critical
                Digital Signature, Key Encipherment
            X509v3 Basic Constraints: critical
                CA:FALSE
            X509v3 Subject Alternative Name: 
                DNS:www.example.com
            Authority Information Access: 
                CA Issuers - URI:http://ca.example.com/ca.crt
                OCSP - URI:http://ocsp.example.com/ocsp

            X509v3 Certificate Policies: 
                Policy: 0.4.0.194112.1.4
                Policy: 0.4.0.19495.3.1

            X509v3 Extended Key Usage: 
                TLS Web Server Authentication, TLS Web Client Authentication
            qcStatements: 
                0..0......F..0......F..0......F...0...+.......0.......I..0R......'.0H0.0.......'....PSP_IC.'Federal Financial Supervisory Authority..DE-BAFIN
    Signature Algorithm: sha256WithRSAEncryption
         40:e3:75:d9:3a:c2:be:8e:fa:55:b4:a9:8b:ce:81:f3:ee:4f:
         ed:cf:11:b3:22:ff:77:8a:e7:d9:40:a6:67:a9:f7:b3:b2:6d:
         cc:ff:8a:16:2a:12:1b:51:a4:41:c7:65:a5:5d:6c:f0:ff:8f:
         ff:08:0d:c5:39:4b:d5:dd:17:3c:a3:97:27:30:ef:5c:dd:e1:
         f1:14:e8:28:69:78:69:f2:e3:00:c4:f6:bd:25:e2:02:d9:ad:
         eb:49:3e:86:40:73:a0:ac:13:31:bd:d5:8f:5a:8e:c7:15:17:
         76:7e:54:76:03:db:54:0e:42:9e:14:a7:9c:6b:c1:9a:f1:c1:
         1b:f1:83:2c:09:2e:60:99:22:12:40:67:56:04:08:d2:54:bf:
         82:1d:c7:31:69:ea:f5:3a:22:8b:c0:68:b5:39:69:29:f5:43:
         39:c2:58:6a:4d:26:3a:07:52:cf:c5:94:e1:8f:bc:4b:2e:63:
         1c:34:95:dc:59:8e:d9:8d:cd:3a:a6:52:f7:63:af:59:d1:66:
         5b:b6:52:07:9b:a4:d8:09:1b:c4:ad:8d:8b:b3:a5:6e:1a:46:
         49:ec:14:1a:04:5b:6d:f3:9d:33:6d:fe:ef:2f:63:8d:cd:7e:
         ab:21:a6:42:47:f8:c9:5e:44:8e:97:27:76:21:eb:38:93:ef:
         0d:4f:4c:b8
-----BEGIN CERTIFICATE-----
MIIE+DCCA+CgAwIBAgINCkP/mxzsq1BuNqFxYDANBgkqhkiG9w0BAQsFADBBMRUw
EwYDVQQDDAxUZXN0IFN1YkNBIDIxDTALBgNVBAsMBFRlc3QxDDAKBgNVBAoMA01U
RzELMAkGA1UEBhMCREUwHhcNMTkxMTAxMDgwMzAwWhcNMjAxMTAxMDgwMzAwWjBv
MQwwCgYDVQQKDANNVEcxDTALBgNVBAsMBFRlc3QxEjAQBgNVBAcMCURhcm1zdGFk
dDEPMA0GA1UECAwGSGVzc2VuMQswCQYDVQQGEwJERTEeMBwGA1UEYQwVUFNEUEwt
UEZTQS0xMjM0NTY3ODkwMIIBIjANBgkqhkiG9w0BAQEFAAOCAQ8AMIIBCgKCAQEA
wg2BcbSUBbzPmYqqYgjyLmOyHkb5K4WYw4PQziatdo9c51sFICUmMhnCJIq6aaPr
yhCk88+1xh72cFiWW4hSaohCM4W4xhZITwFFOT/harkGte8323meUJBXQ1uLwzUN
s0H0G8JKfxg8OS1PvyulcQdzMwDljTae/o9yxXJWCMyGtu+64v2bXMYtlO0tZCR3
5mdNYtuULimO3R16yrxo+xUsgFbT3ec6j5gYFEsR2cQBH7l60NmtaREF9g6uX/zN
xrPLTa6ORRgKqMBAESjczZ96JmdaR4Cb2Uz32l9tE4MakZLRuUT3cmuXR3RxcIDT
1nO/djNccLhvhzc+fo515QIDAQABo4IBvzCCAbswHwYDVR0jBBgwFoAUDF6c/rpL
IWwEHcJat+OIX1neTBIwHQYDVR0OBBYEFA5rqoOpsk1chc2x0i+H9yDLNkM7MA4G
A1UdDwEB/wQEAwIFoDAMBgNVHRMBAf8EAjAAMBoGA1UdEQQTMBGCD3d3dy5leGFt
cGxlLmNvbTBiBggrBgEFBQcBAQRWMFQwKAYIKwYBBQUHMAKGHGh0dHA6Ly9jYS5l
eGFtcGxlLmNvbS9jYS5jcnQwKAYIKwYBBQUHMAGGHGh0dHA6Ly9vY3NwLmV4YW1w
bGUuY29tL29jc3AwHwYDVR0gBBgwFjAJBgcEAIvsQAEEMAkGBwQAgZgnAwEwHQYD
VR0lBBYwFAYIKwYBBQUHAwEGCCsGAQUFBwMCMIGaBggrBgEFBQcBAwSBjTCBijAI
BgYEAI5GAQEwEwYGBACORgEGMAkGBwQAjkYBBgMwFQYIKwYBBQUHCwIwCQYHBACL
7EkBAjBSBgYEAIGYJwIwSDATMBEGBwQAgZgnAQQMBlBTUF9JQwwnRmVkZXJhbCBG
aW5hbmNpYWwgU3VwZXJ2aXNvcnkgQXV0aG9yaXR5DAhERS1CQUZJTjANBgkqhkiG
9w0BAQsFAAOCAQEAQON12TrCvo76VbSpi86B8+5P7c8RsyL/d4rn2UCmZ6n3s7Jt
zP+KFioSG1GkQcdlpV1s8P+P/wgNxTlL1d0XPKOXJzDvXN3h8RToKGl4afLjAMT2
vSXiAtmt60k+hkBzoKwTMb3Vj1qOxxUXdn5UdgPbVA5CnhSnnGvBmvHBG/GDLAku
YJkiEkBnVgQI0lS/gh3HMWnq9Toii8BotTlpKfVDOcJYak0mOgdSz8WU4Y+8Sy5j
HDSV3FmO2Y3NOqZS92OvWdFmW7ZSB5uk2AkbxK2Ni7OlbhpGSewUGgRbbfOdM23+
7y9jjc1+qyGmQkf4yV5EjpcndiHrOJPvDU9MuA==
-----END CERTIFICATE-----
