Certificate:
    Data:
        Version: 3 (0x2)
        Serial Number:
            0e:5d:8f:d2:4b:06:b8:20:be:c8:5b:2b:c5
        Signature Algorithm: sha256WithRSAEncryption
        Issuer: CN = Test SubCA 2, OU = Test, O = MTG, C = DE
        Validity
            Not Before: Nov  1 08:03:01 2019 GMT
            Not After : Nov  1 08:03:01 2020 GMT
        Subject: O = MTG, OU = Test, L = Darmstadt, ST = Hessen, C = DE, organizationIdentifier = PDSDE-BAFIN-1234567890
        Subject Public Key Info:
            Public Key Algorithm: rsaEncryption
                RSA Public-Key: (2048 bit)
                Modulus:
                    00:c2:0d:81:71:b4:94:05:bc:cf:99:8a:aa:62:08:
                    f2:2e:63:b2:1e:46:f9:2b:85:98:c3:83:d0:ce:26:
                    ad:76:8f:5c:e7:5b:05:20:25:26:32:19:c2:24:8a:
                    ba:69:a3:eb:ca:10:a4:f3:cf:b5:c6:1e:f6:70:58:
                    96:5b:88:52:6a:88:42:33:85:b8:c6:16:48:4f:01:
                    45:39:3f:e1:6a:b9:06:b5:ef:37:db:79:9e:50:90:
                    57:43:5b:8b:c3:35:0d:b3:41:f4:1b:c2:4a:7f:18:
                    3c:39:2d:4f:bf:2b:a5:71:07:73:33:00:e5:8d:36:
                    9e:fe:8f:72:c5:72:56:08:cc:86:b6:ef:ba:e2:fd:
                    9b:5c:c6:2d:94:ed:2d:64:24:77:e6:67:4d:62:db:
                    94:2e:29:8e:dd:1d:7a:ca:bc:68:fb:15:2c:80:56:
                    d3:dd:e7:3a:8f:98:18:14:4b:11:d9:c4:01:1f:b9:
                    7a:d0:d9:ad:69:11:05:f6:0e:ae:5f:fc:cd:c6:b3:
                    cb:4d:ae:8e:45:18:0a:a8:c0:40:11:28:dc:cd:9f:
                    7a:26:67:5a:47:80:9b:d9:4c:f7:da:5f:6d:13:83:
                    1a:91:92:d1:b9:44:f7:72:6b:97:47:74:71:70:80:
                    d3:d6:73:bf:76:33:5c:70:b8:6f:87:37:3e:7e:8e:
                    75:e5
                Exponent: 65537 (0x10001)
        X509v3 extensions:
            X509v3 Authority Key Identifier: 
                keyid:0C:5E:9C:FE:BA:4B:21:6C:04:1D:C2:5A:B7:E3:88:5F:59:DE:4C:12

            X509v3 Subject Key Identifier: 
                0E:6B:AA:83:A9:B2:4D:5C:85:CD:B1:D2:2F:87:F7:20:CB:36:43:3B
            X509v3 Key Usage: critical
                Digital Signature, Key Encipherment
            X509v3 Basic Constraints: critical
                CA:FALSE
            X509v3 Subject Alternative Name: 
                DNS:www.example.com
            Authority Information Access: 
                CA Issuers - URI:http://ca.example.com/ca.crt
                OCSP - URI:http://ocsp.example.com/ocsp

            X509v3 Certificate Policies: 
                Policy: 0.4.0.194112.1.4
                Policy: 0.4.0.19495.3.1

            X509v3 Extended Key Usage: 
                TLS Web Server Authentication, TLS Web Client Authentication
            qcStatements: 
                0s0......F..0......F..0......F...0R......'.0H0.0.......'....PSP_IC.'Federal Financial Supervisory Authority..DE-BAFIN
    Signature Algorithm: sha256WithRSAEncryption
         01:7b:51:09:18:04:c6:38:3c:4f:5b:66:de:08:0a:01:6f:b3:
         26:50:75:8e:42:c7:ac:17:c3:bf:72:0a:0f:39:c5:37:d4:c0:
         6e:54:fb:9c:db:77:d0:9e:0e:73:38:52:9c:02:5d:9e:e3:a7:
         d1:a6:7b:a4:0e:07:bf:f4:86:38:00:cd:30:52:4f:a0:f4:8f:
         0d:2a:aa:03:08:ac:9b:bb:c2:46:c1:4f:a8:46:64:05:07:d7:
         a3:83:67:14:d7:c6:b6:17:38:6e:3e:aa:5d:db:11:08:10:82:
         c2:fc:7d:4d:02:67:61:cf:5f:58:3d:0d:7c:af:87:43:7f:bb:
         91:bc:b1:2c:e1:bf:11:ef:3e:8f:65:4b:16:f8:52:ab:bf:11:
         47:e9:18:5f:6b:2b:7a:27:72:de:9d:0d:f2:53:db:3f:9d:eb:
         8e:6d:5c:2b:1a:38:af:f8:81:bc:e0:b4:21:7e:24:1c:9d:e3:
         2d:40:6e:1f:9a:e1:6b:99:c9:ab:e6:51:a0:6d:8f:70:e8:0c:
         20:b1:1e:c8:98:c8:de:db:f1:a7:3e:10:5a:5e:32:b6:bb:86:
         d3:30:21:4c:2f:5f:d0:bc:39:a1:53:4d:91:ba:7c:29:76:19:
         b7:b4:d0:15:95:ae:e3:3f:ba:93:ce:6f:35:57:5a:01:4a:1c:
         b0:df:92:c6
-----BEGIN CERTIFICATE-----
MIIE4DCCA8igAwIBAgINDl2P0ksGuCC+yFsrxTANBgkqhkiG9w0BAQsFADBBMRUw
EwYDVQQDDAxUZXN0IFN1YkNBIDIxDTALBgNVBAsMBFRlc3QxDDAKBgNVBAoMA01U
RzELMAkGA1UEBhMCREUwHhcNMTkxMTAxMDgwMzAxWhcNMjAxMTAxMDgwMzAxWjBw
MQwwCgYDVQQKDANNVEcxDTALBgNVBAsMBFRlc3QxEjAQBgNVBAcMCURhcm1zdGFk
dDEPMA0GA1UECAwGSGVzc2VuMQswCQYDVQQGEwJERTEfMB0GA1UEYQwWUERTREUt
QkFGSU4tMTIzNDU2Nzg5MDCCASIwDQYJKoZIhvcNAQEBBQADggEPADCCAQoCggEB
AMINgXG0lAW8z5mKqmII8i5jsh5G+SuFmMOD0M4mrXaPXOdbBSAlJjIZwiSKummj
68oQpPPPtcYe9nBYlluIUmqIQjOFuMYWSE8BRTk/4Wq5BrXvN9t5nlCQV0Nbi8M1
DbNB9BvCSn8YPDktT78rpXEHczMA5Y02nv6PcsVyVgjMhrbvuuL9m1zGLZTtLWQk
d+ZnTWLblC4pjt0desq8aPsVLIBW093nOo+YGBRLEdnEAR+5etDZrWkRBfYOrl/8
zcazy02ujkUYCqjAQBEo3M2feiZnWkeAm9lM99pfbRODGpGS0blE93Jrl0d0cXCA
09Zzv3YzXHC4b4c3Pn6OdeUCAwEAAaOCAaYwggGiMB8GA1UdIwQYMBaAFAxenP66
SyFsBB3CWrfjiF9Z3kwSMB0GA1UdDgQWBBQOa6qDqbJNXIXNsdIvh/cgyzZDOzAO
BgNVHQ8BAf8EBAMCBaAwDAYDVR0TAQH/BAIwADAaBgNVHREEEzARgg93d3cuZXhh
bXBsZS5jb20wYgYIKwYBBQUHAQEEVjBUMCgGCCsGAQUFBzAChhxodHRwOi8vY2Eu
ZXhhbXBsZS5jb20vY2EuY3J0MCgGCCsGAQUFBzABhhxodHRwOi8vb2NzcC5leGFt
cGxlLmNvbS9vY3NwMB8GA1UdIAQYMBYwCQYHBACL7EABBDAJBgcEAIGYJwMBMB0G
A1UdJQQWMBQGCCsGAQUFBwMBBggrBgEFBQcDAjCBgQYIKwYBBQUHAQMEdTBzMAgG
BgQAjkYBATATBgYEAI5GAQYwCQYHBACORgEGAzBSBgYEAIGYJwIwSDATMBEGBwQA
gZgnAQQMBlBTUF9JQwwnRmVkZXJhbCBGaW5hbmNpYWwgU3VwZXJ2aXNvcnkgQXV0
aG9yaXR5DAhERS1CQUZJTjANBgkqhkiG9w0BAQsFAAOCAQEAAXtRCRgExjg8T1tm
3ggKAW+zJlB1jkLHrBfDv3IKDznFN9TAblT7nNt30J4OczhSnAJdnuOn0aZ7pA4H
v/SGOADNMFJPoPSPDSqqAwism7vCRsFPqEZkBQfXo4NnFNfGthc4bj6qXdsRCBCC
wvx9TQJnYc9fWD0NfK+HQ3+7kbyxLOG/Ee8+j2VLFvhSq78RR+kYX2sreidy3p0N
8lPbP53rjm1cKxo4r/iBvOC0IX4kHJ3jLUBuH5rha5nJq+ZRoG2PcOgMILEeyJjI
3tvxpz4QWl4ytruG0zAhTC9f0Lw5oVNNkbp8KXYZt7TQFZWu4z+6k85vNVdaAUoc
sN+Sxg==
-----END CERTIFICATE-----
